Trying to open '.\snclientapi.dll'..
Loading PE information..
FileFormat: PE, Arch: Ia32
Using the Nasm syntax..

Wait a few seconds, rp++ is looking for gadgets..
in .text
7600 found.

A total of 7600 gadgets found.
0x10003c2d: aad 0x66 ; mov dword [esi+0x2C], eax ; mov ax, word [ebx+0x02] ; push eax ; call ebp ;  (1 found)
0x1000e5d9: aad 0x8B ; clc  ; mov ax, word [esi+0x02] ; push eax ; call ebp ;  (1 found)
0x1000c004: aam 0x00 ; add byte [eax], al ; push eax ; xor ebp, ebp ; call esi ;  (1 found)
0x100038a3: aam 0x05 ; add byte [eax], al ; push 0xFFFFFFFF ; push ecx ; call dword [0x10013090] ;  (1 found)
0x10006e09: aam 0x05 ; add byte [eax], al ; push 0xFFFFFFFF ; push ecx ; call dword [0x10013090] ;  (1 found)
0x1000398f: aam 0x05 ; add byte [eax], al ; push 0xFFFFFFFF ; push edx ; call edi ;  (1 found)
0x100035f7: aam 0x05 ; add byte [eax], al ; push eax ; call dword [0x10013094] ;  (1 found)
0x10001293: aam 0x05 ; add byte [eax], al ; push edx ; call dword [0x10013090] ;  (1 found)
0x100012eb: aam 0x05 ; add byte [eax], al ; push edx ; call dword [0x10013094] ;  (1 found)
0x1000e66a: aam 0x3A ; add byte [eax], al ; add esp, 0x18 ; mov eax, 0x00000001 ; ret  ;  (1 found)
0x10011988: aam 0xF6 ; add dword [eax], edx ; call dword [0x100130A8] ;  (1 found)
0x100122fe: aas  ; push 0x00000080 ; call dword [0x100130B0] ;  (1 found)
0x1000baa4: adc al, 0x01 ; add byte [eax], al ; add esp, 0x50 ; push 0x0000000A ; call dword [0x1001312C] ;  (1 found)
0x100115fb: adc al, 0x01 ; add byte [eax], al ; lea ebx, dword [edi+0x0C] ; push ebx ; call dword [0x100130B0] ;  (1 found)
0x1000d7e4: adc al, 0x01 ; add byte [eax], al ; mov dword [esp+0x00000088], eax ; push ecx ; call esi ;  (1 found)
0x10010bdc: adc al, 0x01 ; add byte [eax], al ; push ecx ; call ebx ;  (1 found)
0x100034f9: adc al, 0x04 ; add byte [eax], al ; ret  ;  (1 found)
0x10002f23: adc al, 0x2B ; ret  ;  (1 found)
0x10011b5c: adc al, 0x30 ; add dword [eax], edx ; ret  ;  (1 found)
0x10012132: adc al, 0x31 ; add dword [eax], edx ; jmp dword [0x10013170] ;  (1 found)
0x1000bdbd: adc al, 0x38 ; add byte [eax], al ; add byte [ebx], bh ; ret  ;  (1 found)
0x1000a625: adc al, 0x38 ; add byte [eax], al ; add byte [ebx], bh ; ret  ;  (1 found)
0x1000445e: adc al, 0x50 ; call dword [0x10013128] ;  (1 found)
0x10004b9f: adc al, 0x50 ; call dword [0x10013134] ;  (1 found)
0x1000167f: adc al, 0x50 ; call ebx ;  (1 found)
0x10010e34: adc al, 0x51 ; push edx ; call dword [0x10013050] ;  (1 found)
0x1000edb3: adc al, 0x51 ; push esi ; call ebp ;  (1 found)
0x1000eedd: adc al, 0x57 ; push esi ; push eax ; call dword [esi+0x34] ;  (1 found)
0x10011967: adc al, 0x5F ; pop esi ; add esp, 0x28 ; ret  ;  (1 found)
0x10011521: adc al, 0x6A ; add byte [ecx+0x52], dl ; push eax ; push 0x00000000 ; call dword [0x10013068] ;  (1 found)
0x10001a21: adc al, 0x6A ; or cl, byte [ebp+0x5150014E] ; call dword [0x1001310C] ;  (1 found)
0x10003e80: adc al, 0x85 ; add dword [esp+eax+0x33], esi ; imul bl ; adc dword [edx+0x02], ebp ; call ebp ;  (1 found)
0x10006543: adc al, 0x8D ; mov dl, 0x84 ; add byte [eax], al ; add byte [ebx+0x53A5F3FC], cl ; call eax ;  (1 found)
0x1000e80a: adc al, 0xE9 ; imul edi, edi, 0xFF ; jmp dword [ecx+0x1002FDB8] ;  (1 found)
0x1000231c: adc al, 0xF7 ; add dword [eax], edx ; add byte [eax], al ; add byte [eax], al ; ret  ;  (1 found)
0x1000a16a: adc al, 0xFF ; xlatb  ; push ebp ; mov word [esp+0x68], ax ; call edi ;  (1 found)
0x10009c20: adc al, byte [ebp-0x3B7D0000] ; and byte [ebx+0x5D5E5FC7], cl ; pop ebx ; add esp, 0x08 ; ret  ;  (1 found)
0x1000f65d: adc bh, bh ; adc eax, 0x10013028 ; xor eax, eax ; add esp, 0x00000190 ; ret  ;  (1 found)
0x10012135: adc bh, bh ; and eax, 0x10013170 ; jmp dword [0x10013174] ;  (1 found)
0x1001213b: adc bh, bh ; and eax, 0x10013174 ; jmp dword [0x10013178] ;  (1 found)
0x10012141: adc bh, bh ; and eax, 0x10013178 ; jmp dword [0x1001317C] ;  (1 found)
0x10012147: adc bh, bh ; and eax, 0x1001317C ; jmp dword [0x10013180] ;  (1 found)
0x1001214d: adc bh, bh ; and eax, 0x10013180 ; jmp dword [0x10013184] ;  (1 found)
0x10012153: adc bh, bh ; and eax, 0x10013184 ; jmp dword [0x10013188] ;  (1 found)
0x10012159: adc bh, bh ; and eax, 0x10013188 ; jmp dword [0x1001318C] ;  (1 found)
0x1001215f: adc bh, bh ; and eax, 0x1001318C ; jmp dword [0x10013194] ;  (1 found)
0x1001216b: adc bh, bh ; and eax, 0x10013190 ; jmp dword [0x10013198] ;  (1 found)
0x10012165: adc bh, bh ; and eax, 0x10013194 ; jmp dword [0x10013190] ;  (1 found)
0x100114bc: adc bh, bh ; salc  ; push edi ; call esi ;  (1 found)
0x100114fb: adc bh, bh ; xlatb  ; push esi ; call edi ;  (1 found)
0x10006bd5: adc bl, al ; mov ecx, dword [esi+0x000005D0] ; push 0xFFFFFFFF ; push ecx ; call dword [0x10013090] ;  (1 found)
0x100015d4: adc bl, al ; mov edx, dword [esi+0x000006F4] ; push 0xFFFFFFFF ; push edx ; call dword [0x10013090] ;  (1 found)
0x10005651: adc bl, ch ; sbb al, 0x66 ; cmp eax, 0x0E750001 ; push 0x00000002 ; call dword [0x10013134] ;  (1 found)
0x100105ec: adc byte [eax+0x00000001], bh ; pop esi ; ret  ;  (1 found)
0x1001061b: adc byte [eax+0x00000001], bh ; pop esi ; ret  ;  (1 found)
0x10011217: adc byte [eax+0x08], ch ; add al, byte [eax] ; add byte [ebp-0x00042F73], cl ; call dword [ecx-0x18] ;  (1 found)
0x1000cc8d: adc byte [eax+0x33], dl ; in eax, dx ; call esi ;  (1 found)
0x1000f976: adc byte [eax+0x3B], al ; ret  ;  (1 found)
0x1001006d: adc byte [eax+0x51], dl ; call dword [0x1002FBA4] ;  (1 found)
0x1000fee3: adc byte [eax+0x51], dl ; call dword [0x1002FBB8] ;  (1 found)
0x1000ff98: adc byte [eax+0x51], dl ; push edx ; call dword [0x1002FBC4] ;  (1 found)
0x1001193c: adc byte [eax+0x57], dl ; push 0x00000410 ; call dword [0x10013058] ;  (1 found)
0x1000c574: adc byte [eax+0x68], ch ; mov edx, 0xE8511001 ; retn 0x005B ;  (1 found)
0x1000d074: adc byte [eax+0x68], ch ; mov edx, 0xE8521001 ; retn 0x0050 ;  (1 found)
0x1000431e: adc byte [eax+0x68], dl ; mov eax, 0x681001AF ; ret  ;  (1 found)
0x1000f2c7: adc byte [eax-0x0A], ch ; add dword [eax], eax ; add byte [eax+0x44], ch ; retn 0x1001 ;  (1 found)
0x1000e8d2: adc byte [eax-0x18], dl ; imul edi, dword [eax], 0xC4830000 ; sbb byte [ebx], dh ; rcr byte [edi+0x5E], 0x0000005B ; ret  ;  (1 found)
0x1000e3ae: adc byte [eax-0x18], dl ; lea edi, dword [0xC4830000] ; cmp byte [esi+0x5D], bl ; add esp, 0x0000041C ; ret  ;  (1 found)
0x10003b8e: adc byte [eax-0x18], dl ; lodsd  ; in eax, 0x00 ; add byte [ebx+0x016A18C4], al ; call dword [0x1001312C] ;  (1 found)
0x10008aa7: adc byte [eax-0x18], dl ; mov byte [esi-0x3B7D0000], dl ; and byte [ebx+0x5B5E5FC7], cl ; add esp, 0x08 ; ret  ;  (1 found)
0x100018b4: adc byte [eax-0x18], dl ; or dword [eax], 0xC4830001 ; sbb al, 0x5E ; ret  ;  (1 found)
0x10005e01: adc byte [eax-0x18], dl ; ret  ;  (1 found)
0x100069a7: adc byte [eax-0x18], dl ; xchg eax, esp ; mov bh, 0x00 ; add byte [ebx+0x5E5F18C4], al ; ret  ;  (1 found)
0x1000f2c1: adc byte [eax-0x5F], dl ; mov eax, 0x681002FD ; test byte [ecx], 0x00000000 ; add byte [eax+0x44], ch ; retn 0x1001 ;  (1 found)
0x1000f4e5: adc byte [eax-0x74], ch ; retn 0x1001 ;  (1 found)
0x1001082b: adc byte [eax], al ; add bl, al ; lea edx, dword [esp+0x00] ; push edx ; call dword [0x10013044] ;  (1 found)
0x100104fe: adc byte [eax], al ; add bl, al ; lea edx, dword [esp+0x00] ; push edx ; call dword [0x100130E4] ;  (1 found)
0x1000a993: adc byte [eax], al ; add byte [eax], al ; mov edx, dword [ebx+0x38] ; push edx ; call ebp ;  (1 found)
0x1001057a: adc byte [eax], al ; add byte [ecx+0x52], dl ; call dword [0x100130E0] ;  (1 found)
0x100108c9: adc byte [eax], al ; add byte [ecx+0x52], dl ; push eax ; call dword [0x10013120] ;  (1 found)
0x10010610: adc byte [ebp+0x0E7456C0], al ; call dword [0x10013034] ;  (1 found)
0x100122fc: adc byte [ebp+0x3F], dh ; push 0x00000080 ; call dword [0x100130B0] ;  (1 found)
0x100100b4: adc byte [ebp+0x50002444], cl ; push ecx ; call dword [0x1002FB84] ;  (1 found)
0x1000ef6e: adc byte [ebp+0x500C2444], cl ; push esi ; call ebx ;  (1 found)
0x100109ee: adc byte [ebp+0x5108244C], cl ; call dword [0x100130D0] ;  (1 found)
0x1000edaf: adc byte [ebp+0x5114244C], cl ; push esi ; call ebp ;  (1 found)
0x1000527c: adc byte [ebp+0x56], dl ; push edi ; push 0x0000000C ; call ebx ;  (1 found)
0x10012407: adc byte [ebp+0x570874C0], al ; push esi ; push ebx ; call eax ;  (1 found)
0x100123ab: adc byte [ebp+0x570974C0], al ; push esi ; push ebx ; call eax ;  (1 found)
0x10011752: adc byte [ebp+0x681C244C], cl ; inc dword [eax] ; add byte [eax], al ; push ecx ; call dword [0x100130AC] ;  (1 found)
0x100118ed: adc byte [ebp+0x681C244C], cl ; inc dword [eax] ; add byte [eax], al ; push ecx ; call dword [0x100130AC] ;  (1 found)
0x100117ce: adc byte [ebp+0x68202444], cl ; inc dword [eax] ; add byte [eax], al ; push eax ; call dword [0x100130AC] ;  (1 found)
0x100116b7: adc byte [ebp+0x6824244C], cl ; inc dword [eax] ; add byte [eax], al ; push ecx ; call dword [0x100130AC] ;  (1 found)
0x10011651: adc byte [ebp+0x6828244C], cl ; inc dword [eax] ; add byte [eax], al ; push ecx ; call dword [0x100130AC] ;  (1 found)
0x10011f3a: adc byte [ebp+0x6A20244C], cl ; adc byte [ecx+0x56], dl ; mov word [esp+0x2E], ax ; call dword [0x10013150] ;  (1 found)
0x1001120b: adc byte [ebp-0x00021F7B], cl ; call dword [eax+0x68] ;  (1 found)
0x10010ad8: adc byte [ebp-0x0003276B], cl ; call dword [edx-0x18] ;  (1 found)
0x10010b01: adc byte [ebp-0x0003276B], cl ; call dword [edx-0x18] ;  (1 found)
0x1001036c: adc byte [ebp-0x00F18A40], al ; xlatb  ; push eax ; call dword [0x10013034] ;  (1 found)
0x10011b88: adc byte [ebp-0x00F38A40], al ; adc eax, 0x10013070 ; xor eax, eax ; add esp, 0x0C ; ret  ;  (1 found)
0x10011bd8: adc byte [ebp-0x00F38A40], al ; adc eax, 0x10013070 ; xor eax, eax ; add esp, 0x0C ; ret  ;  (1 found)
0x10011bb1: adc byte [ebp-0x00F38A40], al ; adc eax, 0x10013070 ; xor eax, eax ; add esp, 0x0C ; ret  ;  (1 found)
0x10011c32: adc byte [ebp-0x00F38A40], al ; adc eax, 0x10013070 ; xor eax, eax ; add esp, 0x0C ; ret  ;  (1 found)
0x10011c04: adc byte [ebp-0x00F38A40], al ; adc eax, 0x10013070 ; xor eax, eax ; add esp, 0x0C ; ret  ;  (1 found)
0x1000f387: adc byte [ebp-0x5EDB8B40], al ; mov eax, 0x6A1002FD ; add byte [eax+0x24], ch ; retn 0x1001 ;  (1 found)
0x10001c40: adc byte [ebx+0x00037080], cl ; add byte [ebx], bh ; ret  ;  (1 found)
0x10003ac8: adc byte [ebx+0x00039887], cl ; add byte [ebp+0x0003949F], cl ; add byte [ebx], bh ; ret  ;  (1 found)
0x1000e1fe: adc byte [ebx+0x0006D093], cl ; add byte [edx+0x00], ch ; push 0x00000001 ; push edx ; call dword [0x10013094] ;  (1 found)
0x1000f355: adc byte [ebx+0x0006DC86], cl ; add byte [edx+0x00], ch ; push 0x00000001 ; push eax ; call dword [0x10013094] ;  (1 found)
0x1000f451: adc byte [ebx+0x0006DC8E], cl ; add byte [edx+0x00], ch ; push 0x00000001 ; push ecx ; call dword [0x10013094] ;  (1 found)
0x10001199: adc byte [ebx+0x006A30C4], al ; push 0x00000001 ; push edx ; call dword [0x10013094] ;  (1 found)
0x10003824: adc byte [ebx+0x006A5C56], cl ; push 0x00000001 ; push edx ; mov dword [esi+0x60], 0x00000001 ; call dword [0x10013094] ;  (1 found)
0x1000b702: adc byte [ebx+0x00B824BC], cl ; add byte [eax], al ; mov dword [esp+0x50], eax ; push edi ; call ebx ;  (1 found)
0x1000b69c: adc byte [ebx+0x00F824B4], cl ; add byte [eax], al ; add esp, 0x50 ; push 0x0000000C ; call ebx ;  (1 found)
0x1000ef68: adc byte [ebx+0x0130903D], cl ; adc byte [ebp+0x500C2444], cl ; push esi ; call ebx ;  (1 found)
0x10010e67: adc byte [ebx+0x016A55E8], cl ; push 0x001F0FFF ; call dword [0x10013058] ;  (1 found)
0x10003f6b: adc byte [ebx+0x019DE9F0], cl ; add byte [eax], al ; push 0x80000000 ; call ebp ;  (1 found)
0x100019df: adc byte [ebx+0x0F102454], cl ; mov esi, 0x03B81684 ; add byte [eax], al ; push eax ; call edi ;  (1 found)
0x10010b32: adc byte [ebx+0x25EB10C4], al ; mov eax, 0x00000001 ; ret  ;  (1 found)
0x10001d13: adc byte [ebx+0x3B], dl ; ret  ;  (1 found)
0x10006ca5: adc byte [ebx+0x4789204F], cl ; sbb al, 0x51 ; call dword [0x10013134] ;  (1 found)
0x100030c7: adc byte [ebx+0x50102444], cl ; call dword [0x1001312C] ;  (1 found)
0x1000feb9: adc byte [ebx+0x50302474], cl ; mov dword [esi], eax ; mov edx, dword [0x1002FD8C] ; push edx ; call dword [0x1002FBAC] ;  (1 found)
0x10003bf5: adc byte [ebx+0x50C033D8], cl ; call edi ;  (1 found)
0x10011543: adc byte [ebx+0x52182454], cl ; push esi ; call dword [0x10013064] ;  (1 found)
0x1000197f: adc byte [ebx+0x56], dl ; push 0xFFFFFFFF ; push eax ; call dword [0x10013090] ;  (1 found)
0x10010308: adc byte [ebx+0x5F082444], cl ; pop esi ; pop ecx ; ret  ;  (1 found)
0x10011963: adc byte [ebx+0x5F142444], cl ; pop esi ; add esp, 0x28 ; ret  ;  (1 found)
0x10001be6: adc byte [ebx+0x6A], dl ; add dword [edx+0x01], ebp ; push ebx ; mov dword [ecx+0x000005CC], eax ; call ebp ;  (1 found)
0x1000e1a4: adc byte [ebx-0x0095D73C], al ; push ecx ; call ebp ;  (1 found)
0x10003984: adc byte [ebx-0x0095D73C], al ; push ecx ; call edi ;  (1 found)
0x10006822: adc byte [ebx-0x0095D73C], al ; push ecx ; call edi ;  (1 found)
0x10006922: adc byte [ebx-0x0095D73C], al ; push ecx ; call edi ;  (1 found)
0x10001132: adc byte [ebx-0x0095D73C], al ; push edx ; call dword [0x10013090] ;  (1 found)
0x10012365: adc byte [ebx-0x1514FB12], al ; push eax ; call dword [0x100130B4] ;  (1 found)
0x10010584: adc byte [ebx-0x3B7EF73C], al ; add byte [eax], ah ; add byte [eax], al ; ret  ;  (1 found)
0x1001050c: adc byte [ebx-0x3B7EFB3C], al ; add byte [eax], dl ; add byte [eax], al ; ret  ;  (1 found)
0x1000ffa1: adc byte [ebx-0x3FCCCB3C], al ; pop edi ; pop esi ; ret  ;  (1 found)
0x10010021: adc byte [ebx-0x3FCCEF3C], al ; pop esi ; pop ecx ; ret  ;  (1 found)
0x100100c0: adc byte [ebx-0x3FCCF73C], al ; add esp, 0x0000010C ; ret  ;  (1 found)
0x100105ba: adc byte [ebx-0x6F3CFB3C], al ; push esi ; call dword [0x10013070] ;  (1 found)
0x1000ac54: adc byte [ebx-0x76AEF3BA], cl ; push esp ; and al, 0x1C ; mov dword [esp+0x20], eax ; call ebx ;  (1 found)
0x1000f1f8: adc byte [ebx-0x79760008], al ; fadd dword [0x56750000] ; call dword [0x10013164] ;  (1 found)
0x1000f2b0: adc byte [ebx-0x7AF00008], al ; mov dh, 0x00 ; add byte [eax], al ; push 0x00000000 ; call dword [0x10013164] ;  (1 found)
0x1000e512: adc byte [ebx-0x7CDFDB8C], cl ; retn 0x6803 ;  (1 found)
0x10011056: adc byte [ebx-0x7EFBDBBC], cl ; les ebx,  [eax] ; add eax, dword [eax] ; add bl, al ; call dword [0x10013070] ;  (1 found)
0x1000b014: adc byte [ebx], al ; retn 0x5C89 ;  (1 found)
0x1000f663: adc byte [ebx], dh ; rol byte [ecx+0x000190C4], 0x00000000 ; ret  ;  (1 found)
0x1000166c: adc byte [ecx+0x0006E486], cl ; add byte [edx-0x01], dl ; ror dword [ecx+0x0006E886], cl ; add byte [ebx+0x50142444], cl ; call ebx ;  (1 found)
0x1000fecd: adc byte [ecx+0x1002FD8C], ah ; push edi ; push eax ; call dword [0x1002FB9C] ;  (1 found)
0x10012014: adc byte [ecx+0x335E5F1F], cl ; rcr byte [ebx-0x7F], 0xFFFFFFC4 ; sub byte [ecx], dl ; add byte [eax], al ; ret  ;  (1 found)
0x10006c98: adc byte [ecx+0x478B1847], cl ; sbb al, 0x50 ; call dword [0x10013134] ;  (1 found)
0x1000f29d: adc byte [ecx+0x52], dl ; mov word [esp+0x18], 0x0002 ; mov dword [esp+0x1C], eax ; call dword [0x10013150] ;  (1 found)
0x1000fff5: adc byte [ecx+0x52], dl ; push eax ; call dword [0x1002FBC8] ;  (1 found)
0x1000b2ef: adc byte [ecx+0x5689204E], cl ; and al, 0x50 ; mov dword [esi+0x28], 0x00000002 ; mov dword [esp+0x18], ebx ; call dword [0x10013134] ;  (1 found)
0x10011f40: adc byte [ecx+0x56], dl ; mov word [esp+0x2E], ax ; call dword [0x10013150] ;  (1 found)
0x10004465: adc byte [ecx+0x66242444], cl ; mov ecx, dword [ebp+0x40] ; push ecx ; call dword [0x10013130] ;  (1 found)
0x10004ba6: adc byte [ecx+0x66302444], cl ; mov ecx, dword [ebp+0x40] ; push ecx ; call dword [0x10013130] ;  (1 found)
0x10010bb1: adc byte [ecx+eax], bl ; add byte [eax], al ; call ebx ;  (1 found)
0x1000564d: adc byte [ecx-0x14EFDBBC], cl ; sbb al, 0x66 ; cmp eax, 0x0E750001 ; push 0x00000002 ; call dword [0x10013134] ;  (1 found)
0x10009224: adc byte [ecx-0x18], dl ; adc dword [edi-0x3B7D0000], ecx ; and byte [ebx+0x5B5E5FC7], cl ; pop ecx ; ret  ;  (1 found)
0x1000c579: adc byte [ecx-0x18], dl ; retn 0x005B ;  (1 found)
0x1000356d: adc byte [ecx-0x18], dl ; retn 0x00EB ;  (1 found)
0x1000e697: adc byte [ecx-0x18], dl ; sahf  ; cmp al, byte [eax] ; add byte [ebx-0x3FCCDF3C], al ; ret  ;  (1 found)
0x1000cc67: adc byte [ecx-0x77], dl ; push esp ; and al, 0x50 ; mov dword [esp+0x54], eax ; call esi ;  (1 found)
0x1000d728: adc byte [ecx-0x77], dl ; push esp ; and al, 0x60 ; mov dword [esp+0x64], eax ; call esi ;  (1 found)
0x1000bf74: adc byte [ecx], al ; add byte [eax], al ; add esp, 0x50 ; push 0x0000000F ; call dword [0x1001312C] ;  (1 found)
0x1000112a: adc byte [ecx], al ; add byte [ebx+0x01F70015], cl ; adc byte [ebx-0x0095D73C], al ; push edx ; call dword [0x10013090] ;  (1 found)
0x10010379: adc byte [edi+0x33], bl ; rcr byte [esi-0x3D], 0x00000056 ; call dword [0x10013034] ;  (1 found)
0x1000fed2: adc byte [edi+0x50], dl ; call dword [0x1002FB9C] ;  (1 found)
0x1000a964: adc byte [edi+0x52], dl ; call ebp ;  (1 found)
0x100106a5: adc byte [edi+0x5E], bl ; mov eax, 0x00000001 ; pop ebx ; add esp, 0x00000800 ; ret  ;  (1 found)
0x10011ff7: adc byte [edi+0x5E], bl ; or eax, 0xFFFFFFFF ; pop ebx ; add esp, 0x00001128 ; ret  ;  (1 found)
0x1000f991: adc byte [edi+0x5E], bl ; pop ebp ; pop ebx ; add esp, 0x40 ; ret  ;  (1 found)
0x1000eefd: adc byte [edi+0x5E], bl ; ret  ;  (1 found)
0x100106bb: adc byte [edi+0x5E], bl ; xor eax, eax ; pop ebx ; add esp, 0x00000800 ; ret  ;  (1 found)
0x1000e984: adc byte [edi+0x66], dl ; mov eax, dword [esi] ; push eax ; call ebx ;  (1 found)
0x10006d80: adc byte [edi+ebx*2-0x75], dh ; mov ss, ax ; add eax, 0xFF6A0000 ; push ecx ; call dword [0x10013090] ;  (1 found)
0x10010385: adc byte [edi-0x48], bl ; add dword [eax], eax ; add byte [eax], al ; pop esi ; ret  ;  (1 found)
0x100019e3: adc byte [edi], cl ; mov esi, 0x03B81684 ; add byte [eax], al ; push eax ; call edi ;  (1 found)
0x100011c6: adc byte [edx+0x00], ch ; push 0x00000001 ; push eax ; call dword [0x10013094] ;  (1 found)
0x10006e43: adc byte [edx+0x00], ch ; push 0x00000001 ; push eax ; call edi ;  (1 found)
0x10003a39: adc byte [edx+0x00], ch ; push 0x00000001 ; push eax ; mov dword [esi+0x40], 0x00000000 ; call edi ;  (1 found)
0x1001243d: adc byte [edx+0x01], ch ; pop eax ; retn 0x000C ;  (1 found)
0x1000f47f: adc byte [edx+0x01], ch ; push eax ; mov dword [esi+0x3C], edx ; call dword [0x10013094] ;  (1 found)
0x10003296: adc byte [edx+0x02], ch ; lea eax, dword [esp+0x00000220] ; push 0x1001ACA4 ; push eax ; call esi ;  (1 found)
0x10003080: adc byte [edx+0x03], ch ; mov edi, eax ; call dword [0x1001312C] ;  (1 found)
0x10001a05: adc byte [edx+0x3A], ch ; add edx, 0x000003B8 ; push edx ; call dword [0x10013108] ;  (1 found)
0x10010018: adc byte [edx+0x50], dl ; push ecx ; call dword [0x1002FBCC] ;  (1 found)
0x10011c24: adc byte [edx+0x6A], dl ; add byte [edx+0x01], ch ; push 0x00000000 ; push eax ; call dword [0x10013010] ;  (1 found)
0x10003588: adc byte [edx-0x01], ch ; push edx ; call esi ;  (1 found)
0x10004a8e: adc byte [edx-0x01], dl ; adc eax, 0x1001312C ; push 0x80000000 ; mov word [edi+0x24], ax ; call dword [0x10013134] ;  (1 found)
0x10006f63: adc byte [edx-0x18], dl ; fdiv dword [ecx-0x3B7D0000] ; sbb byte [edi+0x5E], bl ; pop ebx ; ret  ;  (1 found)
0x10001fcc: adc byte [edx-0x18], dl ; outsd  ; add dword [ecx], eax ; add byte [ebx+0x595E18C4], al ; ret  ;  (1 found)
0x1000d079: adc byte [edx-0x18], dl ; retn 0x0050 ;  (1 found)
0x100066fe: adc byte [edx-0x18], dl ; xor dword [edx+0x438B0000], edi ; xor byte [ebx+0x006A18C4], al ; push eax ; call dword [0x10013128] ;  (1 found)
0x10003d00: adc byte [edx-0x75], dl ; xor dword [ebx+0x598B0479], ecx ; or byte [ebx+0x1EE80C69], cl ; ret  ;  (1 found)
0x1000ce87: adc byte [edx-0x77], dl ; inc esp ; and al, 0x4C ; mov dword [esp+0x50], ecx ; call edi ;  (1 found)
0x100047af: adc byte [edx], bh ; ret  ;  (1 found)
0x10010b4c: adc byte [esi-0x18], dl ; cmp eax, 0x56FFFFFA ; call dword [0x100130C8] ;  (1 found)
0x100111ca: adc byte [esi-0x18], dl ; mov edi, 0x83FFFFF3 ; les ecx,  [0xFFFDE08D+ecx*4] ; call dword [ecx-0x18] ;  (1 found)
0x1000f70d: adc byte [esi-0x18], dl ; mov esp, 0x83FFFFFF ; les ebx,  [esi+ebx*2] ; ret  ;  (1 found)
0x100112c9: adc byte [esi-0x18], dl ; sal dl, 0xFFFFFFFF ; dec dword [ebx-0x00069B7B] ; call dword [eax+0x50] ;  (1 found)
0x1000e89e: adc byte [esi-0x75], ah ; inc esi ; and al, 0x50 ; call dword [0x10013130] ;  (1 found)
0x1000e5d3: adc byte [esi-0x75], ah ; push es ; push eax ; call ebp ;  (1 found)
0x100106f8: adc byte [esi-0x75], dl ; clc  ; call dword [0x10013034] ;  (1 found)
0x10012358: adc cl, byte [ebx+0x74C9850E] ; pop es ; call ecx ;  (1 found)
0x10012001: adc dword [eax], eax ; add bl, al ; push 0x00000002 ; push esi ; call dword [0x1001313C] ;  (1 found)
0x10006c15: adc dword [ebx+0x00207C86], ecx ; add byte [ebp+0x50077EC0], al ; call dword [0x10013084] ;  (1 found)
0x10009227: adc dword [edi-0x3B7D0000], ecx ; and byte [ebx+0x5B5E5FC7], cl ; pop ecx ; ret  ;  (1 found)
0x10003e88: adc dword [edx+0x02], ebp ; call ebp ;  (1 found)
0x100105e2: adc dword [esi-0x3A], edx ; add dword [eax], eax ; call dword [0x10013034] ;  (1 found)
0x10010b47: adc eax, 0x01EF9468 ; adc byte [esi-0x18], dl ; cmp eax, 0x56FFFFFA ; call dword [0x100130C8] ;  (1 found)
0x10011b5b: adc eax, 0x10013014 ; ret  ;  (1 found)
0x1000f65f: adc eax, 0x10013028 ; xor eax, eax ; add esp, 0x00000190 ; ret  ;  (1 found)
0x10010114: adc eax, 0x1001302C ; mov esi, eax ; call dword [0x10013070] ;  (1 found)
0x1001085b: adc eax, 0x1001302C ; ret  ;  (1 found)
0x100105e8: adc eax, 0x10013034 ; mov eax, 0x00000001 ; pop esi ; ret  ;  (1 found)
0x10010617: adc eax, 0x10013034 ; mov eax, 0x00000001 ; pop esi ; ret  ;  (1 found)
0x100106fd: adc eax, 0x10013034 ; mov eax, edi ; pop edi ; pop esi ; ret  ;  (1 found)
0x10010381: adc eax, 0x10013034 ; pop edi ; mov eax, 0x00000001 ; pop esi ; ret  ;  (1 found)
0x10010375: adc eax, 0x10013034 ; pop edi ; xor eax, eax ; pop esi ; ret  ;  (1 found)
0x10010390: adc eax, 0x10013034 ; pop edi ; xor eax, eax ; pop esi ; ret  ;  (1 found)
0x10010625: adc eax, 0x10013034 ; xor eax, eax ; pop esi ; ret  ;  (1 found)
0x100106f4: adc eax, 0x1001303C ; push esi ; mov edi, eax ; call dword [0x10013034] ;  (1 found)
0x10010835: adc eax, 0x10013044 ; add esp, 0x00001000 ; ret  ;  (1 found)
0x1001088a: adc eax, 0x10013048 ; ret  ;  (1 found)
0x10010e38: adc eax, 0x10013050 ; add esp, 0x00001000 ; ret  ;  (1 found)
0x10011052: adc eax, 0x10013054 ; mov eax, dword [esp+0x04] ; add esp, 0x00000318 ; ret  ;  (1 found)
0x10011938: adc eax, 0x1001305C ; push eax ; push edi ; push 0x00000410 ; call dword [0x10013058] ;  (1 found)
0x1001154b: adc eax, 0x10013064 ; mov eax, esi ; pop esi ; ret  ;  (1 found)
0x10011b8e: adc eax, 0x10013070 ; xor eax, eax ; add esp, 0x0C ; ret  ;  (1 found)
0x10011bde: adc eax, 0x10013070 ; xor eax, eax ; add esp, 0x0C ; ret  ;  (1 found)
0x10011bb7: adc eax, 0x10013070 ; xor eax, eax ; add esp, 0x0C ; ret  ;  (1 found)
0x10011c38: adc eax, 0x10013070 ; xor eax, eax ; add esp, 0x0C ; ret  ;  (1 found)
0x10011c0a: adc eax, 0x10013070 ; xor eax, eax ; add esp, 0x0C ; ret  ;  (1 found)
0x1000f6a6: adc eax, 0x10013084 ; ret  ;  (1 found)
0x1000ef46: adc eax, 0x1001308C ; ret  ;  (1 found)
0x1001210d: adc eax, 0x1001308C ; ret  ;  (1 found)
0x1000eef9: adc eax, 0x10013094 ; pop edi ; pop esi ; ret  ;  (1 found)
0x100011a3: adc eax, 0x10013094 ; pop esi ; ret  ;  (1 found)
0x10012439: adc eax, 0x10013098 ; push 0x00000001 ; pop eax ; retn 0x000C ;  (1 found)
0x1001140b: adc eax, 0x100130C8 ; add esp, 0x0C ; mov eax, 0x00000001 ; pop esi ; ret  ;  (1 found)
0x100109ea: adc eax, 0x100130CC ; lea ecx, dword [esp+0x08] ; push ecx ; call dword [0x100130D0] ;  (1 found)
0x100105b6: adc eax, 0x100130D8 ; add esp, 0x04 ; ret  ;  (1 found)
0x100105a0: adc eax, 0x100130DC ; add esp, 0x0C ; ret  ;  (1 found)
0x10010580: adc eax, 0x100130E0 ; add esp, 0x08 ; add esp, 0x00002000 ; ret  ;  (1 found)
0x10010508: adc eax, 0x100130E4 ; add esp, 0x04 ; add esp, 0x00001000 ; ret  ;  (1 found)
0x100104c5: adc eax, 0x100130E8 ; add esp, 0x10 ; ret  ;  (1 found)
0x100104a0: adc eax, 0x100130EC ; add esp, 0x0C ; ret  ;  (1 found)
0x100103d5: adc eax, 0x100130F0 ; add esp, 0x10 ; ret  ;  (1 found)
0x100103f0: adc eax, 0x10013100 ; add esp, 0x0C ; ret  ;  (1 found)
0x10004461: adc eax, 0x10013128 ; mov dword [esp+0x24], eax ; mov cx, word [ebp+0x40] ; push ecx ; call dword [0x10013130] ;  (1 found)
0x10011f27: adc eax, 0x10013128 ; push 0x0000FEED ; mov dword [esp+0x28], eax ; call dword [0x1001312C] ;  (1 found)
0x1000307c: adc eax, 0x1001312C ; push 0x00000003 ; mov edi, eax ; call dword [0x1001312C] ;  (1 found)
0x10004a91: adc eax, 0x1001312C ; push 0x80000000 ; mov word [edi+0x24], ax ; call dword [0x10013134] ;  (1 found)
0x10006c94: adc eax, 0x10013134 ; mov dword [edi+0x18], eax ; mov eax, dword [edi+0x1C] ; push eax ; call dword [0x10013134] ;  (1 found)
0x10004ba2: adc eax, 0x10013134 ; mov dword [esp+0x30], eax ; mov cx, word [ebp+0x40] ; push ecx ; call dword [0x10013130] ;  (1 found)
0x10006ca1: adc eax, 0x10013134 ; mov ecx, dword [edi+0x20] ; mov dword [edi+0x1C], eax ; push ecx ; call dword [0x10013134] ;  (1 found)
0x1000b6fe: adc eax, 0x10013134 ; mov edi, dword [esp+0x000000B8] ; mov dword [esp+0x50], eax ; push edi ; call ebx ;  (1 found)
0x10006c87: adc eax, 0x10013134 ; mov edx, dword [edi+0x18] ; mov dword [ebp+0x00], eax ; push edx ; call dword [0x10013134] ;  (1 found)
0x10011fec: adc eax, 0x1001313C ; push esi ; call dword [0x10013138] ;  (1 found)
0x10012009: adc eax, 0x1001313C ; push esi ; call dword [0x10013138] ;  (1 found)
0x10011f15: adc eax, 0x1001315C ; push 0x7F000001 ; mov word [esp+0x24], 0x0002 ; call dword [0x10013128] ;  (1 found)
0x1000f696: adc eax, 0x100131A0 ; ret  ;  (1 found)
0x1000f686: adc eax, 0x100131A4 ; xor eax, eax ; ret  ;  (1 found)
0x1000112e: adc eax, 0x1001F700 ; add esp, 0x28 ; push 0xFFFFFFFF ; push edx ; call dword [0x10013090] ;  (1 found)
0x100100bc: adc eax, 0x1002FB84 ; add esp, 0x08 ; xor eax, eax ; add esp, 0x0000010C ; ret  ;  (1 found)
0x1000fec9: adc eax, 0x1002FBAC ; mov eax, dword [0x1002FD8C] ; push edi ; push eax ; call dword [0x1002FB9C] ;  (1 found)
0x10010057: adc eax, 0x1002FD8C ; mov ecx, dword [esi] ; push ecx ; push edx ; call dword [0x1002FBB0] ;  (1 found)
0x1000ff94: adc eax, 0x1002FD8C ; push eax ; push ecx ; push edx ; call dword [0x1002FBC4] ;  (1 found)
0x1000fec2: adc eax, 0x1002FD8C ; push edx ; call dword [0x1002FBAC] ;  (1 found)
0x1001147e: adc ebp, dword [ebp+0x40] ; call dword [0x10013060] ;  (1 found)
0x100035f6: adc esp, 0x05 ; add byte [eax], al ; push eax ; call dword [0x10013094] ;  (1 found)
0x1000f274: add al, 0x00 ; add byte [ebx-0x7976FB3C], al ; mov eax, 0x52000004 ; call dword [0x1001312C] ;  (1 found)
0x1000c204: add al, 0x01 ; add byte [eax], al ; add esp, 0x50 ; push 0x0000000E ; call dword [0x1001312C] ;  (1 found)
0x1000d788: add al, 0x01 ; add byte [eax], al ; push eax ; call esi ;  (1 found)
0x10011982: add al, 0x01 ; add byte [eax], al ; push edi ; push 0x1001F6D4 ; call dword [0x100130A8] ;  (1 found)
0x10011a68: add al, 0x01 ; add byte [eax], al ; ret  ;  (1 found)
0x10011af5: add al, 0x01 ; add byte [eax], al ; ret  ;  (1 found)
0x10011aff: add al, 0x01 ; add byte [eax], al ; ret  ;  (1 found)
0x1001075b: add al, 0x10 ; add byte [eax], al ; ret  ;  (1 found)
0x100107b5: add al, 0x10 ; add byte [eax], al ; ret  ;  (1 found)
0x1001079c: add al, 0x10 ; add byte [eax], al ; ret  ;  (1 found)
0x10003e84: add al, 0x33 ; imul bl ; adc dword [edx+0x02], ebp ; call ebp ;  (1 found)
0x100047c0: add al, 0x3E ; push edx ; push eax ; call dword [0x100130F4] ;  (1 found)
0x1000f6a3: add al, 0x50 ; call dword [0x10013084] ;  (1 found)
0x1000ef43: add al, 0x50 ; call dword [0x1001308C] ;  (1 found)
0x100105b3: add al, 0x50 ; call dword [0x100130D8] ;  (1 found)
0x1000f693: add al, 0x50 ; call dword [0x100131A0] ;  (1 found)
0x1000f683: add al, 0x50 ; call dword [0x100131A4] ;  (1 found)
0x10011f0a: add al, 0x50 ; push 0x00000004 ; push 0x0000FFFF ; push esi ; call dword [0x1001315C] ;  (1 found)
0x1001147a: add al, 0x50 ; push 0x406D1388 ; call dword [0x10013060] ;  (1 found)
0x10011b57: add al, 0x50 ; push ecx ; call dword [0x10013014] ;  (1 found)
0x10010857: add al, 0x50 ; push ecx ; call dword [0x1001302C] ;  (1 found)
0x100103eb: add al, 0x50 ; push ecx ; push edx ; call dword [0x10013100] ;  (1 found)
0x100122cc: add al, 0x50 ; ret  ;  (1 found)
0x1000f37b: add al, 0x51 ; push 0x00000001 ; push 0x00000006 ; push edx ; call dword [0x1001315C] ;  (1 found)
0x100114a8: add al, 0x52 ; call dword [ebp-0x1C] ;  (1 found)
0x1000515a: add al, 0x57 ; mov cx, word [eax+0x02] ; push ecx ; call dword [0x10013130] ;  (1 found)
0x1000fafd: add al, 0x5F ; pop esi ; add esp, 0x3C ; ret  ;  (1 found)
0x100107ed: add al, 0x5F ; pop esi ; pop ebx ; ret  ;  (1 found)
0x100119f0: add al, 0x68 ; push eax ; test byte [ecx], 0x00000010 ; push eax ; call dword [0x100130FC] ;  (1 found)
0x10010713: add al, 0x6A ; call dword [eax-0x18] ;  (1 found)
0x1001105a: add al, 0x81 ; les ebx,  [eax] ; add eax, dword [eax] ; add bl, al ; call dword [0x10013070] ;  (1 found)
0x1000f74e: add al, 0x85 ; retn 0x1001 ;  (1 found)
0x100109ad: add al, 0x85 ; sal byte [ebp+0x02], 0x0000005E ; ret  ;  (1 found)
0x10010d18: add al, 0x85 ; sal byte [ebp+0x08], 0x0000005E ; add esp, 0x0000009C ; ret  ;  (1 found)
0x1000f279: add al, 0x89 ; xchg byte [eax+0x52000004], bh ; call dword [0x1001312C] ;  (1 found)
0x100035f4: add al, 0x8B ; adc esp, 0x05 ; add byte [eax], al ; push eax ; call dword [0x10013094] ;  (1 found)
0x1000fedd: add al, 0x8B ; or eax, 0x1002FD8C ; push eax ; push ecx ; call dword [0x1002FBB8] ;  (1 found)
0x10003d06: add al, 0x8B ; pop ecx ; or byte [ebx+0x1EE80C69], cl ; ret  ;  (1 found)
0x1000128c: add al, 0x8B ; punpckhdq mm7, mm7 ; mov edx, dword [ecx+0x000005D4] ; push edx ; call dword [0x10013090] ;  (1 found)
0x10009fa0: add al, 0x8B ; xchg byte [eax+0x50000000], bl ; call dword [0x10013128] ;  (1 found)
0x100114e5: add al, 0xB8 ; add dword [eax], eax ; add byte [eax], al ; ret  ;  (1 found)
0x100105bd: add al, 0xC3 ; nop  ; push esi ; call dword [0x10013070] ;  (1 found)
0x10003a0b: add al, 0xEB ; add ch, byte [edx+0x03] ; push eax ; push esi ; call ecx ;  (1 found)
0x100039cf: add al, 0xEB ; add ch, byte [edx+0x03] ; push ebx ; push esi ; call eax ;  (1 found)
0x10012437: add al, 0xFF ; adc eax, 0x10013098 ; push 0x00000001 ; pop eax ; retn 0x000C ;  (1 found)
0x1000c56d: add al, byte [eax] ; add byte [eax+0x34], ch ; mov esp, 0x68681001 ; mov edx, 0xE8511001 ; retn 0x005B ;  (1 found)
0x1000b2fa: add al, byte [eax] ; add byte [eax], al ; mov dword [esp+0x18], ebx ; call dword [0x10013134] ;  (1 found)
0x1000b8db: add al, byte [eax] ; add byte [eax], al ; push ebp ; call edi ;  (1 found)
0x1001121a: add al, byte [eax] ; add byte [ebp-0x00042F73], cl ; call dword [ecx-0x18] ;  (1 found)
0x10004342: add al, byte [eax] ; add byte [ebx-0x74B7DBB4], cl ; ret  ;  (1 found)
0x100032bf: add al, byte [eax] ; add byte [edx+0x51], dl ; call esi ;  (1 found)
0x10011f24: add al, byte [eax] ; call dword [0x10013128] ;  (1 found)
0x1000f2a5: add al, byte [eax] ; mov dword [esp+0x1C], eax ; call dword [0x10013150] ;  (1 found)
0x10003030: add al, byte [ebx+0x5C8D03E1] ; add eax, dword [0x3D8BA4F3] ; sub al, 0x31 ; add dword [eax], edx ; call edi ;  (1 found)
0x1000535b: add al, ch ; outsd  ; retn 0x0000 ;  (1 found)
0x10002319: add bh, al ; add eax, 0x1001F714 ; add byte [eax], al ; add byte [eax], al ; ret  ;  (1 found)
0x100105e6: add bh, bh ; adc eax, 0x10013034 ; mov eax, 0x00000001 ; pop esi ; ret  ;  (1 found)
0x100106f2: add bh, bh ; adc eax, 0x1001303C ; push esi ; mov edi, eax ; call dword [0x10013034] ;  (1 found)
0x10011f25: add bh, bh ; adc eax, 0x10013128 ; push 0x0000FEED ; mov dword [esp+0x28], eax ; call dword [0x1001312C] ;  (1 found)
0x100052a8: add bh, bh ; shr dword [edx+0x03], cl ; mov dword [esp+0x70], eax ; call ebx ;  (1 found)
0x1000f196: add bh, dh ; fcomp dword [ebx] ; rcr byte [esi-0x09], 0xFFFFFFD8 ; dec eax ; ret  ;  (1 found)
0x10011060: add bl, al ; call dword [0x10013070] ;  (1 found)
0x1000fde3: add bl, al ; lea ecx, dword [esp+0x18] ; push ecx ; push eax ; call dword [0x1002FB80] ;  (1 found)
0x1001082d: add bl, al ; lea edx, dword [esp+0x00] ; push edx ; call dword [0x10013044] ;  (1 found)
0x10010500: add bl, al ; lea edx, dword [esp+0x00] ; push edx ; call dword [0x100130E4] ;  (1 found)
0x1000e339: add bl, al ; mov ax, word [eax] ; mov esi, dword [0x10013130] ; push eax ; call esi ;  (1 found)
0x1000f66b: add bl, al ; nop  ; nop  ; nop  ; jmp dword [0x10013140] ;  (1 found)
0x10011ed4: add bl, al ; push 0x00000000 ; push 0x00000001 ; push 0x00000002 ; call dword [0x10013168] ;  (1 found)
0x10012003: add bl, al ; push 0x00000002 ; push esi ; call dword [0x1001313C] ;  (1 found)
0x1000f657: add bl, al ; push 0x1002FB60 ; call dword [0x10013028] ;  (1 found)
0x100106b3: add bl, al ; push ebx ; call dword [0x10013034] ;  (1 found)
0x1000d0c2: add bl, al ; push ebx ; mov ebx, dword [esp+0x000000B0] ; push 0x00000003 ; call dword [0x1001312C] ;  (1 found)
0x1000d35b: add bl, al ; push ebx ; mov ebx, dword [esp+0x000000C0] ; push 0x00000004 ; call dword [0x1001312C] ;  (1 found)
0x10011af8: add bl, al ; xor eax, eax ; pop edi ; add esp, 0x00000104 ; ret  ;  (1 found)
0x100077b3: add bl, ch ; or byte [ebx+0x00008886], 0x00000000 ; push eax ; call dword [0x10013128] ;  (1 found)
0x10006752: add bl, ch ; push edi ; call dword [0x10013130] ;  (1 found)
0x1001034a: add byte [eax+0x00000001], bh ; pop esi ; ret  ;  (1 found)
0x10011ba5: add byte [eax+0x03], ch ; add byte [eax], 0x00000000 ; push edx ; call dword [0x10013004] ;  (1 found)
0x100119d5: add byte [eax+0x23], ch ; add byte [eax], 0x00000000 ; push 0x00000000 ; call dword [0x1001311C] ;  (1 found)
0x1001095e: add byte [eax+0x23], ch ; add byte [eax], 0x00000000 ; push 0x00000000 ; call dword [0x1001311C] ;  (1 found)
0x10004a99: add byte [eax+0x24478966], al ; call dword [0x10013134] ;  (1 found)
0x1000f392: add byte [eax+0x24], ch ; retn 0x1001 ;  (1 found)
0x1000c4a1: add byte [eax+0x33], dl ; in eax, dx ; call edi ;  (1 found)
0x1000bfe1: add byte [eax+0x33], dl ; in eax, dx ; call esi ;  (1 found)
0x1000c007: add byte [eax+0x33], dl ; in eax, dx ; call esi ;  (1 found)
0x1000c02d: add byte [eax+0x33], dl ; in eax, dx ; call esi ;  (1 found)
0x1000c053: add byte [eax+0x33], dl ; in eax, dx ; call esi ;  (1 found)
0x1000d763: add byte [eax+0x33], dl ; in eax, dx ; call esi ;  (1 found)
0x1000c56f: add byte [eax+0x34], ch ; mov esp, 0x68681001 ; mov edx, 0xE8511001 ; retn 0x005B ;  (1 found)
0x1000f2cc: add byte [eax+0x44], ch ; retn 0x1001 ;  (1 found)
0x100100b8: add byte [eax+0x51], dl ; call dword [0x1002FB84] ;  (1 found)
0x100106e9: add byte [eax+0x51], dl ; push 0x00000000 ; push 0x0000FDE9 ; call dword [0x1001303C] ;  (1 found)
0x10011bcf: add byte [eax+0x51], dl ; push edx ; call dword [0x10013008] ;  (1 found)
0x1000f217: add byte [eax+0x60], ch ; retn 0x1001 ;  (1 found)
0x1000f619: add byte [eax+0x68], dl ; add dword [ecx], eax ; add byte [eax], al ; call dword [0x10013144] ;  (1 found)
0x1000f211: add byte [eax+0x68], dl ; test byte [ecx], 0x00000000 ; add byte [eax+0x60], ch ; retn 0x1001 ;  (1 found)
0x10010959: add byte [eax+0x6A], dl ; add byte [edx+0x00], ch ; push 0x00008023 ; push 0x00000000 ; call dword [0x1001311C] ;  (1 found)
0x10005358: add byte [eax+0x6FE80000], al ; retn 0x0000 ;  (1 found)
0x1000f1ab: add byte [eax+0x7C], ch ; retn 0x1001 ;  (1 found)
0x1000d671: add byte [eax-0x0C], ch ; stosb  ; add dword [eax], edx ; push 0x000001FB ; call dword [0x10013080] ;  (1 found)
0x10010361: add byte [eax-0x17], ch ; std  ; add byte [eax], al ; call dword [0x10013038] ;  (1 found)
0x10010605: add byte [eax-0x17], ch ; std  ; add byte [eax], al ; call dword [0x1001303C] ;  (1 found)
0x100106ed: add byte [eax-0x17], ch ; std  ; add byte [eax], al ; call dword [0x1001303C] ;  (1 found)
0x1000d06f: add byte [eax-0x18], ch ; mov esp, 0x68681001 ; mov edx, 0xE8521001 ; retn 0x0050 ;  (1 found)
0x1000f631: add byte [eax-0x3C], ch ; retn 0x1001 ;  (1 found)
0x1000329f: add byte [eax-0x5C], ch ; lodsb  ; add dword [eax], edx ; push eax ; call esi ;  (1 found)
0x1000f569: add byte [eax-0x5C], ch ; retn 0x1001 ;  (1 found)
0x100052a5: add byte [eax], 0x00000000 ; add bh, bh ; shr dword [edx+0x03], cl ; mov dword [esp+0x70], eax ; call ebx ;  (1 found)
0x100065b8: add byte [eax], 0x00000000 ; add byte [ebx+0x4C893453], cl ; and al, 0x18 ; push edx ; call ebp ;  (1 found)
0x100119d8: add byte [eax], 0x00000000 ; push 0x00000000 ; call dword [0x1001311C] ;  (1 found)
0x10010961: add byte [eax], 0x00000000 ; push 0x00000000 ; call dword [0x1001311C] ;  (1 found)
0x10011ba8: add byte [eax], 0x00000000 ; push edx ; call dword [0x10013004] ;  (1 found)
0x1001058a: add byte [eax], ah ; add byte [eax], al ; ret  ;  (1 found)
0x1001056d: add byte [eax], ah ; add byte [eax], al ; ret  ;  (1 found)
0x10010bda: add byte [eax], al ; adc al, 0x01 ; add byte [eax], al ; push ecx ; call ebx ;  (1 found)
0x100052a6: add byte [eax], al ; add bh, bh ; shr dword [edx+0x03], cl ; mov dword [esp+0x70], eax ; call ebx ;  (1 found)
0x100077b1: add byte [eax], al ; add bl, ch ; or byte [ebx+0x00008886], 0x00000000 ; push eax ; call dword [0x10013128] ;  (1 found)
0x10004a97: add byte [eax], al ; add byte [eax+0x24478966], al ; call dword [0x10013134] ;  (1 found)
0x1000c49f: add byte [eax], al ; add byte [eax+0x33], dl ; in eax, dx ; call edi ;  (1 found)
0x1000bfdf: add byte [eax], al ; add byte [eax+0x33], dl ; in eax, dx ; call esi ;  (1 found)
0x1000c02b: add byte [eax], al ; add byte [eax+0x33], dl ; in eax, dx ; call esi ;  (1 found)
0x1000c005: add byte [eax], al ; add byte [eax+0x33], dl ; in eax, dx ; call esi ;  (1 found)
0x1000c051: add byte [eax], al ; add byte [eax+0x33], dl ; in eax, dx ; call esi ;  (1 found)
0x1000d761: add byte [eax], al ; add byte [eax+0x33], dl ; in eax, dx ; call esi ;  (1 found)
0x10009d8d: add byte [eax], al ; add byte [eax], al ; add byte [eax], al ; call dword [0x10013080] ;  (1 found)
0x10006d49: add byte [eax], al ; add byte [eax], al ; add byte [eax], al ; call dword [0x10013094] ;  (1 found)
0x1000ee3b: add byte [eax], al ; add byte [eax], al ; add byte [eax], al ; call dword [0x10013094] ;  (1 found)
0x10010e5e: add byte [eax], al ; add byte [eax], al ; call dword [0x1001305C] ;  (1 found)
0x100099ef: add byte [eax], al ; add byte [eax], al ; call dword [0x10013080] ;  (1 found)
0x10009d8f: add byte [eax], al ; add byte [eax], al ; call dword [0x10013080] ;  (1 found)
0x10006d4b: add byte [eax], al ; add byte [eax], al ; call dword [0x10013094] ;  (1 found)
0x1000ee3d: add byte [eax], al ; add byte [eax], al ; call dword [0x10013094] ;  (1 found)
0x10003a42: add byte [eax], al ; add byte [eax], al ; call edi ;  (1 found)
0x10011ef9: add byte [eax], al ; add byte [eax], al ; pop ebx ; add esp, 0x00001128 ; ret  ;  (1 found)
0x10011fe4: add byte [eax], al ; add byte [eax], al ; push 0x00000002 ; push esi ; call dword [0x1001313C] ;  (1 found)
0x10010ba9: add byte [eax], al ; add byte [eax], al ; push eax ; mov dword [esp+0x10], 0x0000011C ; call ebx ;  (1 found)
0x10002320: add byte [eax], al ; add byte [eax], al ; ret  ;  (1 found)
0x100110fb: add byte [eax], al ; add byte [ebp-0x0004337B], cl ; call dword [eax-0x73] ;  (1 found)
0x10001c63: add byte [eax], al ; add byte [ebx+0x00037082], cl ; add byte [ebx], bh ; ret  ;  (1 found)
0x1000c435: add byte [eax], al ; add byte [ebx+0x026A50C4], al ; call dword [0x1001312C] ;  (1 found)
0x1000abfb: add byte [eax], al ; add byte [ebx+0x066A50C4], al ; call dword [0x1001312C] ;  (1 found)
0x1000b49c: add byte [eax], al ; add byte [ebx+0x086A50C4], al ; call dword [0x1001312C] ;  (1 found)
0x1000b6a1: add byte [eax], al ; add byte [ebx+0x0C6A50C4], al ; call ebx ;  (1 found)
0x1000aa54: add byte [eax], al ; add byte [ebx+0x146A28C4], al ; call dword [0x1001312C] ;  (1 found)
0x1000c616: add byte [eax], al ; add byte [ebx+0x456A28C4], al ; call dword [0x1001312C] ;  (1 found)
0x100065b9: add byte [eax], al ; add byte [ebx+0x4C893453], cl ; and al, 0x18 ; push edx ; call ebp ;  (1 found)
0x1000cecb: add byte [eax], al ; add byte [ebx+0x51ED33D8], cl ; call edi ;  (1 found)
0x10006ae7: add byte [eax], al ; add byte [ebx+0x522C2454], cl ; push ebx ; push ebp ; call dword [ebx+0x08] ;  (1 found)
0x10006547: add byte [eax], al ; add byte [ebx+0x53A5F3FC], cl ; call eax ;  (1 found)
0x1000e914: add byte [eax], al ; add byte [ebx+0x5E5F24C4], al ; pop ebx ; ret  ;  (1 found)
0x10005e0f: add byte [eax], al ; add byte [ebx+0x5E5FFFC8], al ; pop ebp ; pop ebx ; ret  ;  (1 found)
0x10001b26: add byte [eax], al ; add byte [ebx+0x6A], dl ; add dword [edx+0x01], ebp ; push ebx ; call ebp ;  (1 found)
0x1000d12e: add byte [eax], al ; add byte [ebx-0x12CCAE08], cl ; call esi ;  (1 found)
0x1000cea5: add byte [eax], al ; add byte [ebx-0x12CCAE28], cl ; call edi ;  (1 found)
0x100061a8: add byte [eax], al ; add byte [ebx-0x5A0CAD04], cl ; movsw  ; call dword [ebx+0x3E] ;  (1 found)
0x10005b8c: add byte [eax], al ; add byte [ebx-0x7AD7DBBC], cl ; ror byte [edi], 0xFFFFFF84 ; retn 0x0000 ;  (1 found)
0x1000bdbf: add byte [eax], al ; add byte [ebx], bh ; ret  ;  (1 found)
0x1000a627: add byte [eax], al ; add byte [ebx], bh ; ret  ;  (1 found)
0x1000c84e: add byte [eax], al ; add byte [ebx], dh ; call dword [edx-0x77] ;  (1 found)
0x1000ca5e: add byte [eax], al ; add byte [ebx], dh ; call dword [edx-0x77] ;  (1 found)
0x1000674a: add byte [eax], al ; add byte [ecx+0x00063896], cl ; add bl, ch ; push edi ; call dword [0x10013130] ;  (1 found)
0x1000d7d5: add byte [eax], al ; add byte [ecx+0x008824AC], cl ; add byte [eax], al ; call esi ;  (1 found)
0x10004e7e: add byte [eax], al ; add byte [ecx+0x4C8B0C41], cl ; and al, 0x28 ; mov dword [edi+0x20], ecx ; call dword [0x10013134] ;  (1 found)
0x1000cc87: add byte [eax], al ; add byte [ecx+0x5010246C], cl ; xor ebp, ebp ; call esi ;  (1 found)
0x1000d40b: add byte [eax], al ; add byte [ecx+0x51302444], cl ; call dword [0x1001312C] ;  (1 found)
0x1000cc77: add byte [eax], al ; add byte [ecx+0x52542444], cl ; call esi ;  (1 found)
0x1000b707: add byte [eax], al ; add byte [ecx+0x57502444], cl ; call ebx ;  (1 found)
0x1000d48c: add byte [eax], al ; add byte [ecx-0x74A7DBBC], cl ; inc ebp ; add byte [ecx+0x035C2444], cl ; retn 0x5489 ;  (1 found)
0x1000a110: add byte [eax], al ; add byte [ecx-0x77], dl ; inc esp ; and al, 0x50 ; call edi ;  (1 found)
0x1000e556: add byte [eax], al ; add byte [edi+0x5E], bl ; ret  ;  (1 found)
0x10011b46: add byte [eax], al ; add byte [edi+0x5E], bl ; ret  ;  (1 found)
0x1000f2b7: add byte [eax], al ; add byte [edx+0x00], ch ; call dword [0x10013164] ;  (1 found)
0x10003e76: add byte [eax], al ; add byte [edx+0x01], ch ; call ebp ;  (1 found)
0x10011fe5: add byte [eax], al ; add byte [edx+0x02], ch ; push esi ; call dword [0x1001313C] ;  (1 found)
0x1000d0c9: add byte [eax], al ; add byte [edx+0x03], ch ; call dword [0x1001312C] ;  (1 found)
0x1000d362: add byte [eax], al ; add byte [edx+0x04], ch ; call dword [0x1001312C] ;  (1 found)
0x1000d6b1: add byte [eax], al ; add byte [edx+0x67], ch ; call dword [0x1001312C] ;  (1 found)
0x1000ea10: add byte [eax], al ; add byte [esi+0x5D], bl ; ret  ;  (1 found)
0x10010389: add byte [eax], al ; add byte [esi-0x3D], bl ; push esi ; call dword [0x10013034] ;  (1 found)
0x1001061e: add byte [eax], al ; add byte [esi-0x3D], bl ; push esi ; call dword [0x10013034] ;  (1 found)
0x100107af: add byte [eax], al ; add byte [esi-0x7F], bl ; les eax,  [eax+edx] ; add byte [eax], al ; ret  ;  (1 found)
0x1000a0b2: add byte [eax], al ; add eax, edx ; push 0x00000065 ; lea ebx, dword [ecx+eax] ; call edi ;  (1 found)
0x1000547a: add byte [eax], al ; add ebp, edi ; inc ecx ; push ecx ; call ebx ;  (1 found)
0x1000b8a3: add byte [eax], al ; add ecx, edx ; push 0x00000001 ; lea ebx, dword [eax+ecx] ; call edi ;  (1 found)
0x1000d6ac: add byte [eax], al ; add esp, 0x000000F0 ; push 0x00000067 ; call dword [0x1001312C] ;  (1 found)
0x10010995: add byte [eax], al ; add esp, 0x00000118 ; ret  ;  (1 found)
0x1000f275: add byte [eax], al ; add esp, 0x04 ; mov dword [esi+0x000004B8], eax ; push edx ; call dword [0x1001312C] ;  (1 found)
0x1000f6bd: add byte [eax], al ; add esp, 0x08 ; ret  ;  (1 found)
0x10011c46: add byte [eax], al ; add esp, 0x0C ; ret  ;  (1 found)
0x1001008e: add byte [eax], al ; add esp, 0x0C ; xor eax, eax ; pop esi ; ret  ;  (1 found)
0x1000f6e7: add byte [eax], al ; add esp, 0x10 ; ret  ;  (1 found)
0x1000e66c: add byte [eax], al ; add esp, 0x18 ; mov eax, 0x00000001 ; ret  ;  (1 found)
0x1000ee1a: add byte [eax], al ; add esp, 0x18 ; mov ecx, dword [edi+0x000006E0] ; push ecx ; call dword [0x1001308C] ;  (1 found)
0x1000f64a: add byte [eax], al ; add esp, 0x18 ; or eax, 0xFFFFFFFF ; add esp, 0x00000190 ; ret  ;  (1 found)
0x1000f4fe: add byte [eax], al ; add esp, 0x18 ; or eax, 0xFFFFFFFF ; pop esi ; ret  ;  (1 found)
0x10003934: add byte [eax], al ; add esp, 0x18 ; pop edi ; pop esi ; ret  ;  (1 found)
0x100068cd: add byte [eax], al ; add esp, 0x18 ; pop edi ; pop esi ; ret  ;  (1 found)
0x100069ac: add byte [eax], al ; add esp, 0x18 ; pop edi ; pop esi ; ret  ;  (1 found)
0x1000d9f5: add byte [eax], al ; add esp, 0x18 ; pop edi ; pop esi ; ret  ;  (1 found)
0x1000a9fa: add byte [eax], al ; add esp, 0x18 ; pop esi ; pop ebx ; ret  ;  (1 found)
0x1000e151: add byte [eax], al ; add esp, 0x18 ; pop esi ; pop ebx ; ret  ;  (1 found)
0x100037e9: add byte [eax], al ; add esp, 0x18 ; pop esi ; ret  ;  (1 found)
0x10003859: add byte [eax], al ; add esp, 0x18 ; pop esi ; ret  ;  (1 found)
0x1000da4c: add byte [eax], al ; add esp, 0x18 ; pop esi ; ret  ;  (1 found)
0x1000da94: add byte [eax], al ; add esp, 0x18 ; pop esi ; ret  ;  (1 found)
0x10003b93: add byte [eax], al ; add esp, 0x18 ; push 0x00000001 ; call dword [0x1001312C] ;  (1 found)
0x1000f31c: add byte [eax], al ; add esp, 0x18 ; push 0x00000002 ; push edi ; call dword [0x1001313C] ;  (1 found)
0x1000f31b: add byte [eax], al ; add esp, 0x18 ; push 0x00000002 ; push edi ; call dword [0x1001313C] ;  (1 found)
0x1000f419: add byte [eax], al ; add esp, 0x18 ; push 0x00000002 ; push edi ; call dword [0x1001313C] ;  (1 found)
0x1000ed5f: add byte [eax], al ; add esp, 0x18 ; push 0x00000002 ; push esi ; call dword [0x1001313C] ;  (1 found)
0x1000f34a: add byte [eax], al ; add esp, 0x18 ; push edi ; call dword [0x10013138] ;  (1 found)
0x1000f446: add byte [eax], al ; add esp, 0x18 ; push edi ; call dword [0x10013138] ;  (1 found)
0x1000ed8c: add byte [eax], al ; add esp, 0x18 ; push esi ; call dword [0x10013138] ;  (1 found)
0x1000ef2a: add byte [eax], al ; add esp, 0x18 ; ret  ;  (1 found)
0x1000eec3: add byte [eax], al ; add esp, 0x18 ; ret  ;  (1 found)
0x1000ef2b: add byte [eax], al ; add esp, 0x18 ; ret  ;  (1 found)
0x10005d26: add byte [eax], al ; add esp, 0x18 ; xor eax, eax ; pop esi ; ret  ;  (1 found)
0x10002231: add byte [eax], al ; add esp, 0x20 ; mov eax, esi ; pop esi ; ret  ;  (1 found)
0x1000228c: add byte [eax], al ; add esp, 0x20 ; mov eax, esi ; pop esi ; ret  ;  (1 found)
0x1000fc75: add byte [eax], al ; add esp, 0x20 ; mov ecx, dword [esp+0x0C] ; push ecx ; call dword [0x1001301C] ;  (1 found)
0x10004043: add byte [eax], al ; add esp, 0x20 ; push 0x80000000 ; call ebp ;  (1 found)
0x10010194: add byte [eax], al ; add esp, 0x20 ; push edi ; call dword [0x10013030] ;  (1 found)
0x100034f0: add byte [eax], al ; add esp, 0x20 ; xor eax, eax ; add esp, 0x00000414 ; ret  ;  (1 found)
0x10002161: add byte [eax], al ; add esp, 0x20 ; xor eax, eax ; pop esi ; ret  ;  (1 found)
0x1000e69c: add byte [eax], al ; add esp, 0x20 ; xor eax, eax ; ret  ;  (1 found)
0x1000af79: add byte [eax], al ; add esp, 0x28 ; and edi, 0x0000FFFF ; push 0x000000CA ; call dword [0x1001312C] ;  (1 found)
0x1000b2af: add byte [eax], al ; add esp, 0x28 ; and edi, 0x0000FFFF ; push 0x000000CC ; call dword [0x1001312C] ;  (1 found)
0x10003b68: add byte [eax], al ; add esp, 0x28 ; pop edi ; pop ebx ; ret  ;  (1 found)
0x1000aa55: add byte [eax], al ; add esp, 0x28 ; push 0x00000014 ; call dword [0x1001312C] ;  (1 found)
0x1000c617: add byte [eax], al ; add esp, 0x28 ; push 0x00000045 ; call dword [0x1001312C] ;  (1 found)
0x1000ade4: add byte [eax], al ; add esp, 0x28 ; push 0x000000C9 ; call dword [0x1001312C] ;  (1 found)
0x1000b114: add byte [eax], al ; add esp, 0x28 ; push 0x000000CB ; call dword [0x1001312C] ;  (1 found)
0x1000366d: add byte [eax], al ; add esp, 0x28 ; push 0xFFFFFFFF ; push ecx ; call dword [0x10013090] ;  (1 found)
0x10003abb: add byte [eax], al ; add esp, 0x28 ; push 0xFFFFFFFF ; push ecx ; call dword [0x10013090] ;  (1 found)
0x1000d94b: add byte [eax], al ; add esp, 0x28 ; push 0xFFFFFFFF ; push ecx ; call dword [0x10013090] ;  (1 found)
0x1000e0ab: add byte [eax], al ; add esp, 0x28 ; push 0xFFFFFFFF ; push ecx ; call dword [0x10013090] ;  (1 found)
0x1000c7f3: add byte [eax], al ; add esp, 0x50 ; and ebx, 0x0000FFFF ; push 0x00000007 ; call dword [0x1001312C] ;  (1 found)
0x1000ca03: add byte [eax], al ; add esp, 0x50 ; and ebx, 0x0000FFFF ; push 0x00000009 ; call dword [0x1001312C] ;  (1 found)
0x1000c436: add byte [eax], al ; add esp, 0x50 ; push 0x00000002 ; call dword [0x1001312C] ;  (1 found)
0x1000cc0c: add byte [eax], al ; add esp, 0x50 ; push 0x00000005 ; call dword [0x1001312C] ;  (1 found)
0x1000abfc: add byte [eax], al ; add esp, 0x50 ; push 0x00000006 ; call dword [0x1001312C] ;  (1 found)
0x1000b49d: add byte [eax], al ; add esp, 0x50 ; push 0x00000008 ; call dword [0x1001312C] ;  (1 found)
0x1000baa6: add byte [eax], al ; add esp, 0x50 ; push 0x0000000A ; call dword [0x1001312C] ;  (1 found)
0x1000b6a2: add byte [eax], al ; add esp, 0x50 ; push 0x0000000C ; call ebx ;  (1 found)
0x1000bcfc: add byte [eax], al ; add esp, 0x50 ; push 0x0000000D ; call dword [0x1001312C] ;  (1 found)
0x1000c206: add byte [eax], al ; add esp, 0x50 ; push 0x0000000E ; call dword [0x1001312C] ;  (1 found)
0x1000bf76: add byte [eax], al ; add esp, 0x50 ; push 0x0000000F ; call dword [0x1001312C] ;  (1 found)
0x1000ce2c: add byte [eax], al ; add esp, 0x50 ; push 0x00000010 ; call dword [0x1001312C] ;  (1 found)
0x1000a56d: add byte [eax], al ; add esp, 0x50 ; push 0x00000066 ; call dword [0x1001312C] ;  (1 found)
0x10010365: add byte [eax], al ; call dword [0x10013038] ;  (1 found)
0x10010609: add byte [eax], al ; call dword [0x1001303C] ;  (1 found)
0x100106f1: add byte [eax], al ; call dword [0x1001303C] ;  (1 found)
0x1001073c: add byte [eax], al ; call dword [0x10013040] ;  (1 found)
0x10011942: add byte [eax], al ; call dword [0x10013058] ;  (1 found)
0x10010e60: add byte [eax], al ; call dword [0x1001305C] ;  (1 found)
0x100099f1: add byte [eax], al ; call dword [0x10013080] ;  (1 found)
0x10009d91: add byte [eax], al ; call dword [0x10013080] ;  (1 found)
0x1000d67a: add byte [eax], al ; call dword [0x10013080] ;  (1 found)
0x10003710: add byte [eax], al ; call dword [0x10013094] ;  (1 found)
0x10003832: add byte [eax], al ; call dword [0x10013094] ;  (1 found)
0x10006d4d: add byte [eax], al ; call dword [0x10013094] ;  (1 found)
0x1000ee3f: add byte [eax], al ; call dword [0x10013094] ;  (1 found)
0x10012302: add byte [eax], al ; call dword [0x100130B0] ;  (1 found)
0x10006517: add byte [eax], al ; call dword [0x1001312C] ;  (1 found)
0x100066b6: add byte [eax], al ; call dword [0x1001312C] ;  (1 found)
0x1000adec: add byte [eax], al ; call dword [0x1001312C] ;  (1 found)
0x1000af87: add byte [eax], al ; call dword [0x1001312C] ;  (1 found)
0x1000b2bd: add byte [eax], al ; call dword [0x1001312C] ;  (1 found)
0x1000b11c: add byte [eax], al ; call dword [0x1001312C] ;  (1 found)
0x1000be0c: add byte [eax], al ; call dword [0x10013130] ;  (1 found)
0x1000f61e: add byte [eax], al ; call dword [0x10013144] ;  (1 found)
0x10011fa4: add byte [eax], al ; call dword [0x10013160] ;  (1 found)
0x10001bf1: add byte [eax], al ; call ebp ;  (1 found)
0x100052a7: add byte [eax], al ; call ebx ;  (1 found)
0x10010f96: add byte [eax], al ; call ebx ;  (1 found)
0x10010bb4: add byte [eax], al ; call ebx ;  (1 found)
0x10003a44: add byte [eax], al ; call edi ;  (1 found)
0x1000697c: add byte [eax], al ; call edi ;  (1 found)
0x10006f00: add byte [eax], al ; call edi ;  (1 found)
0x1000d7dd: add byte [eax], al ; call esi ;  (1 found)
0x1000f614: add byte [eax], al ; lea eax, dword [esp+0x00] ; push eax ; push 0x00000101 ; call dword [0x10013144] ;  (1 found)
0x100119eb: add byte [eax], al ; lea eax, dword [esp+0x04] ; push 0x1001F650 ; push eax ; call dword [0x100130FC] ;  (1 found)
0x100115fd: add byte [eax], al ; lea ebx, dword [edi+0x0C] ; push ebx ; call dword [0x100130B0] ;  (1 found)
0x1000fd91: add byte [eax], al ; lea ecx, dword [esp+0x18] ; push eax ; push ecx ; call dword [0x1002FB6C] ;  (1 found)
0x10004ab9: add byte [eax], al ; mov ax, word [eax+0x02] ; push eax ; call dword [0x10013130] ;  (1 found)
0x1000e78c: add byte [eax], al ; mov ax, word [esi+0x02] ; push eax ; call dword [0x10013130] ;  (1 found)
0x10002318: add byte [eax], al ; mov dword [0x1001F714], 0x00000000 ; ret  ;  (1 found)
0x10004e7f: add byte [eax], al ; mov dword [ecx+0x0C], eax ; mov ecx, dword [esp+0x28] ; mov dword [edi+0x20], ecx ; call dword [0x10013134] ;  (1 found)
0x1000d7e6: add byte [eax], al ; mov dword [esp+0x00000088], eax ; push ecx ; call esi ;  (1 found)
0x1000d7d6: add byte [eax], al ; mov dword [esp+0x00000088], ebp ; call esi ;  (1 found)
0x10009d86: add byte [eax], al ; mov dword [esp+0x000000E4], 0x00000000 ; call dword [0x10013080] ;  (1 found)
0x10010bd3: add byte [eax], al ; mov dword [esp+0x00000128], 0x00000114 ; push ecx ; call ebx ;  (1 found)
0x1000cc88: add byte [eax], al ; mov dword [esp+0x10], ebp ; push eax ; xor ebp, ebp ; call esi ;  (1 found)
0x1000b2fc: add byte [eax], al ; mov dword [esp+0x18], ebx ; call dword [0x10013134] ;  (1 found)
0x1000d3bf: add byte [eax], al ; mov dword [esp+0x18], ecx ; mov dword [esp+0x1C], edx ; mov dword [esp+0x20], edi ; call esi ;  (1 found)
0x10011f2f: add byte [eax], al ; mov dword [esp+0x28], eax ; call dword [0x1001312C] ;  (1 found)
0x1000d40c: add byte [eax], al ; mov dword [esp+0x30], eax ; push ecx ; call dword [0x1001312C] ;  (1 found)
0x1000c489: add byte [eax], al ; mov dword [esp+0x44], ecx ; mov dword [esp+0x48], ebp ; mov dword [esp+0x4C], ebx ; call edi ;  (1 found)
0x1000bfc9: add byte [eax], al ; mov dword [esp+0x44], ecx ; mov dword [esp+0x48], ebp ; mov dword [esp+0x4C], ebx ; call esi ;  (1 found)
0x1000d11a: add byte [eax], al ; mov dword [esp+0x44], edx ; mov dword [esp+0x48], ebp ; mov dword [esp+0x4C], edi ; call esi ;  (1 found)
0x1000b708: add byte [eax], al ; mov dword [esp+0x50], eax ; push edi ; call ebx ;  (1 found)
0x1000cc78: add byte [eax], al ; mov dword [esp+0x54], eax ; push edx ; call esi ;  (1 found)
0x10005298: add byte [eax], al ; mov dword [esp+0x5C], eax ; call ebx ;  (1 found)
0x100099e9: add byte [eax], al ; mov dword [esp+0x6C], 0x00000000 ; call dword [0x10013080] ;  (1 found)
0x1000d7ac: add byte [eax], al ; mov dword [esp+0x7C], ebp ; push eax ; call esi ;  (1 found)
0x10004390: add byte [eax], al ; mov dx, word [eax+0x02] ; push edx ; call dword [0x10013130] ;  (1 found)
0x10010349: add byte [eax], al ; mov eax, 0x00000001 ; pop esi ; ret  ;  (1 found)
0x10004b9b: add byte [eax], al ; mov eax, dword [ebp+0x14] ; push eax ; call dword [0x10013134] ;  (1 found)
0x100065a1: add byte [eax], al ; mov eax, dword [ebx+0x34] ; mov ebp, dword [0x10013128] ; push eax ; call ebp ;  (1 found)
0x1000a971: add byte [eax], al ; mov eax, dword [ebx+0x34] ; push eax ; call ebp ;  (1 found)
0x100120c8: add byte [eax], al ; mov eax, dword [esi+0x2C] ; push eax ; call dword [0x10013090] ;  (1 found)
0x1000167a: add byte [eax], al ; mov eax, dword [esp+0x14] ; push eax ; call ebx ;  (1 found)
0x10009bb3: add byte [eax], al ; mov ebp, dword [0x10013134] ; mov ebx, dword [esi+0x000000BE] ; push eax ; call ebp ;  (1 found)
0x10009f6a: add byte [eax], al ; mov ebp, dword [0x10013134] ; mov edi, dword [esi+0x00000090] ; push eax ; call ebp ;  (1 found)
0x10003e5e: add byte [eax], al ; mov ebp, dword [0x10013134] ; push 0x80000000 ; call ebp ;  (1 found)
0x10009f31: add byte [eax], al ; mov ebp, dword [esi+0x000000A4] ; push eax ; call edi ;  (1 found)
0x10004456: add byte [eax], al ; mov ebp, dword [esp+0x18] ; mov eax, dword [ebp+0x14] ; push eax ; call dword [0x10013128] ;  (1 found)
0x1000d6a5: add byte [eax], al ; mov ebx, dword [esp+0x000001D0] ; add esp, 0x000000F0 ; push 0x00000067 ; call dword [0x1001312C] ;  (1 found)
0x10011570: add byte [eax], al ; mov ebx, eax ; call esi ;  (1 found)
0x1000cea6: add byte [eax], al ; mov ebx, eax ; push ecx ; xor ebp, ebp ; call edi ;  (1 found)
0x1000cecc: add byte [eax], al ; mov ebx, eax ; xor ebp, ebp ; push ecx ; call edi ;  (1 found)
0x1000feab: add byte [eax], al ; mov ecx, dword [0x1002FD8C] ; push ecx ; call dword [0x1002FBA0] ;  (1 found)
0x10006972: add byte [eax], al ; mov ecx, dword [esi+0x4C] ; push ecx ; mov dword [esi+0x00000378], edx ; call edi ;  (1 found)
0x10009ef6: add byte [eax], al ; mov edi, dword [0x10013134] ; mov ebp, dword [esi+0x0000009C] ; push eax ; call edi ;  (1 found)
0x1000abf5: add byte [eax], al ; mov edi, dword [esp+0x000000F4] ; add esp, 0x50 ; push 0x00000006 ; call dword [0x1001312C] ;  (1 found)
0x1000cc05: add byte [eax], al ; mov edi, dword [esp+0x00000100] ; add esp, 0x50 ; push 0x00000005 ; call dword [0x1001312C] ;  (1 found)
0x1000bf6f: add byte [eax], al ; mov edi, dword [esp+0x00000110] ; add esp, 0x50 ; push 0x0000000F ; call dword [0x1001312C] ;  (1 found)
0x1000bcf5: add byte [eax], al ; mov edi, dword [esp+0x00000128] ; add esp, 0x50 ; push 0x0000000D ; call dword [0x1001312C] ;  (1 found)
0x1000d12f: add byte [eax], al ; mov edi, eax ; push ecx ; xor ebp, ebp ; call esi ;  (1 found)
0x1000d794: add byte [eax], al ; mov edi, eax ; push ecx ; xor ebp, ebp ; call esi ;  (1 found)
0x1000d7ba: add byte [eax], al ; mov edi, eax ; push ecx ; xor ebp, ebp ; call esi ;  (1 found)
0x10006548: add byte [eax], al ; mov edi, esp ; rep movsd  ; push ebx ; call eax ;  (1 found)
0x100065ba: add byte [eax], al ; mov edx, dword [ebx+0x34] ; mov dword [esp+0x18], ecx ; push edx ; call ebp ;  (1 found)
0x1000a995: add byte [eax], al ; mov edx, dword [ebx+0x38] ; push edx ; call ebp ;  (1 found)
0x100114a4: add byte [eax], al ; mov edx, dword [edi+0x04] ; push edx ; call dword [ebp-0x1C] ;  (1 found)
0x10006898: add byte [eax], al ; mov edx, dword [esi+0x4C] ; push edx ; call edi ;  (1 found)
0x10003581: add byte [eax], al ; mov esi, dword [0x10013090] ; push 0xFFFFFFFF ; push edx ; call esi ;  (1 found)
0x1000addd: add byte [eax], al ; mov esi, dword [esp+0x000000B4] ; add esp, 0x28 ; push 0x000000C9 ; call dword [0x1001312C] ;  (1 found)
0x1000b10d: add byte [eax], al ; mov esi, dword [esp+0x000000B4] ; add esp, 0x28 ; push 0x000000CB ; call dword [0x1001312C] ;  (1 found)
0x1000aa4e: add byte [eax], al ; mov esi, dword [esp+0x000000BC] ; add esp, 0x28 ; push 0x00000014 ; call dword [0x1001312C] ;  (1 found)
0x1000c610: add byte [eax], al ; mov esi, dword [esp+0x000000BC] ; add esp, 0x28 ; push 0x00000045 ; call dword [0x1001312C] ;  (1 found)
0x1000b496: add byte [eax], al ; mov esi, dword [esp+0x000000F4] ; add esp, 0x50 ; push 0x00000008 ; call dword [0x1001312C] ;  (1 found)
0x1000c42f: add byte [eax], al ; mov esi, dword [esp+0x000000F8] ; add esp, 0x50 ; push 0x00000002 ; call dword [0x1001312C] ;  (1 found)
0x1000c1ff: add byte [eax], al ; mov esi, dword [esp+0x00000104] ; add esp, 0x50 ; push 0x0000000E ; call dword [0x1001312C] ;  (1 found)
0x1000ce25: add byte [eax], al ; mov esi, dword [esp+0x00000108] ; add esp, 0x50 ; push 0x00000010 ; call dword [0x1001312C] ;  (1 found)
0x1000ba9e: add byte [eax], al ; mov esi, dword [esp+0x00000114] ; add esp, 0x50 ; push 0x0000000A ; call dword [0x1001312C] ;  (1 found)
0x1000ba9f: add byte [eax], al ; mov esi, dword [esp+0x00000114] ; add esp, 0x50 ; push 0x0000000A ; call dword [0x1001312C] ;  (1 found)
0x1000a566: add byte [eax], al ; mov esi, dword [esp+0x0000011C] ; add esp, 0x50 ; push 0x00000066 ; call dword [0x1001312C] ;  (1 found)
0x1000650e: add byte [eax], al ; mov si, word [ebx+0x06] ; push 0x0000FFE2 ; call dword [0x1001312C] ;  (1 found)
0x1000b8e7: add byte [eax], al ; mov word [esp+0x10], ax ; push ecx ; call edi ;  (1 found)
0x1000b8f6: add byte [eax], al ; mov word [esp+0x12], ax ; push edx ; call edi ;  (1 found)
0x1000a17a: add byte [eax], al ; mov word [esp+0x66], ax ; push edx ; call edi ;  (1 found)
0x100021cd: add byte [eax], al ; or eax, 0xFFFFFFFF ; pop esi ; ret  ;  (1 found)
0x1000d145: add byte [eax], al ; or edi, edx ; push ebp ; mov dword [esp+0x54], edi ; call esi ;  (1 found)
0x10010cd7: add byte [eax], al ; pop ebx ; add esp, 0x00000230 ; ret  ;  (1 found)
0x100106ab: add byte [eax], al ; pop ebx ; add esp, 0x00000800 ; ret  ;  (1 found)
0x10011efb: add byte [eax], al ; pop ebx ; add esp, 0x00001128 ; ret  ;  (1 found)
0x10005eba: add byte [eax], al ; pop ebx ; ret  ;  (1 found)
0x10006063: add byte [eax], al ; pop ebx ; ret  ;  (1 found)
0x10005fe8: add byte [eax], al ; pop ebx ; ret  ;  (1 found)
0x100067da: add byte [eax], al ; pop edi ; pop esi ; pop ebx ; ret  ;  (1 found)
0x1000e557: add byte [eax], al ; pop edi ; pop esi ; ret  ;  (1 found)
0x10011b47: add byte [eax], al ; pop edi ; pop esi ; ret  ;  (1 found)
0x1000e4f5: add byte [eax], al ; pop edi ; xor eax, eax ; pop esi ; ret  ;  (1 found)
0x1000f5af: add byte [eax], al ; pop edi ; xor eax, eax ; pop esi ; ret  ;  (1 found)
0x10010dbf: add byte [eax], al ; pop esi ; add esp, 0x0000009C ; ret  ;  (1 found)
0x10011922: add byte [eax], al ; pop esi ; add esp, 0x00000100 ; ret  ;  (1 found)
0x100107b0: add byte [eax], al ; pop esi ; add esp, 0x00001004 ; ret  ;  (1 found)
0x10010a44: add byte [eax], al ; pop esi ; add esp, 0x0C ; ret  ;  (1 found)
0x1000ea11: add byte [eax], al ; pop esi ; pop ebp ; ret  ;  (1 found)
0x10011416: add byte [eax], al ; pop esi ; ret  ;  (1 found)
0x1001034e: add byte [eax], al ; pop esi ; ret  ;  (1 found)
0x1001038a: add byte [eax], al ; pop esi ; ret  ;  (1 found)
0x100105f0: add byte [eax], al ; pop esi ; ret  ;  (1 found)
0x1001061f: add byte [eax], al ; pop esi ; ret  ;  (1 found)
0x100109d2: add byte [eax], al ; pop esi ; ret  ;  (1 found)
0x100120b0: add byte [eax], al ; pop esi ; ret  ;  (1 found)
0x100119d9: add byte [eax], al ; push 0x00000000 ; call dword [0x1001311C] ;  (1 found)
0x10010962: add byte [eax], al ; push 0x00000000 ; call dword [0x1001311C] ;  (1 found)
0x1000f2b8: add byte [eax], al ; push 0x00000000 ; call dword [0x10013164] ;  (1 found)
0x10006dd5: add byte [eax], al ; push 0x00000000 ; push 0x00000001 ; push eax ; call dword [0x10013094] ;  (1 found)
0x1000f244: add byte [eax], al ; push 0x00000000 ; push 0x00000001 ; push eax ; call dword [0x10013094] ;  (1 found)
0x1000f35a: add byte [eax], al ; push 0x00000000 ; push 0x00000001 ; push eax ; call dword [0x10013094] ;  (1 found)
0x100038fe: add byte [eax], al ; push 0x00000000 ; push 0x00000001 ; push eax ; call edi ;  (1 found)
0x100068a4: add byte [eax], al ; push 0x00000000 ; push 0x00000001 ; push eax ; call edi ;  (1 found)
0x1000f456: add byte [eax], al ; push 0x00000000 ; push 0x00000001 ; push ecx ; call dword [0x10013094] ;  (1 found)
0x10003a4c: add byte [eax], al ; push 0x00000000 ; push 0x00000001 ; push ecx ; call edi ;  (1 found)
0x1000390b: add byte [eax], al ; push 0x00000000 ; push 0x00000001 ; push ecx ; call edi ;  (1 found)
0x10006e4f: add byte [eax], al ; push 0x00000000 ; push 0x00000001 ; push ecx ; call edi ;  (1 found)
0x1000169b: add byte [eax], al ; push 0x00000000 ; push 0x00000001 ; push edx ; call dword [0x10013094] ;  (1 found)
0x10001787: add byte [eax], al ; push 0x00000000 ; push 0x00000001 ; push edx ; call dword [0x10013094] ;  (1 found)
0x10003b20: add byte [eax], al ; push 0x00000000 ; push 0x00000001 ; push edx ; call dword [0x10013094] ;  (1 found)
0x1000d9c9: add byte [eax], al ; push 0x00000000 ; push 0x00000001 ; push edx ; call dword [0x10013094] ;  (1 found)
0x1000e125: add byte [eax], al ; push 0x00000000 ; push 0x00000001 ; push edx ; call dword [0x10013094] ;  (1 found)
0x1000e203: add byte [eax], al ; push 0x00000000 ; push 0x00000001 ; push edx ; call dword [0x10013094] ;  (1 found)
0x10006984: add byte [eax], al ; push 0x00000000 ; push 0x00000001 ; push edx ; call edi ;  (1 found)
0x10003e77: add byte [eax], al ; push 0x00000001 ; call ebp ;  (1 found)
0x10011fe6: add byte [eax], al ; push 0x00000002 ; push esi ; call dword [0x1001313C] ;  (1 found)
0x1000d0ca: add byte [eax], al ; push 0x00000003 ; call dword [0x1001312C] ;  (1 found)
0x1000d363: add byte [eax], al ; push 0x00000004 ; call dword [0x1001312C] ;  (1 found)
0x1000c7fc: add byte [eax], al ; push 0x00000007 ; call dword [0x1001312C] ;  (1 found)
0x1000ca0c: add byte [eax], al ; push 0x00000009 ; call dword [0x1001312C] ;  (1 found)
0x1000d6b2: add byte [eax], al ; push 0x00000067 ; call dword [0x1001312C] ;  (1 found)
0x1000af82: add byte [eax], al ; push 0x000000CA ; call dword [0x1001312C] ;  (1 found)
0x1000b2b8: add byte [eax], al ; push 0x000000CC ; call dword [0x1001312C] ;  (1 found)
0x1000d670: add byte [eax], al ; push 0x1001AAF4 ; push 0x000001FB ; call dword [0x10013080] ;  (1 found)
0x10009d7c: add byte [eax], al ; push 0x1001AAF4 ; push 0x000001FB ; mov dword [esp+0x000000E4], 0x00000000 ; call dword [0x10013080] ;  (1 found)
0x100099df: add byte [eax], al ; push 0x1001AAF4 ; push 0x000001FB ; mov dword [esp+0x6C], 0x00000000 ; call dword [0x10013080] ;  (1 found)
0x1000329e: add byte [eax], al ; push 0x1001ACA4 ; push eax ; call esi ;  (1 found)
0x1000587c: add byte [eax], al ; push 0x80000000 ; call dword [0x10013134] ;  (1 found)
0x10007eaf: add byte [eax], al ; push 0x80000000 ; call dword [0x10013134] ;  (1 found)
0x10003f71: add byte [eax], al ; push 0x80000000 ; call ebp ;  (1 found)
0x10001757: add byte [eax], al ; push 0xFFFFFFFF ; push ecx ; call dword [0x10013090] ;  (1 found)
0x100038a5: add byte [eax], al ; push 0xFFFFFFFF ; push ecx ; call dword [0x10013090] ;  (1 found)
0x10006bdb: add byte [eax], al ; push 0xFFFFFFFF ; push ecx ; call dword [0x10013090] ;  (1 found)
0x10006d87: add byte [eax], al ; push 0xFFFFFFFF ; push ecx ; call dword [0x10013090] ;  (1 found)
0x10006e0b: add byte [eax], al ; push 0xFFFFFFFF ; push ecx ; call dword [0x10013090] ;  (1 found)
0x1000f1d9: add byte [eax], al ; push 0xFFFFFFFF ; push ecx ; call dword [0x10013090] ;  (1 found)
0x1000ed32: add byte [eax], al ; push 0xFFFFFFFF ; push ecx ; call ebx ;  (1 found)
0x100015da: add byte [eax], al ; push 0xFFFFFFFF ; push edx ; call dword [0x10013090] ;  (1 found)
0x10001c94: add byte [eax], al ; push 0xFFFFFFFF ; push edx ; call dword [0x10013090] ;  (1 found)
0x10003991: add byte [eax], al ; push 0xFFFFFFFF ; push edx ; call edi ;  (1 found)
0x100035f9: add byte [eax], al ; push eax ; call dword [0x10013094] ;  (1 found)
0x100117d6: add byte [eax], al ; push eax ; call dword [0x100130AC] ;  (1 found)
0x1000322f: add byte [eax], al ; push eax ; call dword [0x10013100] ;  (1 found)
0x100077ba: add byte [eax], al ; push eax ; call dword [0x10013128] ;  (1 found)
0x10007b92: add byte [eax], al ; push eax ; call dword [0x10013128] ;  (1 found)
0x10009fa5: add byte [eax], al ; push eax ; call dword [0x10013128] ;  (1 found)
0x100065e3: add byte [eax], al ; push eax ; call ebp ;  (1 found)
0x10009bbf: add byte [eax], al ; push eax ; call ebp ;  (1 found)
0x10009f76: add byte [eax], al ; push eax ; call ebp ;  (1 found)
0x100019ea: add byte [eax], al ; push eax ; call edi ;  (1 found)
0x10009f02: add byte [eax], al ; push eax ; call edi ;  (1 found)
0x10009f37: add byte [eax], al ; push eax ; call edi ;  (1 found)
0x1000a18e: add byte [eax], al ; push eax ; call edi ;  (1 found)
0x1000ce9c: add byte [eax], al ; push eax ; call edi ;  (1 found)
0x1000d78a: add byte [eax], al ; push eax ; call esi ;  (1 found)
0x10003227: add byte [eax], al ; push eax ; lea eax, dword [esp+0x00000224] ; push eax ; call dword [0x10013100] ;  (1 found)
0x10010bab: add byte [eax], al ; push eax ; mov dword [esp+0x10], 0x0000011C ; call ebx ;  (1 found)
0x1000c4a0: add byte [eax], al ; push eax ; xor ebp, ebp ; call edi ;  (1 found)
0x1000bfe0: add byte [eax], al ; push eax ; xor ebp, ebp ; call esi ;  (1 found)
0x1000c02c: add byte [eax], al ; push eax ; xor ebp, ebp ; call esi ;  (1 found)
0x1000c006: add byte [eax], al ; push eax ; xor ebp, ebp ; call esi ;  (1 found)
0x1000c052: add byte [eax], al ; push eax ; xor ebp, ebp ; call esi ;  (1 found)
0x1000d762: add byte [eax], al ; push eax ; xor ebp, ebp ; call esi ;  (1 found)
0x1000b8dd: add byte [eax], al ; push ebp ; call edi ;  (1 found)
0x10010654: add byte [eax], al ; push ebx ; push esi ; push edi ; call dword [0x10013070] ;  (1 found)
0x1000ee23: add byte [eax], al ; push ecx ; call dword [0x1001308C] ;  (1 found)
0x10011659: add byte [eax], al ; push ecx ; call dword [0x100130AC] ;  (1 found)
0x1001175a: add byte [eax], al ; push ecx ; call dword [0x100130AC] ;  (1 found)
0x100116bf: add byte [eax], al ; push ecx ; call dword [0x100130AC] ;  (1 found)
0x100118f5: add byte [eax], al ; push ecx ; call dword [0x100130AC] ;  (1 found)
0x1000656c: add byte [eax], al ; push ecx ; call dword [0x10013128] ;  (1 found)
0x100091b5: add byte [eax], al ; push ecx ; call dword [0x10013128] ;  (1 found)
0x100095ff: add byte [eax], al ; push ecx ; call dword [0x10013128] ;  (1 found)
0x10009b9c: add byte [eax], al ; push ecx ; call dword [0x10013128] ;  (1 found)
0x1000168b: add byte [eax], al ; push ecx ; call ebx ;  (1 found)
0x10010bde: add byte [eax], al ; push ecx ; call ebx ;  (1 found)
0x1000d7ed: add byte [eax], al ; push ecx ; call esi ;  (1 found)
0x1000a111: add byte [eax], al ; push ecx ; mov dword [esp+0x50], eax ; call edi ;  (1 found)
0x1001057b: add byte [eax], al ; push ecx ; push edx ; call dword [0x100130E0] ;  (1 found)
0x100108ca: add byte [eax], al ; push ecx ; push edx ; push eax ; call dword [0x10013120] ;  (1 found)
0x1000f11d: add byte [eax], al ; push ecx ; push edx ; push eax ; call edi ;  (1 found)
0x1000f14c: add byte [eax], al ; push ecx ; push edx ; push eax ; call edi ;  (1 found)
0x10011335: add byte [eax], al ; push edi ; call dword [0x1001308C] ;  (1 found)
0x10011984: add byte [eax], al ; push edi ; push 0x1001F6D4 ; call dword [0x100130A8] ;  (1 found)
0x1000359c: add byte [eax], al ; push edi ; push 0xFFFFFFFF ; push eax ; call esi ;  (1 found)
0x10011f6c: add byte [eax], al ; push edi ; push eax ; push esi ; call dword [0x10013158] ;  (1 found)
0x10011ba9: add byte [eax], al ; push edx ; call dword [0x10013004] ;  (1 found)
0x10011bfc: add byte [eax], al ; push edx ; call dword [0x1001300C] ;  (1 found)
0x10001295: add byte [eax], al ; push edx ; call dword [0x10013090] ;  (1 found)
0x100012ed: add byte [eax], al ; push edx ; call dword [0x10013094] ;  (1 found)
0x1001187a: add byte [eax], al ; push edx ; call dword [0x100130AC] ;  (1 found)
0x10001a0c: add byte [eax], al ; push edx ; call dword [0x10013108] ;  (1 found)
0x1000832c: add byte [eax], al ; push edx ; call dword [0x10013128] ;  (1 found)
0x10008c36: add byte [eax], al ; push edx ; call dword [0x10013128] ;  (1 found)
0x10008e06: add byte [eax], al ; push edx ; call dword [0x10013128] ;  (1 found)
0x10008fd6: add byte [eax], al ; push edx ; call dword [0x10013128] ;  (1 found)
0x1000f27e: add byte [eax], al ; push edx ; call dword [0x1001312C] ;  (1 found)
0x10007ba6: add byte [eax], al ; push edx ; call dword [0x10013130] ;  (1 found)
0x10001671: add byte [eax], al ; push edx ; call ebx ;  (1 found)
0x100032c0: add byte [eax], al ; push edx ; push ecx ; call esi ;  (1 found)
0x1001195b: add byte [eax], al ; push esi ; call dword [0x1001308C] ;  (1 found)
0x10011f11: add byte [eax], al ; push esi ; call dword [0x1001315C] ;  (1 found)
0x10001978: add byte [eax], al ; ret  ;  (1 found)
0x10001d9a: add byte [eax], al ; ret  ;  (1 found)
0x10001d58: add byte [eax], al ; ret  ;  (1 found)
0x10002322: add byte [eax], al ; ret  ;  (1 found)
0x100034fb: add byte [eax], al ; ret  ;  (1 found)
0x1000539c: add byte [eax], al ; ret  ;  (1 found)
0x10005bcc: add byte [eax], al ; ret  ;  (1 found)
0x10005c91: add byte [eax], al ; ret  ;  (1 found)
0x1000b3e5: add byte [eax], al ; ret  ;  (1 found)
0x1000b415: add byte [eax], al ; ret  ;  (1 found)
0x1000b5de: add byte [eax], al ; ret  ;  (1 found)
0x1000b60e: add byte [eax], al ; ret  ;  (1 found)
0x1000b7fd: add byte [eax], al ; ret  ;  (1 found)
0x1000b82d: add byte [eax], al ; ret  ;  (1 found)
0x1000b9ed: add byte [eax], al ; ret  ;  (1 found)
0x1000ba1d: add byte [eax], al ; ret  ;  (1 found)
0x1000bc65: add byte [eax], al ; ret  ;  (1 found)
0x1000bc35: add byte [eax], al ; ret  ;  (1 found)
0x1000a285: add byte [eax], al ; ret  ;  (1 found)
0x1000a2b5: add byte [eax], al ; ret  ;  (1 found)
0x1000a71d: add byte [eax], al ; ret  ;  (1 found)
0x1000a6ed: add byte [eax], al ; ret  ;  (1 found)
0x1000ad5e: add byte [eax], al ; ret  ;  (1 found)
0x1000ad8e: add byte [eax], al ; ret  ;  (1 found)
0x1000c946: add byte [eax], al ; ret  ;  (1 found)
0x1000c976: add byte [eax], al ; ret  ;  (1 found)
0x1000cb56: add byte [eax], al ; ret  ;  (1 found)
0x1000cb86: add byte [eax], al ; ret  ;  (1 found)
0x1000cda8: add byte [eax], al ; ret  ;  (1 found)
0x1000cd78: add byte [eax], al ; ret  ;  (1 found)
0x1000cff0: add byte [eax], al ; ret  ;  (1 found)
0x1000cfc0: add byte [eax], al ; ret  ;  (1 found)
0x1000d0c1: add byte [eax], al ; ret  ;  (1 found)
0x1000d250: add byte [eax], al ; ret  ;  (1 found)
0x1000d27f: add byte [eax], al ; ret  ;  (1 found)
0x1000d35a: add byte [eax], al ; ret  ;  (1 found)
0x1000d51d: add byte [eax], al ; ret  ;  (1 found)
0x1000beb2: add byte [eax], al ; ret  ;  (1 found)
0x1000bee2: add byte [eax], al ; ret  ;  (1 found)
0x1000c142: add byte [eax], al ; ret  ;  (1 found)
0x1000c172: add byte [eax], al ; ret  ;  (1 found)
0x1000c374: add byte [eax], al ; ret  ;  (1 found)
0x1000c3a4: add byte [eax], al ; ret  ;  (1 found)
0x1000c590: add byte [eax], al ; ret  ;  (1 found)
0x1000c5c0: add byte [eax], al ; ret  ;  (1 found)
0x1000c734: add byte [eax], al ; ret  ;  (1 found)
0x1000c763: add byte [eax], al ; ret  ;  (1 found)
0x1000e338: add byte [eax], al ; ret  ;  (1 found)
0x1000e3be: add byte [eax], al ; ret  ;  (1 found)
0x1000e43f: add byte [eax], al ; ret  ;  (1 found)
0x1000e48e: add byte [eax], al ; ret  ;  (1 found)
0x1000e674: add byte [eax], al ; ret  ;  (1 found)
0x1000d54d: add byte [eax], al ; ret  ;  (1 found)
0x1000d8dc: add byte [eax], al ; ret  ;  (1 found)
0x1000d90c: add byte [eax], al ; ret  ;  (1 found)
0x1000f656: add byte [eax], al ; ret  ;  (1 found)
0x1000f66a: add byte [eax], al ; ret  ;  (1 found)
0x1000fbe0: add byte [eax], al ; ret  ;  (1 found)
0x1000fd89: add byte [eax], al ; ret  ;  (1 found)
0x1000fde2: add byte [eax], al ; ret  ;  (1 found)
0x1000fe7c: add byte [eax], al ; ret  ;  (1 found)
0x1000fe41: add byte [eax], al ; ret  ;  (1 found)
0x1001105f: add byte [eax], al ; ret  ;  (1 found)
0x1001137c: add byte [eax], al ; ret  ;  (1 found)
0x1001139c: add byte [eax], al ; ret  ;  (1 found)
0x100114e9: add byte [eax], al ; ret  ;  (1 found)
0x10011681: add byte [eax], al ; ret  ;  (1 found)
0x100116e7: add byte [eax], al ; ret  ;  (1 found)
0x1001177e: add byte [eax], al ; ret  ;  (1 found)
0x100118a1: add byte [eax], al ; ret  ;  (1 found)
0x100117fc: add byte [eax], al ; ret  ;  (1 found)
0x1001191b: add byte [eax], al ; ret  ;  (1 found)
0x10011929: add byte [eax], al ; ret  ;  (1 found)
0x100100ca: add byte [eax], al ; ret  ;  (1 found)
0x100104ff: add byte [eax], al ; ret  ;  (1 found)
0x10010514: add byte [eax], al ; ret  ;  (1 found)
0x1001056f: add byte [eax], al ; ret  ;  (1 found)
0x1001058c: add byte [eax], al ; ret  ;  (1 found)
0x100106b2: add byte [eax], al ; ret  ;  (1 found)
0x100106c5: add byte [eax], al ; ret  ;  (1 found)
0x1001075d: add byte [eax], al ; ret  ;  (1 found)
0x100107b7: add byte [eax], al ; ret  ;  (1 found)
0x1001079e: add byte [eax], al ; ret  ;  (1 found)
0x1001082c: add byte [eax], al ; ret  ;  (1 found)
0x1001083e: add byte [eax], al ; ret  ;  (1 found)
0x10010908: add byte [eax], al ; ret  ;  (1 found)
0x100108fc: add byte [eax], al ; ret  ;  (1 found)
0x1001099b: add byte [eax], al ; ret  ;  (1 found)
0x10010b3b: add byte [eax], al ; ret  ;  (1 found)
0x10010c48: add byte [eax], al ; ret  ;  (1 found)
0x10010c8e: add byte [eax], al ; ret  ;  (1 found)
0x10010bee: add byte [eax], al ; ret  ;  (1 found)
0x10010cde: add byte [eax], al ; ret  ;  (1 found)
0x10010dc6: add byte [eax], al ; ret  ;  (1 found)
0x10010d09: add byte [eax], al ; ret  ;  (1 found)
0x10010d22: add byte [eax], al ; ret  ;  (1 found)
0x10010e41: add byte [eax], al ; ret  ;  (1 found)
0x10010dff: add byte [eax], al ; ret  ;  (1 found)
0x10012002: add byte [eax], al ; ret  ;  (1 found)
0x10012020: add byte [eax], al ; ret  ;  (1 found)
0x10011a6a: add byte [eax], al ; ret  ;  (1 found)
0x10011af7: add byte [eax], al ; ret  ;  (1 found)
0x10011b01: add byte [eax], al ; ret  ;  (1 found)
0x10011ce9: add byte [eax], al ; ret  ;  (1 found)
0x10011ed3: add byte [eax], al ; ret  ;  (1 found)
0x10011f02: add byte [eax], al ; ret  ;  (1 found)
0x1000f5fd: add byte [eax], al ; xor edx, edx ; add esp, 0x18 ; ret  ;  (1 found)
0x1001073a: add byte [eax], cl ; add byte [eax], al ; call dword [0x10013040] ;  (1 found)
0x100106b0: add byte [eax], cl ; add byte [eax], al ; ret  ;  (1 found)
0x100106c3: add byte [eax], cl ; add byte [eax], al ; ret  ;  (1 found)
0x10010579: add byte [eax], dl ; add byte [eax], al ; push ecx ; push edx ; call dword [0x100130E0] ;  (1 found)
0x100104fd: add byte [eax], dl ; add byte [eax], al ; ret  ;  (1 found)
0x10010512: add byte [eax], dl ; add byte [eax], al ; ret  ;  (1 found)
0x1001083c: add byte [eax], dl ; add byte [eax], al ; ret  ;  (1 found)
0x1001082a: add byte [eax], dl ; add byte [eax], al ; ret  ;  (1 found)
0x10010906: add byte [eax], dl ; add byte [eax], al ; ret  ;  (1 found)
0x100108fa: add byte [eax], dl ; add byte [eax], al ; ret  ;  (1 found)
0x10010e3f: add byte [eax], dl ; add byte [eax], al ; ret  ;  (1 found)
0x10010dfd: add byte [eax], dl ; add byte [eax], al ; ret  ;  (1 found)
0x1000e5ff: add byte [eax], dl ; jmp dword [0x1000E6A4+edx*4] ;  (1 found)
0x10012096: add byte [eax], dl ; mov dword [esi+0x34], eax ; call dword [0x10013088] ;  (1 found)
0x10003ace: add byte [ebp+0x0003949F], cl ; add byte [ebx], bh ; ret  ;  (1 found)
0x1000e96c: add byte [ebp+0x03050174], cl ; retn 0x4489 ;  (1 found)
0x1000edc4: add byte [ebp+0x07], dh ; push 0xFFFFFFFF ; push esi ; call ebx ;  (1 found)
0x1000ef83: add byte [ebp+0x07], dh ; push 0xFFFFFFFF ; push esi ; call edi ;  (1 found)
0x10012431: add byte [ebp+0x0A], dh ; push dword [esp+0x04] ; call dword [0x10013098] ;  (1 found)
0x10005657: add byte [ebp+0x0E], dh ; push 0x00000002 ; call dword [0x10013134] ;  (1 found)
0x10010575: add byte [ebp+0x10002494], cl ; add byte [eax], al ; push ecx ; push edx ; call dword [0x100130E0] ;  (1 found)
0x100105e0: add byte [ebp+0x11], dh ; push esi ; mov byte [ecx], 0x00000000 ; call dword [0x10013034] ;  (1 found)
0x1000f615: add byte [ebp+0x50002444], cl ; push 0x00000101 ; call dword [0x10013144] ;  (1 found)
0x10001327: add byte [ebp+0x500374C0], al ; call ebx ;  (1 found)
0x10001318: add byte [ebp+0x500374C0], al ; call ebx ;  (1 found)
0x10001309: add byte [ebp+0x500374C0], al ; call ebx ;  (1 found)
0x10001336: add byte [ebp+0x500374C0], al ; call ebx ;  (1 found)
0x10001345: add byte [ebp+0x500374C0], al ; call ebx ;  (1 found)
0x10001354: add byte [ebp+0x500374C0], al ; call ebx ;  (1 found)
0x1000ee9a: add byte [ebp+0x500774C0], al ; call dword [0x1001308C] ;  (1 found)
0x10006c1b: add byte [ebp+0x50077EC0], al ; call dword [0x10013084] ;  (1 found)
0x1000fd92: add byte [ebp+0x5018244C], cl ; push ecx ; call dword [0x1002FB6C] ;  (1 found)
0x1000f5d1: add byte [ebp+0x51082454], cl ; push edx ; call dword [0x10013078] ;  (1 found)
0x1000f201: add byte [ebp+0x56], dh ; call dword [0x10013164] ;  (1 found)
0x100119ec: add byte [ebp+0x68042444], cl ; push eax ; test byte [ecx], 0x00000010 ; push eax ; call dword [0x100130FC] ;  (1 found)
0x1001121c: add byte [ebp-0x00042F73], cl ; call dword [ecx-0x18] ;  (1 found)
0x100110fd: add byte [ebp-0x0004337B], cl ; call dword [eax-0x73] ;  (1 found)
0x10001c65: add byte [ebx+0x00037082], cl ; add byte [ebx], bh ; ret  ;  (1 found)
0x10006916: add byte [ebx+0x0003808E], cl ; add byte [ebx+0x0130903D], cl ; adc byte [ebx-0x0095D73C], al ; push ecx ; call edi ;  (1 found)
0x10006816: add byte [ebx+0x0003848E], cl ; add byte [ebx+0x0130903D], cl ; adc byte [ebx-0x0095D73C], al ; push ecx ; call edi ;  (1 found)
0x10003978: add byte [ebx+0x0005D08E], cl ; add byte [ebx+0x0130903D], cl ; adc byte [ebx-0x0095D73C], al ; push ecx ; call edi ;  (1 found)
0x10003668: add byte [ebx+0x0005D48D], cl ; add byte [ebx-0x0095D73C], al ; push ecx ; call dword [0x10013090] ;  (1 found)
0x10003ab6: add byte [ebx+0x0005D48F], cl ; add byte [ebx-0x0095D73C], al ; push ecx ; call dword [0x10013090] ;  (1 found)
0x1000f147: add byte [ebx+0x0005D886], cl ; add byte [ecx+0x52], dl ; push eax ; call edi ;  (1 found)
0x1000f118: add byte [ebx+0x0005D886], cl ; add byte [ecx+0x52], dl ; push eax ; call edi ;  (1 found)
0x1000e198: add byte [ebx+0x0006D08B], cl ; add byte [ebx+0x0130902D], cl ; adc byte [ebx-0x0095D73C], al ; push ecx ; call ebp ;  (1 found)
0x1000e0a6: add byte [ebx+0x0006D08B], cl ; add byte [ebx-0x0095D73C], al ; push ecx ; call dword [0x10013090] ;  (1 found)
0x1000d946: add byte [ebx+0x0006D08E], cl ; add byte [ebx-0x0095D73C], al ; push ecx ; call dword [0x10013090] ;  (1 found)
0x10001f10: add byte [ebx+0x006A18C4], al ; push 0x00000001 ; push 0x00000001 ; push 0x00000000 ; call dword [0x10013088] ;  (1 found)
0x1000adde: add byte [ebx+0x00B424B4], cl ; add byte [eax], al ; add esp, 0x28 ; push 0x000000C9 ; call dword [0x1001312C] ;  (1 found)
0x1000b10e: add byte [ebx+0x00B424B4], cl ; add byte [eax], al ; add esp, 0x28 ; push 0x000000CB ; call dword [0x1001312C] ;  (1 found)
0x1000aa4f: add byte [ebx+0x00BC24B4], cl ; add byte [eax], al ; add esp, 0x28 ; push 0x00000014 ; call dword [0x1001312C] ;  (1 found)
0x1000c611: add byte [ebx+0x00BC24B4], cl ; add byte [eax], al ; add esp, 0x28 ; push 0x00000045 ; call dword [0x1001312C] ;  (1 found)
0x1000b497: add byte [ebx+0x00F424B4], cl ; add byte [eax], al ; add esp, 0x50 ; push 0x00000008 ; call dword [0x1001312C] ;  (1 found)
0x1000abf6: add byte [ebx+0x00F424BC], cl ; add byte [eax], al ; add esp, 0x50 ; push 0x00000006 ; call dword [0x1001312C] ;  (1 found)
0x1000c430: add byte [ebx+0x00F824B4], cl ; add byte [eax], al ; add esp, 0x50 ; push 0x00000002 ; call dword [0x1001312C] ;  (1 found)
0x1000cc06: add byte [ebx+0x010024BC], cl ; add byte [eax], al ; add esp, 0x50 ; push 0x00000005 ; call dword [0x1001312C] ;  (1 found)
0x1000c200: add byte [ebx+0x010424B4], cl ; add byte [eax], al ; add esp, 0x50 ; push 0x0000000E ; call dword [0x1001312C] ;  (1 found)
0x1000ce26: add byte [ebx+0x010824B4], cl ; add byte [eax], al ; add esp, 0x50 ; push 0x00000010 ; call dword [0x1001312C] ;  (1 found)
0x1000bf70: add byte [ebx+0x011024BC], cl ; add byte [eax], al ; add esp, 0x50 ; push 0x0000000F ; call dword [0x1001312C] ;  (1 found)
0x1000baa0: add byte [ebx+0x011424B4], cl ; add byte [eax], al ; add esp, 0x50 ; push 0x0000000A ; call dword [0x1001312C] ;  (1 found)
0x1000a567: add byte [ebx+0x011C24B4], cl ; add byte [eax], al ; add esp, 0x50 ; push 0x00000066 ; call dword [0x1001312C] ;  (1 found)
0x1000bcf6: add byte [ebx+0x012824BC], cl ; add byte [eax], al ; add esp, 0x50 ; push 0x0000000D ; call dword [0x1001312C] ;  (1 found)
0x1000e19e: add byte [ebx+0x0130902D], cl ; adc byte [ebx-0x0095D73C], al ; push ecx ; call ebp ;  (1 found)
0x10003582: add byte [ebx+0x01309035], cl ; adc byte [edx-0x01], ch ; push edx ; call esi ;  (1 found)
0x1000397e: add byte [ebx+0x0130903D], cl ; adc byte [ebx-0x0095D73C], al ; push ecx ; call edi ;  (1 found)
0x1000681c: add byte [ebx+0x0130903D], cl ; adc byte [ebx-0x0095D73C], al ; push ecx ; call edi ;  (1 found)
0x1000691c: add byte [ebx+0x0130903D], cl ; adc byte [ebx-0x0095D73C], al ; push ecx ; call edi ;  (1 found)
0x10006e3d: add byte [ebx+0x0130943D], cl ; adc byte [edx+0x00], ch ; push 0x00000001 ; push eax ; call edi ;  (1 found)
0x10003bef: add byte [ebx+0x0131343D], cl ; adc byte [ebx+0x50C033D8], cl ; call edi ;  (1 found)
0x1000f1e8: add byte [ebx+0x016A08C9], al ; push 0x00000002 ; mov dword [esi+0x3C], ecx ; call dword [0x10013168] ;  (1 found)
0x1000f47c: add byte [ebx+0x016A10CA], al ; push eax ; mov dword [esi+0x3C], edx ; call dword [0x10013094] ;  (1 found)
0x10003b94: add byte [ebx+0x016A18C4], al ; call dword [0x1001312C] ;  (1 found)
0x1000e550: add byte [ebx+0x01B818C4], al ; add byte [eax], al ; add byte [edi+0x5E], bl ; ret  ;  (1 found)
0x1000ea0a: add byte [ebx+0x01B818C4], al ; add byte [eax], al ; add byte [esi+0x5D], bl ; ret  ;  (1 found)
0x1000d6a6: add byte [ebx+0x01D0249C], cl ; add byte [eax], al ; add esp, 0x000000F0 ; push 0x00000067 ; call dword [0x1001312C] ;  (1 found)
0x10001193: add byte [ebx+0x01F70015], cl ; adc byte [ebx+0x006A30C4], al ; push 0x00000001 ; push edx ; call dword [0x10013094] ;  (1 found)
0x1000112c: add byte [ebx+0x01F70015], cl ; adc byte [ebx-0x0095D73C], al ; push edx ; call dword [0x10013090] ;  (1 found)
0x1000f31d: add byte [ebx+0x026A18C4], al ; push edi ; call dword [0x1001313C] ;  (1 found)
0x1000f41a: add byte [ebx+0x026A18C4], al ; push edi ; call dword [0x1001313C] ;  (1 found)
0x1000ed60: add byte [ebx+0x026A18C4], al ; push esi ; call dword [0x1001313C] ;  (1 found)
0x1000c437: add byte [ebx+0x026A50C4], al ; call dword [0x1001312C] ;  (1 found)
0x1000cc0d: add byte [ebx+0x056A50C4], al ; call dword [0x1001312C] ;  (1 found)
0x1000abfd: add byte [ebx+0x066A50C4], al ; call dword [0x1001312C] ;  (1 found)
0x1000b49e: add byte [ebx+0x086A50C4], al ; call dword [0x1001312C] ;  (1 found)
0x1000baa7: add byte [ebx+0x0A6A50C4], al ; call dword [0x1001312C] ;  (1 found)
0x1000b6a3: add byte [ebx+0x0C6A50C4], al ; call ebx ;  (1 found)
0x1000bcfd: add byte [ebx+0x0D6A50C4], al ; call dword [0x1001312C] ;  (1 found)
0x1000c207: add byte [ebx+0x0E6A50C4], al ; call dword [0x1001312C] ;  (1 found)
0x1000bf77: add byte [ebx+0x0F6A50C4], al ; call dword [0x1001312C] ;  (1 found)
0x10001289: add byte [ebx+0x0F8B04C4], al ; push 0xFFFFFFFF ; mov edx, dword [ecx+0x000005D4] ; push edx ; call dword [0x10013090] ;  (1 found)
0x1000ce2d: add byte [ebx+0x106A50C4], al ; call dword [0x1001312C] ;  (1 found)
0x1000aa56: add byte [ebx+0x146A28C4], al ; call dword [0x1001312C] ;  (1 found)
0x100065a2: add byte [ebx+0x2D8B3443], cl ; sub byte [ecx], dh ; add dword [eax], edx ; push eax ; call ebp ;  (1 found)
0x1001190f: add byte [ebx+0x335F28C4], al ; rcr byte [esi-0x7F], 0xFFFFFFC4 ; add byte [ecx], al ; add byte [eax], al ; ret  ;  (1 found)
0x1000c618: add byte [ebx+0x456A28C4], al ; call dword [0x1001312C] ;  (1 found)
0x100065bb: add byte [ebx+0x4C893453], cl ; and al, 0x18 ; push edx ; call ebp ;  (1 found)
0x1000fc76: add byte [ebx+0x4C8B20C4], al ; and al, 0x0C ; push ecx ; call dword [0x1001301C] ;  (1 found)
0x1000e5ed: add byte [ebx+0x4F8D04C0], al ; inc byte [ebx+0x427764F9] ; xor edx, edx ; mov dl, byte [ecx+0x1000E6C0] ; jmp dword [0x1000E6A4+edx*4] ;  (1 found)
0x1000167b: add byte [ebx+0x50142444], cl ; call ebx ;  (1 found)
0x1000cecd: add byte [ebx+0x51ED33D8], cl ; call edi ;  (1 found)
0x10006ae9: add byte [ebx+0x522C2454], cl ; push ebx ; push ebp ; call dword [ebx+0x08] ;  (1 found)
0x10006549: add byte [ebx+0x53A5F3FC], cl ; call eax ;  (1 found)
0x10011a20: add byte [ebx+0x548D18C4], al ; and al, 0x00 ; push esi ; push edx ; call dword [0x100130BC] ;  (1 found)
0x10006a2c: add byte [ebx+0x55], dl ; call dword [ebx+0x08] ;  (1 found)
0x10010e55: add byte [ebx+0x55], dl ; push esi ; push edi ; mov dword [esp+0x14], 0x00000000 ; call dword [0x1001305C] ;  (1 found)
0x10011fcf: add byte [ebx+0x56505217], cl ; call dword [0x10013154] ;  (1 found)
0x10010655: add byte [ebx+0x56], dl ; push edi ; call dword [0x10013070] ;  (1 found)
0x10001fd2: add byte [ebx+0x595E18C4], al ; ret  ;  (1 found)
0x1000a9fb: add byte [ebx+0x5B5E18C4], al ; ret  ;  (1 found)
0x1000e152: add byte [ebx+0x5B5E18C4], al ; ret  ;  (1 found)
0x10003b69: add byte [ebx+0x5B5F28C4], al ; ret  ;  (1 found)
0x1000e484: add byte [ebx+0x5D5E30C4], al ; add esp, 0x0000041C ; ret  ;  (1 found)
0x1000e3b4: add byte [ebx+0x5D5E38C4], al ; add esp, 0x0000041C ; ret  ;  (1 found)
0x1000e32e: add byte [ebx+0x5D5E38C4], al ; add esp, 0x0000041C ; ret  ;  (1 found)
0x1000fafa: add byte [ebx+0x5E5F04C4], al ; add esp, 0x3C ; ret  ;  (1 found)
0x1000e434: add byte [ebx+0x5E5F18C4], al ; pop ebp ; add esp, 0x0000041C ; ret  ;  (1 found)
0x10006b58: add byte [ebx+0x5E5F18C4], al ; pop ebp ; pop ebx ; add esp, 0x18 ; ret  ;  (1 found)
0x10003a76: add byte [ebx+0x5E5F18C4], al ; pop ebp ; pop ebx ; ret  ;  (1 found)
0x10003c76: add byte [ebx+0x5E5F18C4], al ; pop ebp ; pop ebx ; ret  ;  (1 found)
0x10006358: add byte [ebx+0x5E5F18C4], al ; pop ebp ; pop ebx ; ret  ;  (1 found)
0x100064ac: add byte [ebx+0x5E5F18C4], al ; pop ebp ; pop ebx ; ret  ;  (1 found)
0x1000665d: add byte [ebx+0x5E5F18C4], al ; pop ebp ; pop ebx ; ret  ;  (1 found)
0x100020bc: add byte [ebx+0x5E5F18C4], al ; pop ebx ; ret  ;  (1 found)
0x10006f69: add byte [ebx+0x5E5F18C4], al ; pop ebx ; ret  ;  (1 found)
0x1000ee64: add byte [ebx+0x5E5F18C4], al ; pop ebx ; ret  ;  (1 found)
0x10003935: add byte [ebx+0x5E5F18C4], al ; ret  ;  (1 found)
0x100068ce: add byte [ebx+0x5E5F18C4], al ; ret  ;  (1 found)
0x100069ad: add byte [ebx+0x5E5F18C4], al ; ret  ;  (1 found)
0x1000d9f6: add byte [ebx+0x5E5F18C4], al ; ret  ;  (1 found)
0x1000483d: add byte [ebx+0x5E5F24C4], al ; pop ebp ; pop ebx ; add esp, 0x18 ; ret  ;  (1 found)
0x10005140: add byte [ebx+0x5E5F24C4], al ; pop ebp ; pop ebx ; pop ecx ; ret  ;  (1 found)
0x10004701: add byte [ebx+0x5E5F24C4], al ; pop ebp ; pop ebx ; pop ecx ; ret  ;  (1 found)
0x1000525e: add byte [ebx+0x5E5F24C4], al ; pop ebp ; pop ebx ; pop ecx ; ret  ;  (1 found)
0x1000139b: add byte [ebx+0x5E5F24C4], al ; pop ebp ; pop ebx ; ret  ;  (1 found)
0x10011773: add byte [ebx+0x5E5F24C4], al ; pop ebx ; add esp, 0x00000100 ; ret  ;  (1 found)
0x1000e916: add byte [ebx+0x5E5F24C4], al ; pop ebx ; ret  ;  (1 found)
0x100117f1: add byte [ebx+0x5E5F28C4], al ; pop ebx ; add esp, 0x00000100 ; ret  ;  (1 found)
0x10002088: add byte [ebx+0x5E5F30C4], al ; pop ebx ; ret  ;  (1 found)
0x10005e11: add byte [ebx+0x5E5FFFC8], al ; pop ebp ; pop ebx ; ret  ;  (1 found)
0x10012223: add byte [ebx+0x5E], bl ; pop edi ; retn 0x0010 ;  (1 found)
0x1000a56e: add byte [ebx+0x666A50C4], al ; call dword [0x1001312C] ;  (1 found)
0x10001b28: add byte [ebx+0x6A], dl ; add dword [edx+0x01], ebp ; push ebx ; call ebp ;  (1 found)
0x10006eed: add byte [ebx+0x6A], dl ; add dword [edx+0x01], ebp ; push ebx ; call edi ;  (1 found)
0x1000366e: add byte [ebx-0x0095D73C], al ; push ecx ; call dword [0x10013090] ;  (1 found)
0x10003abc: add byte [ebx-0x0095D73C], al ; push ecx ; call dword [0x10013090] ;  (1 found)
0x1000d94c: add byte [ebx-0x0095D73C], al ; push ecx ; call dword [0x10013090] ;  (1 found)
0x1000e0ac: add byte [ebx-0x0095D73C], al ; push ecx ; call dword [0x10013090] ;  (1 found)
0x1000f00c: add byte [ebx-0x017CE73C], al ; push dword [ebp+0x38] ; call dword [0x10013164] ;  (1 found)
0x10011796: add byte [ebx-0x077CF33C], al ; add dword [ebp+0x56], esi ; lea ecx, dword [esi-0x08] ; push ecx ; call dword [0x100130B4] ;  (1 found)
0x1000d130: add byte [ebx-0x12CCAE08], cl ; call esi ;  (1 found)
0x1000d795: add byte [ebx-0x12CCAE08], cl ; call esi ;  (1 found)
0x1000d7bb: add byte [ebx-0x12CCAE08], cl ; call esi ;  (1 found)
0x1000cea7: add byte [ebx-0x12CCAE28], cl ; call edi ;  (1 found)
0x1000f64b: add byte [ebx-0x377CE73C], al ; inc dword [ecx+0x000190C4] ; add bl, al ; push 0x1002FB60 ; call dword [0x10013028] ;  (1 found)
0x1000703b: add byte [ebx-0x3874D33C], al ; pop edi ; pop esi ; pop ebx ; ret  ;  (1 found)
0x10001704: add byte [ebx-0x3874DF3C], al ; pop edi ; pop esi ; add esp, 0x10 ; ret  ;  (1 found)
0x100016d2: add byte [ebx-0x3874DF3C], al ; pop edi ; pop esi ; add esp, 0x10 ; ret  ;  (1 found)
0x10011a5f: add byte [ebx-0x3974D33C], al ; pop esi ; add esp, 0x00000104 ; ret  ;  (1 found)
0x1000f044: add byte [ebx-0x3974DF3C], al ; pop edi ; pop esi ; ret  ;  (1 found)
0x1001014b: add byte [ebx-0x3974DF3C], al ; pop edi ; pop esi ; retn 0x000C ;  (1 found)
0x1000228d: add byte [ebx-0x3974DF3C], al ; pop esi ; ret  ;  (1 found)
0x10002232: add byte [ebx-0x3974DF3C], al ; pop esi ; ret  ;  (1 found)
0x10006704: add byte [ebx-0x3B7CCFBD], cl ; sbb byte [edx+0x00], ch ; push eax ; call dword [0x10013128] ;  (1 found)
0x1000da4d: add byte [ebx-0x3CA1E73C], al ; mov edx, dword [esi+0x30] ; push 0xFFFFFFFF ; push edx ; call dword [0x10013090] ;  (1 found)
0x1000196c: add byte [ebx-0x3FCCBF3C], al ; pop edi ; pop ebp ; add esp, 0x00000108 ; ret  ;  (1 found)
0x10011895: add byte [ebx-0x3FCCD73C], al ; pop edi ; pop esi ; add esp, 0x00000100 ; ret  ;  (1 found)
0x1000ff36: add byte [ebx-0x3FCCD73C], al ; pop edi ; pop esi ; ret  ;  (1 found)
0x100034f1: add byte [ebx-0x3FCCDF3C], al ; add esp, 0x00000414 ; ret  ;  (1 found)
0x100060b0: add byte [ebx-0x3FCCDF3C], al ; pop edi ; pop esi ; pop ebx ; ret  ;  (1 found)
0x10002162: add byte [ebx-0x3FCCDF3C], al ; pop esi ; ret  ;  (1 found)
0x1000e69d: add byte [ebx-0x3FCCDF3C], al ; ret  ;  (1 found)
0x1000f4ad: add byte [ebx-0x3FCCE73C], al ; pop edi ; pop esi ; add esp, 0x14 ; ret  ;  (1 found)
0x1000614d: add byte [ebx-0x3FCCE73C], al ; pop edi ; pop esi ; pop ebx ; ret  ;  (1 found)
0x100061e8: add byte [ebx-0x3FCCE73C], al ; pop edi ; pop esi ; pop ebx ; ret  ;  (1 found)
0x1000e8d8: add byte [ebx-0x3FCCE73C], al ; pop edi ; pop esi ; pop ebx ; ret  ;  (1 found)
0x1000e891: add byte [ebx-0x3FCCE73C], al ; pop edi ; pop esi ; pop ebx ; ret  ;  (1 found)
0x10003573: add byte [ebx-0x3FCCE73C], al ; pop esi ; pop ebp ; pop ebx ; ret  ;  (1 found)
0x10005d27: add byte [ebx-0x3FCCE73C], al ; pop esi ; ret  ;  (1 found)
0x1001008f: add byte [ebx-0x3FCCF33C], al ; pop esi ; ret  ;  (1 found)
0x100061aa: add byte [ebx-0x5A0CAD04], cl ; movsw  ; call dword [ebx+0x3E] ;  (1 found)
0x10011aeb: add byte [ebx-0x5B0CFC1F], al ; pop esi ; pop edi ; add esp, 0x00000104 ; ret  ;  (1 found)
0x1000a95a: add byte [ebx-0x74AACBAD], cl ; sub eax, 0x10013128 ; push edi ; push edx ; call ebp ;  (1 found)
0x10004344: add byte [ebx-0x74B7DBB4], cl ; ret  ;  (1 found)
0x10004457: add byte [ebx-0x74E7DB94], cl ; inc ebp ; adc al, 0x50 ; call dword [0x10013128] ;  (1 found)
0x10001c3c: add byte [ebx-0x74EFDBBC], cl ; xor byte [eax+0x03], 0x00000000 ; add byte [ebx], bh ; ret  ;  (1 found)
0x1000f276: add byte [ebx-0x7976FB3C], al ; mov eax, 0x52000004 ; call dword [0x1001312C] ;  (1 found)
0x10005b8e: add byte [ebx-0x7AD7DBBC], cl ; ror byte [edi], 0xFFFFFF84 ; retn 0x0000 ;  (1 found)
0x100066a7: add byte [ebx-0x7CC3DBA4], cl ; les ebp,  [eax] ; mov di, word [ebx+0x02] ; push 0x0000FFE2 ; call dword [0x1001312C] ;  (1 found)
0x10010109: add byte [ebx-0x7CCBDBBC], cl ; les ebp,  [eax] ; push edi ; push eax ; call dword [0x1001302C] ;  (1 found)
0x10001306: add byte [ebx], 0x00000000 ; add byte [ebp+0x500374C0], al ; call ebx ;  (1 found)
0x10006919: add byte [ebx], 0x00000000 ; add byte [ebx+0x0130903D], cl ; adc byte [ebx-0x0095D73C], al ; push ecx ; call edi ;  (1 found)
0x100068a2: add byte [ebx], 0x00000000 ; add byte [edx+0x00], ch ; push 0x00000001 ; push eax ; call edi ;  (1 found)
0x1000547b: add byte [ebx], al ; out dx, eax ; inc ecx ; push ecx ; call ebx ;  (1 found)
0x1000a0b3: add byte [ebx], al ; retn 0x656A ;  (1 found)
0x10001c46: add byte [ebx], bh ; ret  ;  (1 found)
0x10001c6b: add byte [ebx], bh ; ret  ;  (1 found)
0x10003ad4: add byte [ebx], bh ; ret  ;  (1 found)
0x1000bdc1: add byte [ebx], bh ; ret  ;  (1 found)
0x1000a629: add byte [ebx], bh ; ret  ;  (1 found)
0x1000d146: add byte [ebx], cl ; cli  ; push ebp ; mov dword [esp+0x54], edi ; call esi ;  (1 found)
0x1000ca60: add byte [ebx], dh ; call dword [edx-0x77] ;  (1 found)
0x1000c850: add byte [ebx], dh ; call dword [edx-0x77] ;  (1 found)
0x1000d6ad: add byte [ecx+0x0000F0C4], al ; add byte [edx+0x67], ch ; call dword [0x1001312C] ;  (1 found)
0x10001c36: add byte [ecx+0x00037C9A], cl ; add byte [ebx-0x74EFDBBC], cl ; xor byte [eax+0x03], 0x00000000 ; add byte [ebx], bh ; ret  ;  (1 found)
0x10006ee7: add byte [ecx+0x0003A89E], cl ; add byte [ebx+0x6A], dl ; add dword [edx+0x01], ebp ; push ebx ; call edi ;  (1 found)
0x1000674c: add byte [ecx+0x00063896], cl ; add bl, ch ; push edi ; call dword [0x10013130] ;  (1 found)
0x1000f592: add byte [ecx+0x0006D8BE], cl ; add byte [edi+0x6A], dl ; add dword [edx+0x01], ebp ; push edi ; call dword [0x10013088] ;  (1 found)
0x1000d7e7: add byte [ecx+0x00882484], cl ; add byte [eax], al ; push ecx ; call esi ;  (1 found)
0x1000d7d7: add byte [ecx+0x008824AC], cl ; add byte [eax], al ; call esi ;  (1 found)
0x1000d495: add byte [ecx+0x035C2444], cl ; retn 0x5489 ;  (1 found)
0x100011c1: add byte [ecx+0x1001F700], ah ; push 0x00000000 ; push 0x00000001 ; push eax ; call dword [0x10013094] ;  (1 found)
0x10001d00: add byte [ecx+0x1001F700], ah ; push ebx ; push 0x00000001 ; push eax ; call dword [0x10013094] ;  (1 found)
0x10004e80: add byte [ecx+0x4C8B0C41], cl ; and al, 0x28 ; mov dword [edi+0x20], ecx ; call dword [0x10013134] ;  (1 found)
0x1000cc89: add byte [ecx+0x5010246C], cl ; xor ebp, ebp ; call esi ;  (1 found)
0x1000d7ad: add byte [ecx+0x507C246C], cl ; call esi ;  (1 found)
0x1000d40d: add byte [ecx+0x51302444], cl ; call dword [0x1001312C] ;  (1 found)
0x1000cc79: add byte [ecx+0x52542444], cl ; call esi ;  (1 found)
0x1001057c: add byte [ecx+0x52], dl ; call dword [0x100130E0] ;  (1 found)
0x100108cb: add byte [ecx+0x52], dl ; push eax ; call dword [0x10013120] ;  (1 found)
0x1000f11e: add byte [ecx+0x52], dl ; push eax ; call edi ;  (1 found)
0x1000f14d: add byte [ecx+0x52], dl ; push eax ; call edi ;  (1 found)
0x10011523: add byte [ecx+0x52], dl ; push eax ; push 0x00000000 ; call dword [0x10013068] ;  (1 found)
0x1000b709: add byte [ecx+0x57502444], cl ; call ebx ;  (1 found)
0x10012378: add byte [ecx+0x5E], bl ; push 0x00000001 ; pop eax ; retn 0x000C ;  (1 found)
0x1000f563: add byte [ecx+0x68], dl ; test byte [ecx], 0x00000000 ; add byte [eax-0x5C], ch ; retn 0x1001 ;  (1 found)
0x10011ba0: add byte [ecx+0x6A], dl ; add byte [edx+0x00], ch ; push 0x00008003 ; push edx ; call dword [0x10013004] ;  (1 found)
0x10010bdb: add byte [ecx+eax], dl ; add byte [eax], al ; push ecx ; call ebx ;  (1 found)
0x10005299: add byte [ecx-0x00A3DBBC], cl ; shr dword [edx+0x01], cl ; mov dword [esp+0x00000080], eax ; call ebx ;  (1 found)
0x1000d48e: add byte [ecx-0x74A7DBBC], cl ; inc ebp ; add byte [ecx+0x035C2444], cl ; retn 0x5489 ;  (1 found)
0x1000d11b: add byte [ecx-0x76BBDBAC], cl ; insb  ; and al, 0x48 ; mov dword [esp+0x4C], edi ; call esi ;  (1 found)
0x1000c48a: add byte [ecx-0x76BBDBB4], cl ; insb  ; and al, 0x48 ; mov dword [esp+0x4C], ebx ; call edi ;  (1 found)
0x1000bfca: add byte [ecx-0x76BBDBB4], cl ; insb  ; and al, 0x48 ; mov dword [esp+0x4C], ebx ; call esi ;  (1 found)
0x1000d3c0: add byte [ecx-0x76E7DBB4], cl ; push esp ; and al, 0x1C ; mov dword [esp+0x20], edi ; call esi ;  (1 found)
0x1000a112: add byte [ecx-0x77], dl ; inc esp ; and al, 0x50 ; call edi ;  (1 found)
0x1000cc0a: add byte [ecx], al ; add byte [eax], al ; add esp, 0x50 ; push 0x00000005 ; call dword [0x1001312C] ;  (1 found)
0x10005296: add byte [ecx], al ; add byte [eax], al ; mov dword [esp+0x5C], eax ; call ebx ;  (1 found)
0x1001167f: add byte [ecx], al ; add byte [eax], al ; ret  ;  (1 found)
0x100116e5: add byte [ecx], al ; add byte [eax], al ; ret  ;  (1 found)
0x1001177c: add byte [ecx], al ; add byte [eax], al ; ret  ;  (1 found)
0x1001189f: add byte [ecx], al ; add byte [eax], al ; ret  ;  (1 found)
0x100117fa: add byte [ecx], al ; add byte [eax], al ; ret  ;  (1 found)
0x10011919: add byte [ecx], al ; add byte [eax], al ; ret  ;  (1 found)
0x10011927: add byte [ecx], al ; add byte [eax], al ; ret  ;  (1 found)
0x100020ba: add byte [ecx], al ; add byte [ebx+0x5E5F18C4], al ; pop ebx ; ret  ;  (1 found)
0x10002086: add byte [ecx], al ; add byte [ebx+0x5E5F30C4], al ; pop ebx ; ret  ;  (1 found)
0x100103f1: add byte [ecx], dh ; add dword [eax], edx ; add esp, 0x0C ; ret  ;  (1 found)
0x10011f6d: add byte [edi+0x50], dl ; push esi ; call dword [0x10013158] ;  (1 found)
0x1000efe0: add byte [edi+0x52], dl ; push esi ; call dword [0x10013158] ;  (1 found)
0x10010cd1: add byte [edi+0x5E], bl ; mov eax, 0x00000001 ; pop ebx ; add esp, 0x00000230 ; ret  ;  (1 found)
0x10005393: add byte [edi+0x5E], bl ; pop ebp ; pop ebx ; add esp, 0x00000094 ; ret  ;  (1 found)
0x10005bc3: add byte [edi+0x5E], bl ; pop ebp ; pop ebx ; add esp, 0x00000094 ; ret  ;  (1 found)
0x1000eb2b: add byte [edi+0x5E], bl ; pop ebp ; pop ebx ; add esp, 0x28 ; ret  ;  (1 found)
0x10011371: add byte [edi+0x5E], bl ; pop ebx ; mov esp, ebp ; pop ebp ; ret  ;  (1 found)
0x100113da: add byte [edi+0x5E], bl ; pop ebx ; mov esp, ebp ; pop ebp ; ret  ;  (1 found)
0x10010b6f: add byte [edi+0x5E], bl ; pop ebx ; mov esp, ebp ; pop ebp ; ret  ;  (1 found)
0x100114d0: add byte [edi+0x5E], bl ; pop ebx ; mov esp, ebp ; pop ebp ; retn 0x0004 ;  (1 found)
0x100067db: add byte [edi+0x5E], bl ; pop ebx ; ret  ;  (1 found)
0x1000e558: add byte [edi+0x5E], bl ; ret  ;  (1 found)
0x10011b48: add byte [edi+0x5E], bl ; ret  ;  (1 found)
0x10011985: add byte [edi+0x68], dl ; aam 0xF6 ; add dword [eax], edx ; call dword [0x100130A8] ;  (1 found)
0x1000f598: add byte [edi+0x6A], dl ; add dword [edx+0x01], ebp ; push edi ; call dword [0x10013088] ;  (1 found)
0x1000359d: add byte [edi+0x6A], dl ; call dword [eax-0x01] ;  (1 found)
0x100119da: add byte [edx+0x00], ch ; call dword [0x1001311C] ;  (1 found)
0x10010963: add byte [edx+0x00], ch ; call dword [0x1001311C] ;  (1 found)
0x1000f2b9: add byte [edx+0x00], ch ; call dword [0x10013164] ;  (1 found)
0x1001208e: add byte [edx+0x00], ch ; mov dword [esi+0x08], 0x1000EED0 ; mov dword [esi+0x34], eax ; call dword [0x10013088] ;  (1 found)
0x10006dd6: add byte [edx+0x00], ch ; push 0x00000001 ; push eax ; call dword [0x10013094] ;  (1 found)
0x1000f245: add byte [edx+0x00], ch ; push 0x00000001 ; push eax ; call dword [0x10013094] ;  (1 found)
0x1000f35b: add byte [edx+0x00], ch ; push 0x00000001 ; push eax ; call dword [0x10013094] ;  (1 found)
0x100038ff: add byte [edx+0x00], ch ; push 0x00000001 ; push eax ; call edi ;  (1 found)
0x100068a5: add byte [edx+0x00], ch ; push 0x00000001 ; push eax ; call edi ;  (1 found)
0x10003706: add byte [edx+0x00], ch ; push 0x00000001 ; push eax ; mov dword [ebp+0x000003A4], ebx ; call dword [0x10013094] ;  (1 found)
0x10006d3f: add byte [edx+0x00], ch ; push 0x00000001 ; push eax ; mov dword [esi+0x000003A8], 0x00000000 ; call dword [0x10013094] ;  (1 found)
0x1000f457: add byte [edx+0x00], ch ; push 0x00000001 ; push ecx ; call dword [0x10013094] ;  (1 found)
0x10003a4d: add byte [edx+0x00], ch ; push 0x00000001 ; push ecx ; call edi ;  (1 found)
0x1000390c: add byte [edx+0x00], ch ; push 0x00000001 ; push ecx ; call edi ;  (1 found)
0x10006e50: add byte [edx+0x00], ch ; push 0x00000001 ; push ecx ; call edi ;  (1 found)
0x1000169c: add byte [edx+0x00], ch ; push 0x00000001 ; push edx ; call dword [0x10013094] ;  (1 found)
0x10001788: add byte [edx+0x00], ch ; push 0x00000001 ; push edx ; call dword [0x10013094] ;  (1 found)
0x10003b21: add byte [edx+0x00], ch ; push 0x00000001 ; push edx ; call dword [0x10013094] ;  (1 found)
0x1000d9ca: add byte [edx+0x00], ch ; push 0x00000001 ; push edx ; call dword [0x10013094] ;  (1 found)
0x1000e126: add byte [edx+0x00], ch ; push 0x00000001 ; push edx ; call dword [0x10013094] ;  (1 found)
0x1000e204: add byte [edx+0x00], ch ; push 0x00000001 ; push edx ; call dword [0x10013094] ;  (1 found)
0x10006985: add byte [edx+0x00], ch ; push 0x00000001 ; push edx ; call edi ;  (1 found)
0x1000ee31: add byte [edx+0x00], ch ; push 0x00000001 ; push edx ; mov dword [edi+0x000006E0], 0x00000000 ; call dword [0x10013094] ;  (1 found)
0x10011ba3: add byte [edx+0x00], ch ; push 0x00008003 ; push edx ; call dword [0x10013004] ;  (1 found)
0x100119d3: add byte [edx+0x00], ch ; push 0x00008023 ; push 0x00000000 ; call dword [0x1001311C] ;  (1 found)
0x1001095c: add byte [edx+0x00], ch ; push 0x00008023 ; push 0x00000000 ; call dword [0x1001311C] ;  (1 found)
0x10011b7f: add byte [edx+0x00], ch ; push eax ; call dword [0x10013000] ;  (1 found)
0x10011bcd: add byte [edx+0x00], ch ; push eax ; push ecx ; push edx ; call dword [0x10013008] ;  (1 found)
0x10003e78: add byte [edx+0x01], ch ; call ebp ;  (1 found)
0x100012e6: add byte [edx+0x01], ch ; mov edx, dword [ecx+0x000005D4] ; push edx ; call dword [0x10013094] ;  (1 found)
0x10011c27: add byte [edx+0x01], ch ; push 0x00000000 ; push eax ; call dword [0x10013010] ;  (1 found)
0x10001f15: add byte [edx+0x01], ch ; push 0x00000001 ; push 0x00000000 ; call dword [0x10013088] ;  (1 found)
0x1000dea5: add byte [edx+0x01], ch ; push 0x00000001 ; push 0x00000000 ; call dword [0x10013088] ;  (1 found)
0x10011ed7: add byte [edx+0x01], ch ; push 0x00000002 ; call dword [0x10013168] ;  (1 found)
0x100011c8: add byte [edx+0x01], ch ; push eax ; call dword [0x10013094] ;  (1 found)
0x10006aff: add byte [edx+0x01], ch ; push eax ; call dword [0x10013094] ;  (1 found)
0x10006dd8: add byte [edx+0x01], ch ; push eax ; call dword [0x10013094] ;  (1 found)
0x1000f247: add byte [edx+0x01], ch ; push eax ; call dword [0x10013094] ;  (1 found)
0x1000f35d: add byte [edx+0x01], ch ; push eax ; call dword [0x10013094] ;  (1 found)
0x10003901: add byte [edx+0x01], ch ; push eax ; call edi ;  (1 found)
0x100068a7: add byte [edx+0x01], ch ; push eax ; call edi ;  (1 found)
0x10006e45: add byte [edx+0x01], ch ; push eax ; call edi ;  (1 found)
0x10003708: add byte [edx+0x01], ch ; push eax ; mov dword [ebp+0x000003A4], ebx ; call dword [0x10013094] ;  (1 found)
0x10006d41: add byte [edx+0x01], ch ; push eax ; mov dword [esi+0x000003A8], 0x00000000 ; call dword [0x10013094] ;  (1 found)
0x10003a3b: add byte [edx+0x01], ch ; push eax ; mov dword [esi+0x40], 0x00000000 ; call edi ;  (1 found)
0x1000eef4: add byte [edx+0x01], ch ; push ecx ; call dword [0x10013094] ;  (1 found)
0x1000f459: add byte [edx+0x01], ch ; push ecx ; call dword [0x10013094] ;  (1 found)
0x10003a4f: add byte [edx+0x01], ch ; push ecx ; call edi ;  (1 found)
0x1000390e: add byte [edx+0x01], ch ; push ecx ; call edi ;  (1 found)
0x10006e52: add byte [edx+0x01], ch ; push ecx ; call edi ;  (1 found)
0x1000119e: add byte [edx+0x01], ch ; push edx ; call dword [0x10013094] ;  (1 found)
0x1000169e: add byte [edx+0x01], ch ; push edx ; call dword [0x10013094] ;  (1 found)
0x1000178a: add byte [edx+0x01], ch ; push edx ; call dword [0x10013094] ;  (1 found)
0x10003b23: add byte [edx+0x01], ch ; push edx ; call dword [0x10013094] ;  (1 found)
0x1000d9cc: add byte [edx+0x01], ch ; push edx ; call dword [0x10013094] ;  (1 found)
0x1000e128: add byte [edx+0x01], ch ; push edx ; call dword [0x10013094] ;  (1 found)
0x1000e206: add byte [edx+0x01], ch ; push edx ; call dword [0x10013094] ;  (1 found)
0x10006987: add byte [edx+0x01], ch ; push edx ; call edi ;  (1 found)
0x1000ee33: add byte [edx+0x01], ch ; push edx ; mov dword [edi+0x000006E0], 0x00000000 ; call dword [0x10013094] ;  (1 found)
0x10003829: add byte [edx+0x01], ch ; push edx ; mov dword [esi+0x60], 0x00000001 ; call dword [0x10013094] ;  (1 found)
0x10011fe7: add byte [edx+0x02], ch ; push esi ; call dword [0x1001313C] ;  (1 found)
0x1000d0cb: add byte [edx+0x03], ch ; call dword [0x1001312C] ;  (1 found)
0x1000d364: add byte [edx+0x04], ch ; call dword [0x1001312C] ;  (1 found)
0x1000c7fd: add byte [edx+0x07], ch ; call dword [0x1001312C] ;  (1 found)
0x1000ca0d: add byte [edx+0x09], ch ; call dword [0x1001312C] ;  (1 found)
0x10010e2e: add byte [edx+0x50], dl ; lea edx, dword [esp+0x14] ; push ecx ; push edx ; call dword [0x10013050] ;  (1 found)
0x100032c1: add byte [edx+0x51], dl ; call esi ;  (1 found)
0x1000d6b3: add byte [edx+0x67], ch ; call dword [0x1001312C] ;  (1 found)
0x10001758: add byte [edx-0x01], ch ; push ecx ; call dword [0x10013090] ;  (1 found)
0x100038a6: add byte [edx-0x01], ch ; push ecx ; call dword [0x10013090] ;  (1 found)
0x10006bdc: add byte [edx-0x01], ch ; push ecx ; call dword [0x10013090] ;  (1 found)
0x10006d88: add byte [edx-0x01], ch ; push ecx ; call dword [0x10013090] ;  (1 found)
0x10006e0c: add byte [edx-0x01], ch ; push ecx ; call dword [0x10013090] ;  (1 found)
0x1000f1da: add byte [edx-0x01], ch ; push ecx ; call dword [0x10013090] ;  (1 found)
0x1000ed33: add byte [edx-0x01], ch ; push ecx ; call ebx ;  (1 found)
0x100015db: add byte [edx-0x01], ch ; push edx ; call dword [0x10013090] ;  (1 found)
0x10001c95: add byte [edx-0x01], ch ; push edx ; call dword [0x10013090] ;  (1 found)
0x10003992: add byte [edx-0x01], ch ; push edx ; call edi ;  (1 found)
0x10010832: add byte [edx-0x01], dl ; adc eax, 0x10013044 ; add esp, 0x00001000 ; ret  ;  (1 found)
0x10010505: add byte [edx-0x01], dl ; adc eax, 0x100130E4 ; add esp, 0x04 ; add esp, 0x00001000 ; ret  ;  (1 found)
0x10001672: add byte [edx-0x01], dl ; ror dword [ecx+0x0006E886], cl ; add byte [ebx+0x50142444], cl ; call ebx ;  (1 found)
0x1000f0ee: add byte [edx-0x75], al ; retn 0x9689 ;  (1 found)
0x10001c8d: add byte [esi+0x1C], bh ; mov edx, dword [eax+0x00000384] ; push 0xFFFFFFFF ; push edx ; call dword [0x10013090] ;  (1 found)
0x100109e6: add byte [esi+0x50], dl ; call dword [0x100130CC] ;  (1 found)
0x10011a27: add byte [esi+0x52], dl ; call dword [0x100130BC] ;  (1 found)
0x1000ea12: add byte [esi+0x5D], bl ; ret  ;  (1 found)
0x10011f12: add byte [esi-0x01], dl ; adc eax, 0x1001315C ; push 0x7F000001 ; mov word [esp+0x24], 0x0002 ; call dword [0x10013128] ;  (1 found)
0x1001038b: add byte [esi-0x3D], bl ; push esi ; call dword [0x10013034] ;  (1 found)
0x10010620: add byte [esi-0x3D], bl ; push esi ; call dword [0x10013034] ;  (1 found)
0x1000b8e8: add byte [esi-0x77], ah ; inc esp ; and al, 0x10 ; push ecx ; call edi ;  (1 found)
0x1000b8f7: add byte [esi-0x77], ah ; inc esp ; and al, 0x12 ; push edx ; call edi ;  (1 found)
0x1000a17b: add byte [esi-0x77], ah ; inc esp ; and al, 0x66 ; push edx ; call edi ;  (1 found)
0x10005450: add byte [esi-0x7D], ah ; retn 0x5220 ;  (1 found)
0x100107b1: add byte [esi-0x7F], bl ; les eax,  [eax+edx] ; add byte [eax], al ; ret  ;  (1 found)
0x10001ca9: add byte [esp+0x53], bh ; push 0x00000001 ; push 0x00000001 ; push ebx ; call ebp ;  (1 found)
0x10003a0d: add ch, byte [edx+0x03] ; push eax ; push esi ; call ecx ;  (1 found)
0x100039d1: add ch, byte [edx+0x03] ; push ebx ; push esi ; call eax ;  (1 found)
0x10005457: add ch, byte [edx+0x20] ; call ebx ;  (1 found)
0x10003298: add cl, byte [ebp+0x02202484] ; add byte [eax], al ; push 0x1001ACA4 ; push eax ; call esi ;  (1 found)
0x10001c4a: add cl, byte [ebx+0x505153C8] ; push ebx ; call ebp ;  (1 found)
0x10001c6f: add cl, byte [ebx+0x505153C8] ; push ebx ; call ebp ;  (1 found)
0x10010756: add dh, byte [ebx] ; rol byte [ecx+0x001004C4], 0x00000000 ; ret  ;  (1 found)
0x1001242f: add dl, byte [eax] ; add byte [ebp+0x0A], dh ; push dword [esp+0x04] ; call dword [0x10013098] ;  (1 found)
0x10012376: add dl, byte [eax] ; add byte [ecx+0x5E], bl ; push 0x00000001 ; pop eax ; retn 0x000C ;  (1 found)
0x100100bf: add dl, byte [eax] ; add esp, 0x08 ; xor eax, eax ; add esp, 0x0000010C ; ret  ;  (1 found)
0x1000f65c: add dl, byte [eax] ; call dword [0x10013028] ;  (1 found)
0x100100b3: add dl, byte [eax] ; lea eax, dword [esp+0x00] ; push eax ; push ecx ; call dword [0x1002FB84] ;  (1 found)
0x1000fecc: add dl, byte [eax] ; mov eax, dword [0x1002FD8C] ; push edi ; push eax ; call dword [0x1002FB9C] ;  (1 found)
0x1001005a: add dl, byte [eax] ; mov ecx, dword [esi] ; push ecx ; push edx ; call dword [0x1002FBB0] ;  (1 found)
0x1001006c: add dl, byte [eax] ; push eax ; push ecx ; call dword [0x1002FBA4] ;  (1 found)
0x1000fee2: add dl, byte [eax] ; push eax ; push ecx ; call dword [0x1002FBB8] ;  (1 found)
0x1000ff97: add dl, byte [eax] ; push eax ; push ecx ; push edx ; call dword [0x1002FBC4] ;  (1 found)
0x1000feb1: add dl, byte [eax] ; push ecx ; call dword [0x1002FBA0] ;  (1 found)
0x1000fff4: add dl, byte [eax] ; push ecx ; push edx ; push eax ; call dword [0x1002FBC8] ;  (1 found)
0x1000fed1: add dl, byte [eax] ; push edi ; push eax ; call dword [0x1002FB9C] ;  (1 found)
0x1000fec5: add dl, byte [eax] ; push edx ; call dword [0x1002FBAC] ;  (1 found)
0x10010017: add dl, byte [eax] ; push edx ; push eax ; push ecx ; call dword [0x1002FBCC] ;  (1 found)
0x10011fe9: add dl, byte [esi-0x01] ; adc eax, 0x1001313C ; push esi ; call dword [0x10013138] ;  (1 found)
0x10012006: add dl, byte [esi-0x01] ; adc eax, 0x1001313C ; push esi ; call dword [0x10013138] ;  (1 found)
0x10001a26: add dword [eax+0x51], edx ; call dword [0x1001310C] ;  (1 found)
0x10011ec9: add dword [eax-0x00000007], edi ; add esp, 0x00001128 ; ret  ;  (1 found)
0x10011281: add dword [eax-0x01], ebp ; nop dword [eax] ; call dword [0x10013058] ;  (1 found)
0x10010e6c: add dword [eax-0x01], ebp ; nop dword [eax] ; call dword [0x10013058] ;  (1 found)
0x10001305: add dword [eax-0x7AFFFFFD], 0x500374C0 ; call ebx ;  (1 found)
0x1000f655: add dword [eax], eax ; add bl, al ; push 0x1002FB60 ; call dword [0x10013028] ;  (1 found)
0x10010348: add dword [eax], eax ; add byte [eax+0x00000001], bh ; pop esi ; ret  ;  (1 found)
0x1000f2ca: add dword [eax], eax ; add byte [eax+0x44], ch ; retn 0x1001 ;  (1 found)
0x1000f215: add dword [eax], eax ; add byte [eax+0x60], ch ; retn 0x1001 ;  (1 found)
0x1000f567: add dword [eax], eax ; add byte [eax-0x5C], ch ; retn 0x1001 ;  (1 found)
0x10010993: add dword [eax], eax ; add byte [eax], al ; add esp, 0x00000118 ; ret  ;  (1 found)
0x10011c44: add dword [eax], eax ; add byte [eax], al ; add esp, 0x0C ; ret  ;  (1 found)
0x10003830: add dword [eax], eax ; add byte [eax], al ; call dword [0x10013094] ;  (1 found)
0x10011fa2: add dword [eax], eax ; add byte [eax], al ; call dword [0x10013160] ;  (1 found)
0x100114a2: add dword [eax], eax ; add byte [eax], al ; mov edx, dword [edi+0x04] ; push edx ; call dword [ebp-0x1C] ;  (1 found)
0x10010cd5: add dword [eax], eax ; add byte [eax], al ; pop ebx ; add esp, 0x00000230 ; ret  ;  (1 found)
0x100106a9: add dword [eax], eax ; add byte [eax], al ; pop ebx ; add esp, 0x00000800 ; ret  ;  (1 found)
0x10005eb8: add dword [eax], eax ; add byte [eax], al ; pop ebx ; ret  ;  (1 found)
0x10005fe6: add dword [eax], eax ; add byte [eax], al ; pop ebx ; ret  ;  (1 found)
0x10006061: add dword [eax], eax ; add byte [eax], al ; pop ebx ; ret  ;  (1 found)
0x1000e555: add dword [eax], eax ; add byte [eax], al ; pop edi ; pop esi ; ret  ;  (1 found)
0x10011b45: add dword [eax], eax ; add byte [eax], al ; pop edi ; pop esi ; ret  ;  (1 found)
0x10010dbd: add dword [eax], eax ; add byte [eax], al ; pop esi ; add esp, 0x0000009C ; ret  ;  (1 found)
0x10011920: add dword [eax], eax ; add byte [eax], al ; pop esi ; add esp, 0x00000100 ; ret  ;  (1 found)
0x100107ae: add dword [eax], eax ; add byte [eax], al ; pop esi ; add esp, 0x00001004 ; ret  ;  (1 found)
0x10010a42: add dword [eax], eax ; add byte [eax], al ; pop esi ; add esp, 0x0C ; ret  ;  (1 found)
0x1000ea0f: add dword [eax], eax ; add byte [eax], al ; pop esi ; pop ebp ; ret  ;  (1 found)
0x10011414: add dword [eax], eax ; add byte [eax], al ; pop esi ; ret  ;  (1 found)
0x1001034c: add dword [eax], eax ; add byte [eax], al ; pop esi ; ret  ;  (1 found)
0x10010388: add dword [eax], eax ; add byte [eax], al ; pop esi ; ret  ;  (1 found)
0x100105ee: add dword [eax], eax ; add byte [eax], al ; pop esi ; ret  ;  (1 found)
0x1001061d: add dword [eax], eax ; add byte [eax], al ; pop esi ; ret  ;  (1 found)
0x100109d0: add dword [eax], eax ; add byte [eax], al ; pop esi ; ret  ;  (1 found)
0x1000e672: add dword [eax], eax ; add byte [eax], al ; ret  ;  (1 found)
0x1001137a: add dword [eax], eax ; add byte [eax], al ; ret  ;  (1 found)
0x1001139a: add dword [eax], eax ; add byte [eax], al ; ret  ;  (1 found)
0x100114e7: add dword [eax], eax ; add byte [eax], al ; ret  ;  (1 found)
0x10010b39: add dword [eax], eax ; add byte [eax], al ; ret  ;  (1 found)
0x1000edc2: add dword [eax], eax ; add byte [ebp+0x07], dh ; push 0xFFFFFFFF ; push esi ; call ebx ;  (1 found)
0x1000ef81: add dword [eax], eax ; add byte [ebp+0x07], dh ; push 0xFFFFFFFF ; push esi ; call edi ;  (1 found)
0x1000f613: add dword [eax], eax ; add byte [ebp+0x50002444], cl ; push 0x00000101 ; call dword [0x10013144] ;  (1 found)
0x1000fd90: add dword [eax], eax ; add byte [ebp+0x5018244C], cl ; push ecx ; call dword [0x1002FB6C] ;  (1 found)
0x1000cc0b: add dword [eax], eax ; add byte [ebx+0x056A50C4], al ; call dword [0x1001312C] ;  (1 found)
0x1000baa5: add dword [eax], eax ; add byte [ebx+0x0A6A50C4], al ; call dword [0x1001312C] ;  (1 found)
0x1000bcfb: add dword [eax], eax ; add byte [ebx+0x0D6A50C4], al ; call dword [0x1001312C] ;  (1 found)
0x1000c205: add dword [eax], eax ; add byte [ebx+0x0E6A50C4], al ; call dword [0x1001312C] ;  (1 found)
0x1000bf75: add dword [eax], eax ; add byte [ebx+0x0F6A50C4], al ; call dword [0x1001312C] ;  (1 found)
0x1000ce2b: add dword [eax], eax ; add byte [ebx+0x106A50C4], al ; call dword [0x1001312C] ;  (1 found)
0x1000a56c: add dword [eax], eax ; add byte [ebx+0x666A50C4], al ; call dword [0x1001312C] ;  (1 found)
0x1000d793: add dword [eax], eax ; add byte [ebx-0x12CCAE08], cl ; call esi ;  (1 found)
0x1000d7b9: add dword [eax], eax ; add byte [ebx-0x12CCAE08], cl ; call esi ;  (1 found)
0x10004455: add dword [eax], eax ; add byte [ebx-0x74E7DB94], cl ; inc ebp ; adc al, 0x50 ; call dword [0x10013128] ;  (1 found)
0x1000d6ab: add dword [eax], eax ; add byte [ecx+0x0000F0C4], al ; add byte [edx+0x67], ch ; call dword [0x1001312C] ;  (1 found)
0x1000d7e5: add dword [eax], eax ; add byte [ecx+0x00882484], cl ; add byte [eax], al ; push ecx ; call esi ;  (1 found)
0x1000d7ab: add dword [eax], eax ; add byte [ecx+0x507C246C], cl ; call esi ;  (1 found)
0x1000f561: add dword [eax], eax ; add byte [ecx+0x68], dl ; test byte [ecx], 0x00000000 ; add byte [eax-0x5C], ch ; retn 0x1001 ;  (1 found)
0x10010bd9: add dword [eax], eax ; add byte [ecx+eax], dl ; add byte [eax], al ; push ecx ; call ebx ;  (1 found)
0x10005297: add dword [eax], eax ; add byte [ecx-0x00A3DBBC], cl ; shr dword [edx+0x01], cl ; mov dword [esp+0x00000080], eax ; call ebx ;  (1 found)
0x10011f6b: add dword [eax], eax ; add byte [edi+0x50], dl ; push esi ; call dword [0x10013158] ;  (1 found)
0x10011983: add dword [eax], eax ; add byte [edi+0x68], dl ; aam 0xF6 ; add dword [eax], edx ; call dword [0x100130A8] ;  (1 found)
0x10001fd1: add dword [eax], eax ; add esp, 0x18 ; pop esi ; pop ecx ; ret  ;  (1 found)
0x100011f2: add dword [eax], eax ; add esp, 0x18 ; pop esi ; ret  ;  (1 found)
0x100010aa: add dword [eax], eax ; add esp, 0x18 ; pop esi ; ret  ;  (1 found)
0x10001551: add dword [eax], eax ; add esp, 0x18 ; pop esi ; ret  ;  (1 found)
0x10001446: add dword [eax], eax ; add esp, 0x18 ; pop esi ; ret  ;  (1 found)
0x1000140e: add dword [eax], eax ; add esp, 0x18 ; pop esi ; ret  ;  (1 found)
0x100017b3: add dword [eax], eax ; add esp, 0x18 ; pop esi ; ret  ;  (1 found)
0x10001f47: add dword [eax], eax ; add esp, 0x18 ; ret  ;  (1 found)
0x100018b9: add dword [eax], eax ; add esp, 0x1C ; pop esi ; ret  ;  (1 found)
0x1000107d: add dword [eax], eax ; add esp, 0x30 ; pop esi ; ret  ;  (1 found)
0x1000123a: add dword [eax], eax ; add esp, 0x30 ; pop esi ; ret  ;  (1 found)
0x1000188d: add dword [eax], eax ; add esp, 0x30 ; pop esi ; ret  ;  (1 found)
0x100017fc: add dword [eax], eax ; add esp, 0x30 ; pop esi ; ret  ;  (1 found)
0x10001dec: add dword [eax], eax ; add esp, 0x30 ; ret  ;  (1 found)
0x100105e5: add dword [eax], eax ; call dword [0x10013034] ;  (1 found)
0x1000231e: add dword [eax], edx ; add byte [eax], al ; add byte [eax], al ; ret  ;  (1 found)
0x10010838: add dword [eax], edx ; add esp, 0x00001000 ; ret  ;  (1 found)
0x10010e3b: add dword [eax], edx ; add esp, 0x00001000 ; ret  ;  (1 found)
0x1001050b: add dword [eax], edx ; add esp, 0x04 ; add esp, 0x00001000 ; ret  ;  (1 found)
0x100105b9: add dword [eax], edx ; add esp, 0x04 ; ret  ;  (1 found)
0x10010583: add dword [eax], edx ; add esp, 0x08 ; add esp, 0x00002000 ; ret  ;  (1 found)
0x1001140e: add dword [eax], edx ; add esp, 0x0C ; mov eax, 0x00000001 ; pop esi ; ret  ;  (1 found)
0x100103f3: add dword [eax], edx ; add esp, 0x0C ; ret  ;  (1 found)
0x100104a3: add dword [eax], edx ; add esp, 0x0C ; ret  ;  (1 found)
0x100105a3: add dword [eax], edx ; add esp, 0x0C ; ret  ;  (1 found)
0x100103d8: add dword [eax], edx ; add esp, 0x10 ; ret  ;  (1 found)
0x100104c8: add dword [eax], edx ; add esp, 0x10 ; ret  ;  (1 found)
0x1000e1a3: add dword [eax], edx ; add esp, 0x28 ; push 0xFFFFFFFF ; push ecx ; call ebp ;  (1 found)
0x10003983: add dword [eax], edx ; add esp, 0x28 ; push 0xFFFFFFFF ; push ecx ; call edi ;  (1 found)
0x10006821: add dword [eax], edx ; add esp, 0x28 ; push 0xFFFFFFFF ; push ecx ; call edi ;  (1 found)
0x10006921: add dword [eax], edx ; add esp, 0x28 ; push 0xFFFFFFFF ; push ecx ; call edi ;  (1 found)
0x10001131: add dword [eax], edx ; add esp, 0x28 ; push 0xFFFFFFFF ; push edx ; call dword [0x10013090] ;  (1 found)
0x1001198a: add dword [eax], edx ; call dword [0x100130A8] ;  (1 found)
0x10003286: add dword [eax], edx ; call dword [0x100130F8] ;  (1 found)
0x1000303e: add dword [eax], edx ; call edi ;  (1 found)
0x100114fa: add dword [eax], edx ; call edi ;  (1 found)
0x10010326: add dword [eax], edx ; call edi ;  (1 found)
0x100114bb: add dword [eax], edx ; call esi ;  (1 found)
0x10012134: add dword [eax], edx ; jmp dword [0x10013170] ;  (1 found)
0x1001213a: add dword [eax], edx ; jmp dword [0x10013174] ;  (1 found)
0x10012140: add dword [eax], edx ; jmp dword [0x10013178] ;  (1 found)
0x10012146: add dword [eax], edx ; jmp dword [0x1001317C] ;  (1 found)
0x1001214c: add dword [eax], edx ; jmp dword [0x10013180] ;  (1 found)
0x10012152: add dword [eax], edx ; jmp dword [0x10013184] ;  (1 found)
0x10012158: add dword [eax], edx ; jmp dword [0x10013188] ;  (1 found)
0x1001215e: add dword [eax], edx ; jmp dword [0x1001318C] ;  (1 found)
0x1001216a: add dword [eax], edx ; jmp dword [0x10013190] ;  (1 found)
0x10012164: add dword [eax], edx ; jmp dword [0x10013194] ;  (1 found)
0x10012170: add dword [eax], edx ; jmp dword [0x10013198] ;  (1 found)
0x1000ef6d: add dword [eax], edx ; lea eax, dword [esp+0x0C] ; push eax ; push esi ; call ebx ;  (1 found)
0x100117cd: add dword [eax], edx ; lea eax, dword [esp+0x20] ; push 0x000000FF ; push eax ; call dword [0x100130AC] ;  (1 found)
0x100109ed: add dword [eax], edx ; lea ecx, dword [esp+0x08] ; push ecx ; call dword [0x100130D0] ;  (1 found)
0x1000edae: add dword [eax], edx ; lea ecx, dword [esp+0x14] ; push ecx ; push esi ; call ebp ;  (1 found)
0x10011751: add dword [eax], edx ; lea ecx, dword [esp+0x1C] ; push 0x000000FF ; push ecx ; call dword [0x100130AC] ;  (1 found)
0x100118ec: add dword [eax], edx ; lea ecx, dword [esp+0x1C] ; push 0x000000FF ; push ecx ; call dword [0x100130AC] ;  (1 found)
0x100116b6: add dword [eax], edx ; lea ecx, dword [esp+0x24] ; push 0x000000FF ; push ecx ; call dword [0x100130AC] ;  (1 found)
0x10011650: add dword [eax], edx ; lea ecx, dword [esp+0x28] ; push 0x000000FF ; push ecx ; call dword [0x100130AC] ;  (1 found)
0x1000e5d2: add dword [eax], edx ; mov ax, word [esi] ; push eax ; call ebp ;  (1 found)
0x10006c97: add dword [eax], edx ; mov dword [edi+0x18], eax ; mov eax, dword [edi+0x1C] ; push eax ; call dword [0x10013134] ;  (1 found)
0x10004464: add dword [eax], edx ; mov dword [esp+0x24], eax ; mov cx, word [ebp+0x40] ; push ecx ; call dword [0x10013130] ;  (1 found)
0x10004ba5: add dword [eax], edx ; mov dword [esp+0x30], eax ; mov cx, word [ebp+0x40] ; push ecx ; call dword [0x10013130] ;  (1 found)
0x100105eb: add dword [eax], edx ; mov eax, 0x00000001 ; pop esi ; ret  ;  (1 found)
0x1001061a: add dword [eax], edx ; mov eax, 0x00000001 ; pop esi ; ret  ;  (1 found)
0x10011055: add dword [eax], edx ; mov eax, dword [esp+0x04] ; add esp, 0x00000318 ; ret  ;  (1 found)
0x10010700: add dword [eax], edx ; mov eax, edi ; pop edi ; pop esi ; ret  ;  (1 found)
0x1001154e: add dword [eax], edx ; mov eax, esi ; pop esi ; ret  ;  (1 found)
0x10009efc: add dword [eax], edx ; mov ebp, dword [esi+0x0000009C] ; push eax ; call edi ;  (1 found)
0x10009bb9: add dword [eax], edx ; mov ebx, dword [esi+0x000000BE] ; push eax ; call ebp ;  (1 found)
0x10003bf4: add dword [eax], edx ; mov ebx, eax ; xor eax, eax ; push eax ; call edi ;  (1 found)
0x10006ca4: add dword [eax], edx ; mov ecx, dword [edi+0x20] ; mov dword [edi+0x1C], eax ; push ecx ; call dword [0x10013134] ;  (1 found)
0x10009f70: add dword [eax], edx ; mov edi, dword [esi+0x00000090] ; push eax ; call ebp ;  (1 found)
0x1000b701: add dword [eax], edx ; mov edi, dword [esp+0x000000B8] ; mov dword [esp+0x50], eax ; push edi ; call ebx ;  (1 found)
0x10006c8a: add dword [eax], edx ; mov edx, dword [edi+0x18] ; mov dword [ebp+0x00], eax ; push edx ; call dword [0x10013134] ;  (1 found)
0x100019de: add dword [eax], edx ; mov edx, dword [esp+0x10] ; movsx eax, byte [esi+edx+0x000003B8] ; push eax ; call edi ;  (1 found)
0x1000b69b: add dword [eax], edx ; mov esi, dword [esp+0x000000F8] ; add esp, 0x50 ; push 0x0000000C ; call ebx ;  (1 found)
0x10010117: add dword [eax], edx ; mov esi, eax ; call dword [0x10013070] ;  (1 found)
0x10010384: add dword [eax], edx ; pop edi ; mov eax, 0x00000001 ; pop esi ; ret  ;  (1 found)
0x1000eefc: add dword [eax], edx ; pop edi ; pop esi ; ret  ;  (1 found)
0x10010378: add dword [eax], edx ; pop edi ; xor eax, eax ; pop esi ; ret  ;  (1 found)
0x10010393: add dword [eax], edx ; pop edi ; xor eax, eax ; pop esi ; ret  ;  (1 found)
0x100011a6: add dword [eax], edx ; pop esi ; ret  ;  (1 found)
0x100011c5: add dword [eax], edx ; push 0x00000000 ; push 0x00000001 ; push eax ; call dword [0x10013094] ;  (1 found)
0x10006e42: add dword [eax], edx ; push 0x00000000 ; push 0x00000001 ; push eax ; call edi ;  (1 found)
0x1001243c: add dword [eax], edx ; push 0x00000001 ; pop eax ; retn 0x000C ;  (1 found)
0x1000307f: add dword [eax], edx ; push 0x00000003 ; mov edi, eax ; call dword [0x1001312C] ;  (1 found)
0x10011875: add dword [eax], edx ; push 0x000000FF ; push edx ; call dword [0x100130AC] ;  (1 found)
0x1000d675: add dword [eax], edx ; push 0x000001FB ; call dword [0x10013080] ;  (1 found)
0x10009d81: add dword [eax], edx ; push 0x000001FB ; mov dword [esp+0x000000E4], 0x00000000 ; call dword [0x10013080] ;  (1 found)
0x100099e4: add dword [eax], edx ; push 0x000001FB ; mov dword [esp+0x6C], 0x00000000 ; call dword [0x10013080] ;  (1 found)
0x10011f2a: add dword [eax], edx ; push 0x0000FEED ; mov dword [esp+0x28], eax ; call dword [0x1001312C] ;  (1 found)
0x10011f18: add dword [eax], edx ; push 0x7F000001 ; mov word [esp+0x24], 0x0002 ; call dword [0x10013128] ;  (1 found)
0x10003e64: add dword [eax], edx ; push 0x80000000 ; call ebp ;  (1 found)
0x10004a94: add dword [eax], edx ; push 0x80000000 ; mov word [edi+0x24], ax ; call dword [0x10013134] ;  (1 found)
0x1000fb92: add dword [eax], edx ; push 0x80000002 ; call esi ;  (1 found)
0x1000fc18: add dword [eax], edx ; push 0x80000002 ; call esi ;  (1 found)
0x10003587: add dword [eax], edx ; push 0xFFFFFFFF ; push edx ; call esi ;  (1 found)
0x100119f4: add dword [eax], edx ; push eax ; call dword [0x100130FC] ;  (1 found)
0x100065aa: add dword [eax], edx ; push eax ; call ebp ;  (1 found)
0x100032a3: add dword [eax], edx ; push eax ; call esi ;  (1 found)
0x1000e342: add dword [eax], edx ; push eax ; call esi ;  (1 found)
0x1001193b: add dword [eax], edx ; push eax ; push edi ; push 0x00000410 ; call dword [0x10013058] ;  (1 found)
0x10001d04: add dword [eax], edx ; push ebx ; push 0x00000001 ; push eax ; call dword [0x10013094] ;  (1 found)
0x10001664: add dword [eax], edx ; push ecx ; call ebx ;  (1 found)
0x1000cc66: add dword [eax], edx ; push ecx ; mov dword [esp+0x50], edx ; mov dword [esp+0x54], eax ; call esi ;  (1 found)
0x1000d727: add dword [eax], edx ; push ecx ; mov dword [esp+0x60], edx ; mov dword [esp+0x64], eax ; call esi ;  (1 found)
0x1000e983: add dword [eax], edx ; push edi ; mov ax, word [esi] ; push eax ; call ebx ;  (1 found)
0x10011566: add dword [eax], edx ; push edi ; push 0x0000000C ; call esi ;  (1 found)
0x1000a963: add dword [eax], edx ; push edi ; push edx ; call ebp ;  (1 found)
0x1000fc41: add dword [eax], edx ; push edx ; call dword [0x10013020] ;  (1 found)
0x10003c29: add dword [eax], edx ; push edx ; call ebp ;  (1 found)
0x1000ce86: add dword [eax], edx ; push edx ; mov dword [esp+0x4C], eax ; mov dword [esp+0x50], ecx ; call edi ;  (1 found)
0x10011fef: add dword [eax], edx ; push esi ; call dword [0x10013138] ;  (1 found)
0x1001200c: add dword [eax], edx ; push esi ; call dword [0x10013138] ;  (1 found)
0x100106f7: add dword [eax], edx ; push esi ; mov edi, eax ; call dword [0x10013034] ;  (1 found)
0x1000ef49: add dword [eax], edx ; ret  ;  (1 found)
0x1000f6a9: add dword [eax], edx ; ret  ;  (1 found)
0x1000f699: add dword [eax], edx ; ret  ;  (1 found)
0x1001085e: add dword [eax], edx ; ret  ;  (1 found)
0x1001088d: add dword [eax], edx ; ret  ;  (1 found)
0x10012110: add dword [eax], edx ; ret  ;  (1 found)
0x10011b5e: add dword [eax], edx ; ret  ;  (1 found)
0x1000f662: add dword [eax], edx ; xor eax, eax ; add esp, 0x00000190 ; ret  ;  (1 found)
0x10011b91: add dword [eax], edx ; xor eax, eax ; add esp, 0x0C ; ret  ;  (1 found)
0x10011be1: add dword [eax], edx ; xor eax, eax ; add esp, 0x0C ; ret  ;  (1 found)
0x10011bba: add dword [eax], edx ; xor eax, eax ; add esp, 0x0C ; ret  ;  (1 found)
0x10011c3b: add dword [eax], edx ; xor eax, eax ; add esp, 0x0C ; ret  ;  (1 found)
0x10011c0d: add dword [eax], edx ; xor eax, eax ; add esp, 0x0C ; ret  ;  (1 found)
0x10010628: add dword [eax], edx ; xor eax, eax ; pop esi ; ret  ;  (1 found)
0x1000f689: add dword [eax], edx ; xor eax, eax ; ret  ;  (1 found)
0x100051ea: add dword [ebp+0x00], eax ; mov ax, word [ebp+0x00] ; push eax ; call dword [0x1001312C] ;  (1 found)
0x100047db: add dword [ebp+0x00], edx ; mov ax, word [ebp+0x00] ; push eax ; call dword [0x1001312C] ;  (1 found)
0x1001179c: add dword [ebp+0x56], esi ; lea ecx, dword [esi-0x08] ; push ecx ; call dword [0x100130B4] ;  (1 found)
0x1000e120: add dword [ebx+0x0006D093], ecx ; add byte [edx+0x00], ch ; push 0x00000001 ; push edx ; call dword [0x10013094] ;  (1 found)
0x1000fb8d: add dword [ebx+0x68], edx ; test ah, ch ; add dword [eax], edx ; push 0x80000002 ; call esi ;  (1 found)
0x100122c5: add dword [ebx-0x74F7741F], ecx ; inc eax ; add al, 0x50 ; ret  ;  (1 found)
0x10001ba7: add dword [ebx-0x77], edx ; pop esi ; insb  ; call ebp ;  (1 found)
0x100050e4: add dword [ebx], eax ; push ecx ; call dword [0x1001312C] ;  (1 found)
0x100046a4: add dword [ebx], eax ; push ecx ; call dword [0x1001312C] ;  (1 found)
0x100052a1: add dword [ecx+0x00802484], ecx ; add byte [eax], al ; call ebx ;  (1 found)
0x1000eef6: add dword [ecx-0x01], edx ; adc eax, 0x10013094 ; pop edi ; pop esi ; ret  ;  (1 found)
0x1000f61c: add dword [ecx], eax ; add byte [eax], al ; call dword [0x10013144] ;  (1 found)
0x10001fd0: add dword [ecx], eax ; add byte [ebx+0x595E18C4], al ; ret  ;  (1 found)
0x10001f19: add dword [edx+0x00], ebp ; call dword [0x10013088] ;  (1 found)
0x1000dea9: add dword [edx+0x00], ebp ; call dword [0x10013088] ;  (1 found)
0x1001208c: add dword [edx+0x00], ebp ; push 0x00000000 ; mov dword [esi+0x08], 0x1000EED0 ; mov dword [esi+0x34], eax ; call dword [0x10013088] ;  (1 found)
0x10011b7d: add dword [edx+0x00], ebp ; push 0x00000000 ; push eax ; call dword [0x10013000] ;  (1 found)
0x10011c29: add dword [edx+0x00], ebp ; push eax ; call dword [0x10013010] ;  (1 found)
0x10001f17: add dword [edx+0x01], ebp ; push 0x00000000 ; call dword [0x10013088] ;  (1 found)
0x1000dea7: add dword [edx+0x01], ebp ; push 0x00000000 ; call dword [0x10013088] ;  (1 found)
0x10001b2b: add dword [edx+0x01], ebp ; push ebx ; call ebp ;  (1 found)
0x10001cae: add dword [edx+0x01], ebp ; push ebx ; call ebp ;  (1 found)
0x10006ef0: add dword [edx+0x01], ebp ; push ebx ; call edi ;  (1 found)
0x10001be9: add dword [edx+0x01], ebp ; push ebx ; mov dword [ecx+0x000005CC], eax ; call ebp ;  (1 found)
0x10006ef8: add dword [edx+0x01], ebp ; push ebx ; mov dword [esi+0x000005D0], eax ; call edi ;  (1 found)
0x10001ba5: add dword [edx+0x01], ebp ; push ebx ; mov dword [esi+0x6C], ebx ; call ebp ;  (1 found)
0x1000f59b: add dword [edx+0x01], ebp ; push edi ; call dword [0x10013088] ;  (1 found)
0x10011ed9: add dword [edx+0x02], ebp ; call dword [0x10013168] ;  (1 found)
0x1000f1ed: add dword [edx+0x02], ebp ; mov dword [esi+0x3C], ecx ; call dword [0x10013168] ;  (1 found)
0x1000f37e: add dword [edx+0x06], ebp ; push edx ; call dword [0x1001315C] ;  (1 found)
0x100011a0: add dword [edx-0x01], edx ; adc eax, 0x10013094 ; pop esi ; ret  ;  (1 found)
0x10003e82: add dword [esp+eax+0x33], esi ; imul bl ; adc dword [edx+0x02], ebp ; call ebp ;  (1 found)
0x10006dd4: add eax, 0x006A0000 ; push 0x00000001 ; push eax ; call dword [0x10013094] ;  (1 found)
0x100038fd: add eax, 0x006A0000 ; push 0x00000001 ; push eax ; call edi ;  (1 found)
0x10003704: add eax, 0x006A0000 ; push 0x00000001 ; push eax ; mov dword [ebp+0x000003A4], ebx ; call dword [0x10013094] ;  (1 found)
0x10006d3d: add eax, 0x006A0000 ; push 0x00000001 ; push eax ; mov dword [esi+0x000003A8], 0x00000000 ; call dword [0x10013094] ;  (1 found)
0x10003a4b: add eax, 0x006A0000 ; push 0x00000001 ; push ecx ; call edi ;  (1 found)
0x1000390a: add eax, 0x006A0000 ; push 0x00000001 ; push ecx ; call edi ;  (1 found)
0x10006e4e: add eax, 0x006A0000 ; push 0x00000001 ; push ecx ; call edi ;  (1 found)
0x10003b1f: add eax, 0x006A0000 ; push 0x00000001 ; push edx ; call dword [0x10013094] ;  (1 found)
0x1000231b: add eax, 0x1001F714 ; add byte [eax], al ; add byte [eax], al ; ret  ;  (1 found)
0x10003037: add eax, 0x3D8BA4F3 ; sub al, 0x31 ; add dword [eax], edx ; call edi ;  (1 found)
0x1000f11c: add eax, 0x52510000 ; push eax ; call edi ;  (1 found)
0x1000f14b: add eax, 0x52510000 ; push eax ; call edi ;  (1 found)
0x1000f1ff: add eax, 0x56750000 ; call dword [0x10013164] ;  (1 found)
0x100120ae: add eax, 0x5E000000 ; ret  ;  (1 found)
0x1000e4d4: add eax, 0x5EC0335F ; ret  ;  (1 found)
0x10005ce3: add eax, 0x5EFFC883 ; ret  ;  (1 found)
0x1000359b: add eax, 0x6A570000 ; call dword [eax-0x01] ;  (1 found)
0x1000f116: add eax, 0x868B0000 ; fadd dword [0x52510000] ; push eax ; call edi ;  (1 found)
0x1000f145: add eax, 0x868B0000 ; fadd dword [0x52510000] ; push eax ; call edi ;  (1 found)
0x1000faf8: add eax, 0xC4830000 ; add al, 0x5F ; pop esi ; add esp, 0x3C ; ret  ;  (1 found)
0x1000366c: add eax, 0xC4830000 ; sub byte [edx-0x01], ch ; push ecx ; call dword [0x10013090] ;  (1 found)
0x10003aba: add eax, 0xC4830000 ; sub byte [edx-0x01], ch ; push ecx ; call dword [0x10013090] ;  (1 found)
0x10003279: add eax, 0xD883C01B ; inc dword [ebp+0x680E75C0] ; test al, 0xAC ; add dword [eax], edx ; call dword [0x100130F8] ;  (1 found)
0x100038a4: add eax, 0xFF6A0000 ; push ecx ; call dword [0x10013090] ;  (1 found)
0x10006bda: add eax, 0xFF6A0000 ; push ecx ; call dword [0x10013090] ;  (1 found)
0x10006d86: add eax, 0xFF6A0000 ; push ecx ; call dword [0x10013090] ;  (1 found)
0x10006e0a: add eax, 0xFF6A0000 ; push ecx ; call dword [0x10013090] ;  (1 found)
0x10003990: add eax, 0xFF6A0000 ; push edx ; call edi ;  (1 found)
0x10003036: add eax, dword [0x3D8BA4F3] ; sub al, 0x31 ; add dword [eax], edx ; call edi ;  (1 found)
0x1001105e: add eax, dword [eax] ; add bl, al ; call dword [0x10013070] ;  (1 found)
0x1000d06d: add eax, dword [eax] ; add byte [eax-0x18], ch ; mov esp, 0x68681001 ; mov edx, 0xE8521001 ; retn 0x0050 ;  (1 found)
0x10003acc: add eax, dword [eax] ; add byte [ebp+0x0003949F], cl ; add byte [ebx], bh ; ret  ;  (1 found)
0x10001316: add eax, dword [eax] ; add byte [ebp+0x500374C0], al ; call ebx ;  (1 found)
0x10001307: add eax, dword [eax] ; add byte [ebp+0x500374C0], al ; call ebx ;  (1 found)
0x1000681a: add eax, dword [eax] ; add byte [ebx+0x0130903D], cl ; adc byte [ebx-0x0095D73C], al ; push ecx ; call edi ;  (1 found)
0x1000691a: add eax, dword [eax] ; add byte [ebx+0x0130903D], cl ; adc byte [ebx-0x0095D73C], al ; push ecx ; call edi ;  (1 found)
0x10006eeb: add eax, dword [eax] ; add byte [ebx+0x6A], dl ; add dword [edx+0x01], ebp ; push ebx ; call edi ;  (1 found)
0x10001c3a: add eax, dword [eax] ; add byte [ebx-0x74EFDBBC], cl ; xor byte [eax+0x03], 0x00000000 ; add byte [ebx], bh ; ret  ;  (1 found)
0x10001c44: add eax, dword [eax] ; add byte [ebx], bh ; ret  ;  (1 found)
0x10001c69: add eax, dword [eax] ; add byte [ebx], bh ; ret  ;  (1 found)
0x10003ad2: add eax, dword [eax] ; add byte [ebx], bh ; ret  ;  (1 found)
0x100068a3: add eax, dword [eax] ; add byte [edx+0x00], ch ; push 0x00000001 ; push eax ; call edi ;  (1 found)
0x10006983: add eax, dword [eax] ; add byte [edx+0x00], ch ; push 0x00000001 ; push edx ; call edi ;  (1 found)
0x10001c93: add eax, dword [eax] ; add byte [edx-0x01], ch ; push edx ; call dword [0x10013090] ;  (1 found)
0x1000544e: add eax, dword [eax] ; add byte [esi-0x7D], ah ; retn 0x5220 ;  (1 found)
0x100030be: add eax, dword [ebx-0x5B0CDF40] ; mov dword [esp+0x10], eax ; mov eax, dword [esp+0x10] ; push eax ; call dword [0x1001312C] ;  (1 found)
0x100051d6: add eax, edi ; push edx ; push eax ; call dword [0x100130F4] ;  (1 found)
0x1000a0b4: add eax, edx ; push 0x00000065 ; lea ebx, dword [ecx+eax] ; call edi ;  (1 found)
0x1000547c: add ebp, edi ; inc ecx ; push ecx ; call ebx ;  (1 found)
0x10003033: add ecx, dword [ebp-0x0CFAFCA4] ; movsb  ; mov edi, dword [0x1001312C] ; call edi ;  (1 found)
0x1000b8a5: add ecx, edx ; push 0x00000001 ; lea ebx, dword [eax+ecx] ; call edi ;  (1 found)
0x10001a08: add edx, 0x000003B8 ; push edx ; call dword [0x10013108] ;  (1 found)
0x10003a0f: add edx, dword [eax+0x56] ; call ecx ;  (1 found)
0x1000130d: add edx, dword [eax-0x01] ; ror dword [ebx-0x7B7D74E9], cl ; add eax, dword [eax] ; add byte [ebp+0x500374C0], al ; call ebx ;  (1 found)
0x100012fe: add edx, dword [eax-0x01] ; ror dword [ebx-0x7F7E74F1], cl ; add eax, dword [eax] ; add byte [ebp+0x500374C0], al ; call ebx ;  (1 found)
0x100039d3: add edx, dword [ebx+0x56] ; call eax ;  (1 found)
0x100050cb: add edx, edi ; push ecx ; push edx ; call dword [0x100130F4] ;  (1 found)
0x1000468b: add edx, edi ; push ecx ; push edx ; call dword [0x100130F4] ;  (1 found)
0x1000e4d2: add esi, dword [ebx+0x05] ; pop edi ; xor eax, eax ; pop esi ; ret  ;  (1 found)
0x1001069d: add esi, ebx ; movsb  ; call dword [0x10013034] ;  (1 found)
0x1000521f: add esi, ebx ; movsb  ; call dword [0x1001312C] ;  (1 found)
0x100056c8: add esi, ebx ; movsb  ; mov edi, dword [esp+0x1C] ; push edi ; call dword [0x1001312C] ;  (1 found)
0x10005723: add esi, ebx ; movsb  ; mov esi, dword [esp+0x20] ; push esi ; call dword [0x1001312C] ;  (1 found)
0x10010486: add esi, ebx ; movsb  ; pop edi ; pop esi ; ret  ;  (1 found)
0x1000b3e1: add esp, 0x00000080 ; ret  ;  (1 found)
0x1000b411: add esp, 0x00000080 ; ret  ;  (1 found)
0x1000ba19: add esp, 0x00000080 ; ret  ;  (1 found)
0x1000b9e9: add esp, 0x00000080 ; ret  ;  (1 found)
0x1000c730: add esp, 0x00000080 ; ret  ;  (1 found)
0x1000c75f: add esp, 0x00000080 ; ret  ;  (1 found)
0x1000b5da: add esp, 0x0000008C ; ret  ;  (1 found)
0x1000b60a: add esp, 0x0000008C ; ret  ;  (1 found)
0x1000ad8a: add esp, 0x0000008C ; ret  ;  (1 found)
0x1000ad5a: add esp, 0x0000008C ; ret  ;  (1 found)
0x1000b7f9: add esp, 0x00000090 ; ret  ;  (1 found)
0x1000b829: add esp, 0x00000090 ; ret  ;  (1 found)
0x1000c942: add esp, 0x00000090 ; ret  ;  (1 found)
0x1000c972: add esp, 0x00000090 ; ret  ;  (1 found)
0x1000cb82: add esp, 0x00000090 ; ret  ;  (1 found)
0x1000cb52: add esp, 0x00000090 ; ret  ;  (1 found)
0x1000c58c: add esp, 0x00000090 ; ret  ;  (1 found)
0x1000c5bc: add esp, 0x00000090 ; ret  ;  (1 found)
0x10005398: add esp, 0x00000094 ; ret  ;  (1 found)
0x10005c8d: add esp, 0x00000094 ; ret  ;  (1 found)
0x10005bc8: add esp, 0x00000094 ; ret  ;  (1 found)
0x1000cda4: add esp, 0x00000098 ; ret  ;  (1 found)
0x1000cd74: add esp, 0x00000098 ; ret  ;  (1 found)
0x1000d0bd: add esp, 0x00000098 ; ret  ;  (1 found)
0x1000d27b: add esp, 0x00000098 ; ret  ;  (1 found)
0x1000d24c: add esp, 0x00000098 ; ret  ;  (1 found)
0x1000c370: add esp, 0x0000009C ; ret  ;  (1 found)
0x1000c3a0: add esp, 0x0000009C ; ret  ;  (1 found)
0x10010d05: add esp, 0x0000009C ; ret  ;  (1 found)
0x10010dc2: add esp, 0x0000009C ; ret  ;  (1 found)
0x10010d1e: add esp, 0x0000009C ; ret  ;  (1 found)
0x1000cfec: add esp, 0x000000A0 ; ret  ;  (1 found)
0x1000cfbc: add esp, 0x000000A0 ; ret  ;  (1 found)
0x1000d356: add esp, 0x000000A8 ; ret  ;  (1 found)
0x1000d519: add esp, 0x000000A8 ; ret  ;  (1 found)
0x1000c13e: add esp, 0x000000A8 ; ret  ;  (1 found)
0x1000c16e: add esp, 0x000000A8 ; ret  ;  (1 found)
0x1000d549: add esp, 0x000000A8 ; ret  ;  (1 found)
0x1000bc31: add esp, 0x000000AC ; ret  ;  (1 found)
0x1000bc61: add esp, 0x000000AC ; ret  ;  (1 found)
0x1000beae: add esp, 0x000000AC ; ret  ;  (1 found)
0x1000bede: add esp, 0x000000AC ; ret  ;  (1 found)
0x1000a2b1: add esp, 0x000000B4 ; ret  ;  (1 found)
0x1000a281: add esp, 0x000000B4 ; ret  ;  (1 found)
0x1000a6e9: add esp, 0x000000B4 ; ret  ;  (1 found)
0x1000a719: add esp, 0x000000B4 ; ret  ;  (1 found)
0x1000d908: add esp, 0x000000C8 ; ret  ;  (1 found)
0x1000d8d8: add esp, 0x000000C8 ; ret  ;  (1 found)
0x1000d6ae: add esp, 0x000000F0 ; push 0x00000067 ; call dword [0x1001312C] ;  (1 found)
0x1001167d: add esp, 0x00000100 ; ret  ;  (1 found)
0x100116e3: add esp, 0x00000100 ; ret  ;  (1 found)
0x1001177a: add esp, 0x00000100 ; ret  ;  (1 found)
0x1001189d: add esp, 0x00000100 ; ret  ;  (1 found)
0x100117f8: add esp, 0x00000100 ; ret  ;  (1 found)
0x10011917: add esp, 0x00000100 ; ret  ;  (1 found)
0x10011925: add esp, 0x00000100 ; ret  ;  (1 found)
0x10011afd: add esp, 0x00000104 ; ret  ;  (1 found)
0x10011af3: add esp, 0x00000104 ; ret  ;  (1 found)
0x10011a66: add esp, 0x00000104 ; ret  ;  (1 found)
0x10001974: add esp, 0x00000108 ; ret  ;  (1 found)
0x10001d54: add esp, 0x00000108 ; ret  ;  (1 found)
0x10001d96: add esp, 0x00000108 ; ret  ;  (1 found)
0x100100c6: add esp, 0x0000010C ; ret  ;  (1 found)
0x10010997: add esp, 0x00000118 ; ret  ;  (1 found)
0x1000f652: add esp, 0x00000190 ; ret  ;  (1 found)
0x1000f666: add esp, 0x00000190 ; ret  ;  (1 found)
0x10010bea: add esp, 0x00000230 ; ret  ;  (1 found)
0x10010cda: add esp, 0x00000230 ; ret  ;  (1 found)
0x10010c8a: add esp, 0x00000230 ; ret  ;  (1 found)
0x10010c44: add esp, 0x00000230 ; ret  ;  (1 found)
0x1001105b: add esp, 0x00000318 ; ret  ;  (1 found)
0x100034f7: add esp, 0x00000414 ; ret  ;  (1 found)
0x1000e3ba: add esp, 0x0000041C ; ret  ;  (1 found)
0x1000e43b: add esp, 0x0000041C ; ret  ;  (1 found)
0x1000e48a: add esp, 0x0000041C ; ret  ;  (1 found)
0x1000e334: add esp, 0x0000041C ; ret  ;  (1 found)
0x100106c1: add esp, 0x00000800 ; ret  ;  (1 found)
0x100106ae: add esp, 0x00000800 ; ret  ;  (1 found)
0x1000fbdc: add esp, 0x00000918 ; ret  ;  (1 found)
0x1000fd85: add esp, 0x00000918 ; ret  ;  (1 found)
0x1000fe78: add esp, 0x00000918 ; ret  ;  (1 found)
0x1000fdde: add esp, 0x00000918 ; ret  ;  (1 found)
0x1000fe3d: add esp, 0x00000918 ; ret  ;  (1 found)
0x100104fb: add esp, 0x00001000 ; ret  ;  (1 found)
0x10010510: add esp, 0x00001000 ; ret  ;  (1 found)
0x10010828: add esp, 0x00001000 ; ret  ;  (1 found)
0x1001083a: add esp, 0x00001000 ; ret  ;  (1 found)
0x100108f8: add esp, 0x00001000 ; ret  ;  (1 found)
0x10010904: add esp, 0x00001000 ; ret  ;  (1 found)
0x10010dfb: add esp, 0x00001000 ; ret  ;  (1 found)
0x10010e3d: add esp, 0x00001000 ; ret  ;  (1 found)
0x10010759: add esp, 0x00001004 ; ret  ;  (1 found)
0x1001079a: add esp, 0x00001004 ; ret  ;  (1 found)
0x100107b3: add esp, 0x00001004 ; ret  ;  (1 found)
0x10011ffe: add esp, 0x00001128 ; ret  ;  (1 found)
0x1001201c: add esp, 0x00001128 ; ret  ;  (1 found)
0x10011ce5: add esp, 0x00001128 ; ret  ;  (1 found)
0x10011ecf: add esp, 0x00001128 ; ret  ;  (1 found)
0x10011efe: add esp, 0x00001128 ; ret  ;  (1 found)
0x1001056b: add esp, 0x00002000 ; ret  ;  (1 found)
0x10010588: add esp, 0x00002000 ; ret  ;  (1 found)
0x1001050d: add esp, 0x04 ; add esp, 0x00001000 ; ret  ;  (1 found)
0x1000f277: add esp, 0x04 ; mov dword [esi+0x000004B8], eax ; push edx ; call dword [0x1001312C] ;  (1 found)
0x100114e3: add esp, 0x04 ; mov eax, 0x00000001 ; ret  ;  (1 found)
0x100120ec: add esp, 0x04 ; mov eax, dword [esi+0x68] ; pop esi ; ret  ;  (1 found)
0x10010a7a: add esp, 0x04 ; neg eax ; sbb eax, eax ; inc eax ; ret  ;  (1 found)
0x1000fafb: add esp, 0x04 ; pop edi ; pop esi ; add esp, 0x3C ; ret  ;  (1 found)
0x100105bb: add esp, 0x04 ; ret  ;  (1 found)
0x10010585: add esp, 0x08 ; add esp, 0x00002000 ; ret  ;  (1 found)
0x100109cc: add esp, 0x08 ; mov eax, 0x00000001 ; pop esi ; ret  ;  (1 found)
0x10010943: add esp, 0x08 ; mov eax, esi ; pop edi ; pop esi ; ret  ;  (1 found)
0x10011501: add esp, 0x08 ; push 0xFFFFFFFF ; call dword [0x100130B8] ;  (1 found)
0x100014b9: add esp, 0x08 ; ret  ;  (1 found)
0x1000805a: add esp, 0x08 ; ret  ;  (1 found)
0x10007e18: add esp, 0x08 ; ret  ;  (1 found)
0x10007de5: add esp, 0x08 ; ret  ;  (1 found)
0x10007c71: add esp, 0x08 ; ret  ;  (1 found)
0x1000952c: add esp, 0x08 ; ret  ;  (1 found)
0x100096ce: add esp, 0x08 ; ret  ;  (1 found)
0x10009702: add esp, 0x08 ; ret  ;  (1 found)
0x10009abb: add esp, 0x08 ; ret  ;  (1 found)
0x100081c9: add esp, 0x08 ; ret  ;  (1 found)
0x100089f9: add esp, 0x08 ; ret  ;  (1 found)
0x10008ab6: add esp, 0x08 ; ret  ;  (1 found)
0x10008ae9: add esp, 0x08 ; ret  ;  (1 found)
0x10009c60: add esp, 0x08 ; ret  ;  (1 found)
0x10009c2d: add esp, 0x08 ; ret  ;  (1 found)
0x1000f6bf: add esp, 0x08 ; ret  ;  (1 found)
0x1001071c: add esp, 0x08 ; ret  ;  (1 found)
0x100100c1: add esp, 0x08 ; xor eax, eax ; add esp, 0x0000010C ; ret  ;  (1 found)
0x1001126e: add esp, 0x0C ; call dword [0x1001305C] ;  (1 found)
0x10010a3e: add esp, 0x0C ; mov eax, 0x00000001 ; pop esi ; add esp, 0x0C ; ret  ;  (1 found)
0x10011410: add esp, 0x0C ; mov eax, 0x00000001 ; pop esi ; ret  ;  (1 found)
0x100103f5: add esp, 0x0C ; ret  ;  (1 found)
0x100104a5: add esp, 0x0C ; ret  ;  (1 found)
0x100105a5: add esp, 0x0C ; ret  ;  (1 found)
0x10010a61: add esp, 0x0C ; ret  ;  (1 found)
0x10010a47: add esp, 0x0C ; ret  ;  (1 found)
0x10011b95: add esp, 0x0C ; ret  ;  (1 found)
0x10011be5: add esp, 0x0C ; ret  ;  (1 found)
0x10011bbe: add esp, 0x0C ; ret  ;  (1 found)
0x10011c3f: add esp, 0x0C ; ret  ;  (1 found)
0x10011c48: add esp, 0x0C ; ret  ;  (1 found)
0x10011c11: add esp, 0x0C ; ret  ;  (1 found)
0x10010a5b: add esp, 0x0C ; xor eax, eax ; pop esi ; add esp, 0x0C ; ret  ;  (1 found)
0x10010090: add esp, 0x0C ; xor eax, eax ; pop esi ; ret  ;  (1 found)
0x100015d2: add esp, 0x10 ; ret  ;  (1 found)
0x100016da: add esp, 0x10 ; ret  ;  (1 found)
0x1000170c: add esp, 0x10 ; ret  ;  (1 found)
0x1000280b: add esp, 0x10 ; ret  ;  (1 found)
0x1000283e: add esp, 0x10 ; ret  ;  (1 found)
0x1000277c: add esp, 0x10 ; ret  ;  (1 found)
0x10002749: add esp, 0x10 ; ret  ;  (1 found)
0x10003d63: add esp, 0x10 ; ret  ;  (1 found)
0x10006bd3: add esp, 0x10 ; ret  ;  (1 found)
0x10006bf1: add esp, 0x10 ; ret  ;  (1 found)
0x10006e8d: add esp, 0x10 ; ret  ;  (1 found)
0x10007f9a: add esp, 0x10 ; ret  ;  (1 found)
0x10006de9: add esp, 0x10 ; ret  ;  (1 found)
0x1000db3a: add esp, 0x10 ; ret  ;  (1 found)
0x1000dbdf: add esp, 0x10 ; ret  ;  (1 found)
0x1000dc78: add esp, 0x10 ; ret  ;  (1 found)
0x1000dc2e: add esp, 0x10 ; ret  ;  (1 found)
0x1000dcd9: add esp, 0x10 ; ret  ;  (1 found)
0x1000db87: add esp, 0x10 ; ret  ;  (1 found)
0x1000dfc1: add esp, 0x10 ; ret  ;  (1 found)
0x1000dea0: add esp, 0x10 ; ret  ;  (1 found)
0x1000dd5f: add esp, 0x10 ; ret  ;  (1 found)
0x1000de2d: add esp, 0x10 ; ret  ;  (1 found)
0x1000dff5: add esp, 0x10 ; ret  ;  (1 found)
0x1000e068: add esp, 0x10 ; ret  ;  (1 found)
0x1000f6e9: add esp, 0x10 ; ret  ;  (1 found)
0x1000f8f9: add esp, 0x10 ; ret  ;  (1 found)
0x1000f916: add esp, 0x10 ; ret  ;  (1 found)
0x1000f9b6: add esp, 0x10 ; ret  ;  (1 found)
0x100103b6: add esp, 0x10 ; ret  ;  (1 found)
0x100103da: add esp, 0x10 ; ret  ;  (1 found)
0x100104ca: add esp, 0x10 ; ret  ;  (1 found)
0x10010646: add esp, 0x10 ; ret  ;  (1 found)
0x10010022: add esp, 0x10 ; xor eax, eax ; pop esi ; pop ecx ; ret  ;  (1 found)
0x10010feb: add esp, 0x14 ; call ebx ;  (1 found)
0x1000f256: add esp, 0x14 ; ret  ;  (1 found)
0x1000f36c: add esp, 0x14 ; ret  ;  (1 found)
0x1000f468: add esp, 0x14 ; ret  ;  (1 found)
0x1000f4b5: add esp, 0x14 ; ret  ;  (1 found)
0x10011a21: add esp, 0x18 ; lea edx, dword [esp+0x00] ; push esi ; push edx ; call dword [0x100130BC] ;  (1 found)
0x1000e551: add esp, 0x18 ; mov eax, 0x00000001 ; pop edi ; pop esi ; ret  ;  (1 found)
0x1000ea0b: add esp, 0x18 ; mov eax, 0x00000001 ; pop esi ; pop ebp ; ret  ;  (1 found)
0x1000e66e: add esp, 0x18 ; mov eax, 0x00000001 ; ret  ;  (1 found)
0x1000ed2b: add esp, 0x18 ; mov ecx, dword [edi+0x000006DC] ; push 0xFFFFFFFF ; push ecx ; call ebx ;  (1 found)
0x1000ee1c: add esp, 0x18 ; mov ecx, dword [edi+0x000006E0] ; push ecx ; call dword [0x1001308C] ;  (1 found)
0x1000f1d2: add esp, 0x18 ; mov ecx, dword [esi+0x000006DC] ; push 0xFFFFFFFF ; push ecx ; call dword [0x10013090] ;  (1 found)
0x10003816: add esp, 0x18 ; mov ecx, dword [esi+0x5C] ; push 0xFFFFFFFF ; push ecx ; call dword [0x10013090] ;  (1 found)
0x1000f64c: add esp, 0x18 ; or eax, 0xFFFFFFFF ; add esp, 0x00000190 ; ret  ;  (1 found)
0x10006fd3: add esp, 0x18 ; or eax, 0xFFFFFFFF ; pop esi ; pop ebx ; ret  ;  (1 found)
0x1000f500: add esp, 0x18 ; or eax, 0xFFFFFFFF ; pop esi ; ret  ;  (1 found)
0x100020bd: add esp, 0x18 ; pop edi ; pop esi ; pop ebx ; ret  ;  (1 found)
0x10006f6a: add esp, 0x18 ; pop edi ; pop esi ; pop ebx ; ret  ;  (1 found)
0x1000ee65: add esp, 0x18 ; pop edi ; pop esi ; pop ebx ; ret  ;  (1 found)
0x10003936: add esp, 0x18 ; pop edi ; pop esi ; ret  ;  (1 found)
0x100068cf: add esp, 0x18 ; pop edi ; pop esi ; ret  ;  (1 found)
0x100069ae: add esp, 0x18 ; pop edi ; pop esi ; ret  ;  (1 found)
0x1000d9f7: add esp, 0x18 ; pop edi ; pop esi ; ret  ;  (1 found)
0x1000a9fc: add esp, 0x18 ; pop esi ; pop ebx ; ret  ;  (1 found)
0x1000e153: add esp, 0x18 ; pop esi ; pop ebx ; ret  ;  (1 found)
0x10001fd3: add esp, 0x18 ; pop esi ; pop ecx ; ret  ;  (1 found)
0x100011f4: add esp, 0x18 ; pop esi ; ret  ;  (1 found)
0x100010ac: add esp, 0x18 ; pop esi ; ret  ;  (1 found)
0x10001448: add esp, 0x18 ; pop esi ; ret  ;  (1 found)
0x10001553: add esp, 0x18 ; pop esi ; ret  ;  (1 found)
0x10001410: add esp, 0x18 ; pop esi ; ret  ;  (1 found)
0x100017b5: add esp, 0x18 ; pop esi ; ret  ;  (1 found)
0x100037eb: add esp, 0x18 ; pop esi ; ret  ;  (1 found)
0x1000385b: add esp, 0x18 ; pop esi ; ret  ;  (1 found)
0x1000da96: add esp, 0x18 ; pop esi ; ret  ;  (1 found)
0x1000da4e: add esp, 0x18 ; pop esi ; ret  ;  (1 found)
0x10006708: add esp, 0x18 ; push 0x00000000 ; push eax ; call dword [0x10013128] ;  (1 found)
0x10003b95: add esp, 0x18 ; push 0x00000001 ; call dword [0x1001312C] ;  (1 found)
0x1000f31e: add esp, 0x18 ; push 0x00000002 ; push edi ; call dword [0x1001313C] ;  (1 found)
0x1000f41b: add esp, 0x18 ; push 0x00000002 ; push edi ; call dword [0x1001313C] ;  (1 found)
0x1000ed61: add esp, 0x18 ; push 0x00000002 ; push esi ; call dword [0x1001313C] ;  (1 found)
0x1000f34c: add esp, 0x18 ; push edi ; call dword [0x10013138] ;  (1 found)
0x1000f448: add esp, 0x18 ; push edi ; call dword [0x10013138] ;  (1 found)
0x1000ed8e: add esp, 0x18 ; push esi ; call dword [0x10013138] ;  (1 found)
0x10001f49: add esp, 0x18 ; ret  ;  (1 found)
0x10002c74: add esp, 0x18 ; ret  ;  (1 found)
0x10002ca8: add esp, 0x18 ; ret  ;  (1 found)
0x10004845: add esp, 0x18 ; ret  ;  (1 found)
0x10006b60: add esp, 0x18 ; ret  ;  (1 found)
0x1000ef2d: add esp, 0x18 ; ret  ;  (1 found)
0x1000eec5: add esp, 0x18 ; ret  ;  (1 found)
0x1000f601: add esp, 0x18 ; ret  ;  (1 found)
0x10005d28: add esp, 0x18 ; xor eax, eax ; pop esi ; ret  ;  (1 found)
0x100018bb: add esp, 0x1C ; pop esi ; ret  ;  (1 found)
0x1000f714: add esp, 0x1C ; pop esi ; ret  ;  (1 found)
0x1000f045: add esp, 0x20 ; mov eax, esi ; pop edi ; pop esi ; ret  ;  (1 found)
0x1001014c: add esp, 0x20 ; mov eax, esi ; pop edi ; pop esi ; retn 0x000C ;  (1 found)
0x10002233: add esp, 0x20 ; mov eax, esi ; pop esi ; ret  ;  (1 found)
0x1000228e: add esp, 0x20 ; mov eax, esi ; pop esi ; ret  ;  (1 found)
0x1000fc77: add esp, 0x20 ; mov ecx, dword [esp+0x0C] ; push ecx ; call dword [0x1001301C] ;  (1 found)
0x100115c4: add esp, 0x20 ; pop edi ; pop esi ; pop ebx ; ret  ;  (1 found)
0x1000ea3d: add esp, 0x20 ; pop esi ; xor eax, eax ; pop ebp ; ret  ;  (1 found)
0x10004045: add esp, 0x20 ; push 0x80000000 ; call ebp ;  (1 found)
0x10010196: add esp, 0x20 ; push edi ; call dword [0x10013030] ;  (1 found)
0x100034f2: add esp, 0x20 ; xor eax, eax ; add esp, 0x00000414 ; ret  ;  (1 found)
0x10002163: add esp, 0x20 ; xor eax, eax ; pop esi ; ret  ;  (1 found)
0x1000e69e: add esp, 0x20 ; xor eax, eax ; ret  ;  (1 found)
0x1000e917: add esp, 0x24 ; pop edi ; pop esi ; pop ebx ; ret  ;  (1 found)
0x10004162: add esp, 0x24 ; ret  ;  (1 found)
0x1000af7b: add esp, 0x28 ; and edi, 0x0000FFFF ; push 0x000000CA ; call dword [0x1001312C] ;  (1 found)
0x1000b2b1: add esp, 0x28 ; and edi, 0x0000FFFF ; push 0x000000CC ; call dword [0x1001312C] ;  (1 found)
0x100066ac: add esp, 0x28 ; mov di, word [ebx+0x02] ; push 0x0000FFE2 ; call dword [0x1001312C] ;  (1 found)
0x10003b6a: add esp, 0x28 ; pop edi ; pop ebx ; ret  ;  (1 found)
0x1000aa57: add esp, 0x28 ; push 0x00000014 ; call dword [0x1001312C] ;  (1 found)
0x1000c619: add esp, 0x28 ; push 0x00000045 ; call dword [0x1001312C] ;  (1 found)
0x1000ade6: add esp, 0x28 ; push 0x000000C9 ; call dword [0x1001312C] ;  (1 found)
0x1000b116: add esp, 0x28 ; push 0x000000CB ; call dword [0x1001312C] ;  (1 found)
0x1000366f: add esp, 0x28 ; push 0xFFFFFFFF ; push ecx ; call dword [0x10013090] ;  (1 found)
0x10003abd: add esp, 0x28 ; push 0xFFFFFFFF ; push ecx ; call dword [0x10013090] ;  (1 found)
0x1000d94d: add esp, 0x28 ; push 0xFFFFFFFF ; push ecx ; call dword [0x10013090] ;  (1 found)
0x1000e0ad: add esp, 0x28 ; push 0xFFFFFFFF ; push ecx ; call dword [0x10013090] ;  (1 found)
0x1000e1a5: add esp, 0x28 ; push 0xFFFFFFFF ; push ecx ; call ebp ;  (1 found)
0x10003985: add esp, 0x28 ; push 0xFFFFFFFF ; push ecx ; call edi ;  (1 found)
0x10006823: add esp, 0x28 ; push 0xFFFFFFFF ; push ecx ; call edi ;  (1 found)
0x10006923: add esp, 0x28 ; push 0xFFFFFFFF ; push ecx ; call edi ;  (1 found)
0x10001133: add esp, 0x28 ; push 0xFFFFFFFF ; push edx ; call dword [0x10013090] ;  (1 found)
0x1001010e: add esp, 0x28 ; push edi ; push eax ; call dword [0x1001302C] ;  (1 found)
0x1000ecc2: add esp, 0x28 ; ret  ;  (1 found)
0x1000eb30: add esp, 0x28 ; ret  ;  (1 found)
0x1000ecf5: add esp, 0x28 ; ret  ;  (1 found)
0x1001196a: add esp, 0x28 ; ret  ;  (1 found)
0x10011972: add esp, 0x28 ; ret  ;  (1 found)
0x1000ff37: add esp, 0x28 ; xor eax, eax ; pop edi ; pop esi ; ret  ;  (1 found)
0x10011a60: add esp, 0x2C ; mov eax, esi ; pop esi ; add esp, 0x00000104 ; ret  ;  (1 found)
0x100023ed: add esp, 0x2C ; ret  ;  (1 found)
0x10002573: add esp, 0x2C ; ret  ;  (1 found)
0x100025a6: add esp, 0x2C ; ret  ;  (1 found)
0x10002089: add esp, 0x30 ; pop edi ; pop esi ; pop ebx ; ret  ;  (1 found)
0x1000e485: add esp, 0x30 ; pop esi ; pop ebp ; add esp, 0x0000041C ; ret  ;  (1 found)
0x1000107f: add esp, 0x30 ; pop esi ; ret  ;  (1 found)
0x1000123c: add esp, 0x30 ; pop esi ; ret  ;  (1 found)
0x1000188f: add esp, 0x30 ; pop esi ; ret  ;  (1 found)
0x100017fe: add esp, 0x30 ; pop esi ; ret  ;  (1 found)
0x1000119a: add esp, 0x30 ; push 0x00000000 ; push 0x00000001 ; push edx ; call dword [0x10013094] ;  (1 found)
0x10001dee: add esp, 0x30 ; ret  ;  (1 found)
0x1000ffa2: add esp, 0x34 ; xor eax, eax ; pop edi ; pop esi ; ret  ;  (1 found)
0x1000e3b5: add esp, 0x38 ; pop esi ; pop ebp ; add esp, 0x0000041C ; ret  ;  (1 found)
0x1000e32f: add esp, 0x38 ; pop esi ; pop ebp ; add esp, 0x0000041C ; ret  ;  (1 found)
0x10002f13: add esp, 0x38 ; ret  ;  (1 found)
0x10003182: add esp, 0x38 ; ret  ;  (1 found)
0x100031b5: add esp, 0x38 ; ret  ;  (1 found)
0x1000fb00: add esp, 0x3C ; ret  ;  (1 found)
0x1000f996: add esp, 0x40 ; ret  ;  (1 found)
0x10004233: add esp, 0x4C ; ret  ;  (1 found)
0x10004606: add esp, 0x4C ; ret  ;  (1 found)
0x1000c7f5: add esp, 0x50 ; and ebx, 0x0000FFFF ; push 0x00000007 ; call dword [0x1001312C] ;  (1 found)
0x1000ca05: add esp, 0x50 ; and ebx, 0x0000FFFF ; push 0x00000009 ; call dword [0x1001312C] ;  (1 found)
0x1000c438: add esp, 0x50 ; push 0x00000002 ; call dword [0x1001312C] ;  (1 found)
0x1000cc0e: add esp, 0x50 ; push 0x00000005 ; call dword [0x1001312C] ;  (1 found)
0x1000abfe: add esp, 0x50 ; push 0x00000006 ; call dword [0x1001312C] ;  (1 found)
0x1000b49f: add esp, 0x50 ; push 0x00000008 ; call dword [0x1001312C] ;  (1 found)
0x1000baa8: add esp, 0x50 ; push 0x0000000A ; call dword [0x1001312C] ;  (1 found)
0x1000b6a4: add esp, 0x50 ; push 0x0000000C ; call ebx ;  (1 found)
0x1000bcfe: add esp, 0x50 ; push 0x0000000D ; call dword [0x1001312C] ;  (1 found)
0x1000c208: add esp, 0x50 ; push 0x0000000E ; call dword [0x1001312C] ;  (1 found)
0x1000bf78: add esp, 0x50 ; push 0x0000000F ; call dword [0x1001312C] ;  (1 found)
0x1000ce2e: add esp, 0x50 ; push 0x00000010 ; call dword [0x1001312C] ;  (1 found)
0x1000a56f: add esp, 0x50 ; push 0x00000066 ; call dword [0x1001312C] ;  (1 found)
0x1000fa40: add esp, 0x54 ; ret  ;  (1 found)
0x10005040: add esp, 0x78 ; ret  ;  (1 found)
0x1000491d: add esp, 0x78 ; ret  ;  (1 found)
0x1000af24: add esp, 0x78 ; ret  ;  (1 found)
0x1000aef8: add esp, 0x78 ; ret  ;  (1 found)
0x1000b0c4: add esp, 0x78 ; ret  ;  (1 found)
0x1000b098: add esp, 0x78 ; ret  ;  (1 found)
0x1000b224: add esp, 0x78 ; ret  ;  (1 found)
0x1000b250: add esp, 0x78 ; ret  ;  (1 found)
0x1000ab72: add esp, 0x7C ; ret  ;  (1 found)
0x1000ab45: add esp, 0x7C ; ret  ;  (1 found)
0x100051e9: add word [ebp+0x00], ax ; mov ax, word [ebp+0x00] ; push eax ; call dword [0x1001312C] ;  (1 found)
0x100047da: add word [ebp+0x00], dx ; mov ax, word [ebp+0x00] ; push eax ; call dword [0x1001312C] ;  (1 found)
0x100050e3: add word [ebx], ax ; push ecx ; call dword [0x1001312C] ;  (1 found)
0x100046a3: add word [ebx], ax ; push ecx ; call dword [0x1001312C] ;  (1 found)
0x10010578: and al, 0x00 ; adc byte [eax], al ; add byte [ecx+0x52], dl ; call dword [0x100130E0] ;  (1 found)
0x1000fc74: and al, 0x00 ; add byte [ebx+0x4C8B20C4], al ; and al, 0x0C ; push ecx ; call dword [0x1001301C] ;  (1 found)
0x1000cc09: and al, 0x00 ; add dword [eax], eax ; add byte [ebx+0x056A50C4], al ; call dword [0x1001312C] ;  (1 found)
0x1000d791: and al, 0x00 ; add dword [eax], eax ; add byte [ebx-0x12CCAE08], cl ; call esi ;  (1 found)
0x10010574: and al, 0x00 ; lea edx, dword [esp+0x00001000] ; push ecx ; push edx ; call dword [0x100130E0] ;  (1 found)
0x1000f5d0: and al, 0x00 ; lea edx, dword [esp+0x08] ; push ecx ; push edx ; call dword [0x10013078] ;  (1 found)
0x1000f618: and al, 0x00 ; push eax ; push 0x00000101 ; call dword [0x10013144] ;  (1 found)
0x100100b7: and al, 0x00 ; push eax ; push ecx ; call dword [0x1002FB84] ;  (1 found)
0x10010831: and al, 0x00 ; push edx ; call dword [0x10013044] ;  (1 found)
0x10010504: and al, 0x00 ; push edx ; call dword [0x100130E4] ;  (1 found)
0x100109e5: and al, 0x00 ; push esi ; push eax ; call dword [0x100130CC] ;  (1 found)
0x10011a26: and al, 0x00 ; push esi ; push edx ; call dword [0x100130BC] ;  (1 found)
0x1000322d: and al, 0x02 ; add byte [eax], al ; push eax ; call dword [0x10013100] ;  (1 found)
0x1000c203: and al, 0x04 ; add dword [eax], eax ; add byte [ebx+0x0E6A50C4], al ; call dword [0x1001312C] ;  (1 found)
0x10011059: and al, 0x04 ; add esp, 0x00000318 ; ret  ;  (1 found)
0x10012436: and al, 0x04 ; call dword [0x10013098] ;  (1 found)
0x100119ef: and al, 0x04 ; push 0x1001F650 ; push eax ; call dword [0x100130FC] ;  (1 found)
0x1000f6a2: and al, 0x04 ; push eax ; call dword [0x10013084] ;  (1 found)
0x1000ef42: and al, 0x04 ; push eax ; call dword [0x1001308C] ;  (1 found)
0x100105b2: and al, 0x04 ; push eax ; call dword [0x100130D8] ;  (1 found)
0x1000f692: and al, 0x04 ; push eax ; call dword [0x100131A0] ;  (1 found)
0x1000f682: and al, 0x04 ; push eax ; call dword [0x100131A4] ;  (1 found)
0x10011b56: and al, 0x04 ; push eax ; push ecx ; call dword [0x10013014] ;  (1 found)
0x10010856: and al, 0x04 ; push eax ; push ecx ; call dword [0x1001302C] ;  (1 found)
0x100103ea: and al, 0x04 ; push eax ; push ecx ; push edx ; call dword [0x10013100] ;  (1 found)
0x1000ce29: and al, 0x08 ; add dword [eax], eax ; add byte [ebx+0x106A50C4], al ; call dword [0x1001312C] ;  (1 found)
0x1000d7b7: and al, 0x08 ; add dword [eax], eax ; add byte [ebx-0x12CCAE08], cl ; call esi ;  (1 found)
0x10011b52: and al, 0x08 ; mov ecx, dword [esp+0x04] ; push eax ; push ecx ; call dword [0x10013014] ;  (1 found)
0x10010852: and al, 0x08 ; mov ecx, dword [esp+0x04] ; push eax ; push ecx ; call dword [0x1001302C] ;  (1 found)
0x1001030b: and al, 0x08 ; pop edi ; pop esi ; pop ecx ; ret  ;  (1 found)
0x1000f5c5: and al, 0x08 ; push eax ; call dword [0x10013074] ;  (1 found)
0x1000165d: and al, 0x08 ; push ebx ; mov ebx, dword [0x10013128] ; push ecx ; call ebx ;  (1 found)
0x100109f1: and al, 0x08 ; push ecx ; call dword [0x100130D0] ;  (1 found)
0x10001496: and al, 0x08 ; push ecx ; call eax ;  (1 found)
0x1000f5d4: and al, 0x08 ; push ecx ; push edx ; call dword [0x10013078] ;  (1 found)
0x100104bf: and al, 0x08 ; push ecx ; push edx ; push eax ; call dword [0x100130E8] ;  (1 found)
0x100103cf: and al, 0x08 ; push ecx ; push edx ; push eax ; call dword [0x100130F0] ;  (1 found)
0x1000f4c3: and al, 0x08 ; push esi ; call dword [0x10013148] ;  (1 found)
0x1000d7a9: and al, 0x0C ; add dword [eax], eax ; add byte [ecx+0x507C246C], cl ; call esi ;  (1 found)
0x10010ba5: and al, 0x0C ; mov dword [esi], 0x00000000 ; push eax ; mov dword [esp+0x10], 0x0000011C ; call ebx ;  (1 found)
0x1000f536: and al, 0x0C ; pop edi ; pop esi ; ret  ;  (1 found)
0x100120c3: and al, 0x0C ; push 0x00007530 ; mov eax, dword [esi+0x2C] ; push eax ; call dword [0x10013090] ;  (1 found)
0x10010732: and al, 0x0C ; push eax ; push ecx ; mov dword [esp+0x10], 0x00000800 ; call dword [0x10013040] ;  (1 found)
0x1001059a: and al, 0x0C ; push eax ; push ecx ; push edx ; call dword [0x100130DC] ;  (1 found)
0x1001049a: and al, 0x0C ; push eax ; push ecx ; push edx ; call dword [0x100130EC] ;  (1 found)
0x1000ef71: and al, 0x0C ; push eax ; push esi ; call ebx ;  (1 found)
0x1000fc7c: and al, 0x0C ; push ecx ; call dword [0x1001301C] ;  (1 found)
0x1000fba1: and al, 0x0C ; push edx ; call dword [0x1001301C] ;  (1 found)
0x10010884: and al, 0x0C ; push edx ; push eax ; push ecx ; call dword [0x10013048] ;  (1 found)
0x10010738: and al, 0x10 ; add byte [eax], cl ; add byte [eax], al ; call dword [0x10013040] ;  (1 found)
0x1000bf73: and al, 0x10 ; add dword [eax], eax ; add byte [ebx+0x0F6A50C4], al ; call dword [0x1001312C] ;  (1 found)
0x1000e89d: and al, 0x10 ; mov ax, word [esi+0x24] ; push eax ; call dword [0x10013130] ;  (1 found)
0x1000166b: and al, 0x10 ; mov dword [esi+0x000006E4], eax ; push edx ; call ebx ;  (1 found)
0x100030c6: and al, 0x10 ; mov eax, dword [esp+0x10] ; push eax ; call dword [0x1001312C] ;  (1 found)
0x100019e2: and al, 0x10 ; movsx eax, byte [esi+edx+0x000003B8] ; push eax ; call edi ;  (1 found)
0x10001a04: and al, 0x10 ; push 0x0000003A ; add edx, 0x000003B8 ; push edx ; call dword [0x10013108] ;  (1 found)
0x100030ca: and al, 0x10 ; push eax ; call dword [0x1001312C] ;  (1 found)
0x1000cc8c: and al, 0x10 ; push eax ; xor ebp, ebp ; call esi ;  (1 found)
0x1000b8ec: and al, 0x10 ; push ecx ; call edi ;  (1 found)
0x1000d3da: and al, 0x10 ; push ecx ; xor edi, edi ; call esi ;  (1 found)
0x10004a8d: and al, 0x10 ; push edx ; call dword [0x1001312C] ;  (1 found)
0x10010bb0: and al, 0x10 ; sbb al, 0x01 ; add byte [eax], al ; call ebx ;  (1 found)
0x1000b8fb: and al, 0x12 ; push edx ; call edi ;  (1 found)
0x10010e5c: and al, 0x14 ; add byte [eax], al ; add byte [eax], al ; call dword [0x1001305C] ;  (1 found)
0x1000baa3: and al, 0x14 ; add dword [eax], eax ; add byte [ebx+0x0A6A50C4], al ; call dword [0x1001312C] ;  (1 found)
0x1000545f: and al, 0x14 ; call dword [0x10013130] ;  (1 found)
0x10011966: and al, 0x14 ; pop edi ; pop esi ; add esp, 0x28 ; ret  ;  (1 found)
0x10005a57: and al, 0x14 ; push 0x80000000 ; mov dword [edx+0x20], eax ; call ebp ;  (1 found)
0x1000167e: and al, 0x14 ; push eax ; call ebx ;  (1 found)
0x10010e33: and al, 0x14 ; push ecx ; push edx ; call dword [0x10013050] ;  (1 found)
0x1000edb2: and al, 0x14 ; push ecx ; push esi ; call ebp ;  (1 found)
0x1000eedc: and al, 0x14 ; push edi ; push esi ; push eax ; call dword [esi+0x34] ;  (1 found)
0x1000d739: and al, 0x14 ; xor edi, edi ; call esi ;  (1 found)
0x100108c7: and al, 0x18 ; adc byte [eax], al ; add byte [ecx+0x52], dl ; push eax ; call dword [0x10013120] ;  (1 found)
0x1000f2a3: and al, 0x18 ; add al, byte [eax] ; mov dword [esp+0x1C], eax ; call dword [0x10013150] ;  (1 found)
0x1000b300: and al, 0x18 ; call dword [0x10013134] ;  (1 found)
0x1000e349: and al, 0x18 ; mov ax, word [edx+0x02] ; push eax ; call esi ;  (1 found)
0x1000a96b: and al, 0x18 ; mov dword [esi+0x00000080], eax ; mov eax, dword [ebx+0x34] ; push eax ; call ebp ;  (1 found)
0x10001685: and al, 0x18 ; mov dword [esi+0x000006EC], eax ; push ecx ; call ebx ;  (1 found)
0x1000d3c3: and al, 0x18 ; mov dword [esp+0x1C], edx ; mov dword [esp+0x20], edi ; call esi ;  (1 found)
0x1000445a: and al, 0x18 ; mov eax, dword [ebp+0x14] ; push eax ; call dword [0x10013128] ;  (1 found)
0x10003044: and al, 0x18 ; mov word [ebx], ax ; push esi ; call edi ;  (1 found)
0x10006564: and al, 0x18 ; push 0x00000000 ; mov ecx, dword [eax+0x00000084] ; push ecx ; call dword [0x10013128] ;  (1 found)
0x1000fd95: and al, 0x18 ; push eax ; push ecx ; call dword [0x1002FB6C] ;  (1 found)
0x10003c4b: and al, 0x18 ; push ecx ; call edi ;  (1 found)
0x1000fde7: and al, 0x18 ; push ecx ; push eax ; call dword [0x1002FB80] ;  (1 found)
0x100065c1: and al, 0x18 ; push edx ; call ebp ;  (1 found)
0x10011546: and al, 0x18 ; push edx ; push esi ; call dword [0x10013064] ;  (1 found)
0x1000a56a: and al, 0x1C ; add dword [eax], eax ; add byte [ebx+0x666A50C4], al ; call dword [0x1001312C] ;  (1 found)
0x1000f2a9: and al, 0x1C ; call dword [0x10013150] ;  (1 found)
0x10004a86: and al, 0x1C ; mov dword [edi+0x20], ecx ; mov edx, dword [esp+0x10] ; push edx ; call dword [0x1001312C] ;  (1 found)
0x1000ac5b: and al, 0x1C ; mov dword [esp+0x20], eax ; call ebx ;  (1 found)
0x1000d3c7: and al, 0x1C ; mov dword [esp+0x20], edi ; call esi ;  (1 found)
0x10004617: and al, 0x1C ; mov eax, dword [edi+0x08] ; mov cx, word [eax+0x02] ; push ecx ; call dword [0x10013130] ;  (1 found)
0x10005057: and al, 0x1C ; mov eax, dword [edi] ; mov cx, word [eax+0x02] ; push ecx ; call dword [0x10013130] ;  (1 found)
0x10011755: and al, 0x1C ; push 0x000000FF ; push ecx ; call dword [0x100130AC] ;  (1 found)
0x100118f0: and al, 0x1C ; push 0x000000FF ; push ecx ; call dword [0x100130AC] ;  (1 found)
0x100056cd: and al, 0x1C ; push edi ; call dword [0x1001312C] ;  (1 found)
0x1000ac5f: and al, 0x20 ; call ebx ;  (1 found)
0x1000d3cb: and al, 0x20 ; call esi ;  (1 found)
0x10007b9d: and al, 0x20 ; mov dword [ecx], eax ; mov dx, word [esi+0x00000094] ; push edx ; call dword [0x10013130] ;  (1 found)
0x100117d1: and al, 0x20 ; push 0x000000FF ; push eax ; call dword [0x100130AC] ;  (1 found)
0x10005728: and al, 0x20 ; push esi ; call dword [0x1001312C] ;  (1 found)
0x10011f22: and al, 0x24 ; add al, byte [eax] ; call dword [0x10013128] ;  (1 found)
0x1000fd8e: and al, 0x24 ; add dword [eax], eax ; add byte [ebp+0x5018244C], cl ; push ecx ; call dword [0x1002FB6C] ;  (1 found)
0x10002baf: and al, 0x24 ; call dword [0x10013134] ;  (1 found)
0x10004468: and al, 0x24 ; mov cx, word [ebp+0x40] ; push ecx ; call dword [0x10013130] ;  (1 found)
0x1000d3ff: and al, 0x24 ; mov eax, dword [ebp+0x00] ; push eax ; call esi ;  (1 found)
0x100116ba: and al, 0x24 ; push 0x000000FF ; push ecx ; call dword [0x100130AC] ;  (1 found)
0x10003c02: and al, 0x24 ; xor ebp, ebp ; call edi ;  (1 found)
0x1000bcf9: and al, 0x28 ; add dword [eax], eax ; add byte [ebx+0x0D6A50C4], al ; call dword [0x1001312C] ;  (1 found)
0x10011f33: and al, 0x28 ; call dword [0x1001312C] ;  (1 found)
0x10004e86: and al, 0x28 ; mov dword [edi+0x20], ecx ; call dword [0x10013134] ;  (1 found)
0x10011654: and al, 0x28 ; push 0x000000FF ; push ecx ; call dword [0x100130AC] ;  (1 found)
0x100032bd: and al, 0x2C ; add al, byte [eax] ; add byte [edx+0x51], dl ; call esi ;  (1 found)
0x1000be04: and al, 0x2C ; mov dword [esp+0x30], 0x00000034 ; call dword [0x10013130] ;  (1 found)
0x1000d3f5: and al, 0x2C ; mov dword [esp+0x30], edi ; call esi ;  (1 found)
0x10006aec: and al, 0x2C ; push edx ; push ebx ; push ebp ; call dword [ebx+0x08] ;  (1 found)
0x1000622f: and al, 0x2C ; push esi ; push ebx ; push ecx ; call dword [ebx+0x34] ;  (1 found)
0x10011f46: and al, 0x2E ; call dword [0x10013150] ;  (1 found)
0x1000d3f9: and al, 0x30 ; call esi ;  (1 found)
0x10004ba9: and al, 0x30 ; mov cx, word [ebp+0x40] ; push ecx ; call dword [0x10013130] ;  (1 found)
0x1000d410: and al, 0x30 ; push ecx ; call dword [0x1001312C] ;  (1 found)
0x1000be08: and al, 0x30 ; xor al, 0x00 ; add byte [eax], al ; call dword [0x10013130] ;  (1 found)
0x10003c03: and al, 0x33 ; in eax, dx ; call edi ;  (1 found)
0x1000dc27: and al, 0x33 ; rcr byte [edi+0x5E], 0x0000005D ; pop ebx ; add esp, 0x10 ; ret  ;  (1 found)
0x1001010c: and al, 0x34 ; add esp, 0x28 ; push edi ; push eax ; call dword [0x1001302C] ;  (1 found)
0x10011f69: and al, 0x38 ; add dword [eax], eax ; add byte [edi+0x50], dl ; push esi ; call dword [0x10013158] ;  (1 found)
0x10009bcf: and al, 0x38 ; call ebp ;  (1 found)
0x10009f82: and al, 0x38 ; mov dword [esp+0x3C], ecx ; call ebp ;  (1 found)
0x10009f43: and al, 0x38 ; mov dword [esp+0x44], ecx ; call edi ;  (1 found)
0x100066aa: and al, 0x3C ; add esp, 0x28 ; mov di, word [ebx+0x02] ; push 0x0000FFE2 ; call dword [0x1001312C] ;  (1 found)
0x10009f86: and al, 0x3C ; call ebp ;  (1 found)
0x10009f12: and al, 0x40 ; call edi ;  (1 found)
0x10009bcb: and al, 0x40 ; mov dword [esp+0x38], ecx ; call ebp ;  (1 found)
0x1000bdff: and al, 0x40 ; push edx ; mov dword [esp+0x2C], ecx ; mov dword [esp+0x30], 0x00000034 ; call dword [0x10013130] ;  (1 found)
0x100063af: and al, 0x40 ; push esi ; push ebx ; push ebp ; call dword [ebx+0x34] ;  (1 found)
0x10011fa0: and al, 0x44 ; add dword [eax], eax ; add byte [eax], al ; call dword [0x10013160] ;  (1 found)
0x10009f47: and al, 0x44 ; call edi ;  (1 found)
0x10009f0e: and al, 0x44 ; mov dword [esp+0x40], ecx ; call edi ;  (1 found)
0x1000c48d: and al, 0x44 ; mov dword [esp+0x48], ebp ; mov dword [esp+0x4C], ebx ; call edi ;  (1 found)
0x1000bfcd: and al, 0x44 ; mov dword [esp+0x48], ebp ; mov dword [esp+0x4C], ebx ; call esi ;  (1 found)
0x1000d11e: and al, 0x44 ; mov dword [esp+0x48], ebp ; mov dword [esp+0x4C], edi ; call esi ;  (1 found)
0x1000300c: and al, 0x44 ; push ecx ; call edi ;  (1 found)
0x10011f9c: and al, 0x48 ; mov dword [esp+0x44], 0x00000001 ; call dword [0x10013160] ;  (1 found)
0x1000c491: and al, 0x48 ; mov dword [esp+0x4C], ebx ; call edi ;  (1 found)
0x1000bfd1: and al, 0x48 ; mov dword [esp+0x4C], ebx ; call esi ;  (1 found)
0x1000d122: and al, 0x48 ; mov dword [esp+0x4C], edi ; call esi ;  (1 found)
0x1000c495: and al, 0x4C ; call edi ;  (1 found)
0x1000d126: and al, 0x4C ; call esi ;  (1 found)
0x1000bfd5: and al, 0x4C ; call esi ;  (1 found)
0x1000b6f7: and al, 0x4C ; mov dword [esp+0x50], eax ; call dword [0x10013134] ;  (1 found)
0x1000ce8b: and al, 0x4C ; mov dword [esp+0x50], ecx ; call edi ;  (1 found)
0x1000c856: and al, 0x4C ; mov dword [esp+0x50], ecx ; mov dword [esp+0x58], edi ; call dword [0x10013134] ;  (1 found)
0x1000ca66: and al, 0x4C ; mov dword [esp+0x50], ecx ; mov dword [esp+0x58], edi ; call dword [0x10013134] ;  (1 found)
0x1000c27f: and al, 0x4C ; mov dword [esp+0x50], edi ; mov dword [esp+0x5C], ecx ; mov dword [esp+0x60], edx ; call dword [0x10013134] ;  (1 found)
0x10005a50: and al, 0x4C ; push ecx ; call ebp ;  (1 found)
0x1000e8a2: and al, 0x50 ; call dword [0x10013130] ;  (1 found)
0x1000b6fb: and al, 0x50 ; call dword [0x10013134] ;  (1 found)
0x1000a116: and al, 0x50 ; call edi ;  (1 found)
0x1000ce8f: and al, 0x50 ; call edi ;  (1 found)
0x1000b2f5: and al, 0x50 ; mov dword [esi+0x28], 0x00000002 ; mov dword [esp+0x18], ebx ; call dword [0x10013134] ;  (1 found)
0x1000cc6b: and al, 0x50 ; mov dword [esp+0x54], eax ; call esi ;  (1 found)
0x1000c85a: and al, 0x50 ; mov dword [esp+0x58], edi ; call dword [0x10013134] ;  (1 found)
0x1000ca6a: and al, 0x50 ; mov dword [esp+0x58], edi ; call dword [0x10013134] ;  (1 found)
0x1000c283: and al, 0x50 ; mov dword [esp+0x5C], ecx ; mov dword [esp+0x60], edx ; call dword [0x10013134] ;  (1 found)
0x1000ce95: and al, 0x50 ; mov eax, dword [esp+0x000000C4] ; push eax ; call edi ;  (1 found)
0x1000bd0f: and al, 0x50 ; push ecx ; push edx ; call dword [0x10013130] ;  (1 found)
0x1000b70c: and al, 0x50 ; push edi ; call ebx ;  (1 found)
0x1000641c: and al, 0x50 ; rep movsd  ; push edx ; movsw  ; call eax ;  (1 found)
0x1000cc6f: and al, 0x54 ; call esi ;  (1 found)
0x1000d14c: and al, 0x54 ; call esi ;  (1 found)
0x1000bff7: and al, 0x54 ; mov dword [esp+0x58], ebp ; call esi ;  (1 found)
0x1000cc7c: and al, 0x54 ; push edx ; call esi ;  (1 found)
0x10005f77: and al, 0x55 ; push eax ; call dword [0x10013130] ;  (1 found)
0x1000c85e: and al, 0x58 ; call dword [0x10013134] ;  (1 found)
0x1000ca6e: and al, 0x58 ; call dword [0x10013134] ;  (1 found)
0x1000bffb: and al, 0x58 ; call esi ;  (1 found)
0x1000cebf: and al, 0x58 ; mov dword [esp+0x5C], ebp ; call edi ;  (1 found)
0x10002baa: and al, 0x58 ; push edx ; mov dword [esp+0x24], ecx ; call dword [0x10013134] ;  (1 found)
0x1000529c: and al, 0x5C ; call ebx ;  (1 found)
0x1000cec3: and al, 0x5C ; call edi ;  (1 found)
0x1000c043: and al, 0x5C ; mov dword [esp+0x60], ebp ; call esi ;  (1 found)
0x1000c287: and al, 0x5C ; mov dword [esp+0x60], edx ; call dword [0x10013134] ;  (1 found)
0x1000bb30: and al, 0x5C ; mov eax, dword [eax+0x0C] ; mov dword [esp+0x60], eax ; call dword [0x1001312C] ;  (1 found)
0x1000a159: and al, 0x5C ; mov eax, dword [eax+0x0C] ; mov dword [esp+0x60], eax ; call edi ;  (1 found)
0x1000139e: and al, 0x5F ; pop esi ; pop ebp ; pop ebx ; ret  ;  (1 found)
0x10011776: and al, 0x5F ; pop esi ; pop ebx ; add esp, 0x00000100 ; ret  ;  (1 found)
0x1000e919: and al, 0x5F ; pop esi ; pop ebx ; ret  ;  (1 found)
0x1000bb37: and al, 0x60 ; call dword [0x1001312C] ;  (1 found)
0x1000c28b: and al, 0x60 ; call dword [0x10013134] ;  (1 found)
0x1000a160: and al, 0x60 ; call edi ;  (1 found)
0x1000c047: and al, 0x60 ; call esi ;  (1 found)
0x1000d72c: and al, 0x60 ; mov dword [esp+0x64], eax ; call esi ;  (1 found)
0x1000a167: and al, 0x62 ; push 0x00000014 ; call edi ;  (1 found)
0x1000d730: and al, 0x64 ; call esi ;  (1 found)
0x10005288: and al, 0x64 ; push ebp ; call ebx ;  (1 found)
0x10004469: and al, 0x66 ; mov ecx, dword [ebp+0x40] ; push ecx ; call dword [0x10013130] ;  (1 found)
0x1000a17f: and al, 0x66 ; push edx ; call edi ;  (1 found)
0x1000a171: and al, 0x68 ; call edi ;  (1 found)
0x100116bb: and al, 0x68 ; inc dword [eax] ; add byte [eax], al ; push ecx ; call dword [0x100130AC] ;  (1 found)
0x1000c01c: and al, 0x68 ; mov dword [esp+0x6C], ebp ; push edx ; call esi ;  (1 found)
0x1000d753: and al, 0x68 ; mov dword [esp+0x6C], edi ; call esi ;  (1 found)
0x1000a187: and al, 0x68 ; mov eax, dword [esp+0x000000F0] ; push eax ; call edi ;  (1 found)
0x100099ed: and al, 0x6C ; add byte [eax], al ; add byte [eax], al ; call dword [0x10013080] ;  (1 found)
0x1000d757: and al, 0x6C ; call esi ;  (1 found)
0x1000c020: and al, 0x6C ; push edx ; call esi ;  (1 found)
0x100052af: and al, 0x70 ; call ebx ;  (1 found)
0x1000d779: and al, 0x70 ; mov dword [esp+0x74], ebp ; call esi ;  (1 found)
0x10005291: and al, 0x74 ; call ebx ;  (1 found)
0x1000d77d: and al, 0x74 ; call esi ;  (1 found)
0x1000d783: and al, 0x74 ; mov eax, dword [esp+0x00000104] ; push eax ; call esi ;  (1 found)
0x1000d7a5: and al, 0x78 ; mov eax, dword [esp+0x0000010C] ; mov dword [esp+0x7C], ebp ; push eax ; call esi ;  (1 found)
0x10004ccf: and al, 0x78 ; push eax ; push ecx ; push edx ; call dword [0x10013130] ;  (1 found)
0x10005485: and al, 0x7C ; call dword [0x10013130] ;  (1 found)
0x1000d7b0: and al, 0x7C ; push eax ; call esi ;  (1 found)
0x1000d7d3: and al, 0x84 ; add byte [eax], al ; add byte [ecx+0x008824AC], cl ; add byte [eax], al ; call esi ;  (1 found)
0x1000148f: and al, 0x85 ; sal byte [edx-0x75], 0x0000004C ; and al, 0x08 ; push ecx ; call eax ;  (1 found)
0x1000b035: and al, 0x89 ; pop esi ; cmp byte [ecx-0x7D], dl ; ret  ;  (1 found)
0x1000f38b: and al, 0xA1 ; mov eax, 0x6A1002FD ; add byte [eax+0x24], ch ; retn 0x1001 ;  (1 found)
0x1000c84c: and al, 0xB0 ; add byte [eax], al ; add byte [ebx], dh ; call dword [edx-0x77] ;  (1 found)
0x1000d0c7: and al, 0xB0 ; add byte [eax], al ; add byte [edx+0x03], ch ; call dword [0x1001312C] ;  (1 found)
0x1000ca5c: and al, 0xB8 ; add byte [eax], al ; add byte [ebx], dh ; call dword [edx-0x77] ;  (1 found)
0x1000cc85: and al, 0xB8 ; add byte [eax], al ; add byte [ecx+0x5010246C], cl ; xor ebp, ebp ; call esi ;  (1 found)
0x1000b705: and al, 0xB8 ; add byte [eax], al ; add byte [ecx+0x57502444], cl ; call ebx ;  (1 found)
0x1000c49d: and al, 0xBC ; add byte [eax], al ; add byte [eax+0x33], dl ; in eax, dx ; call edi ;  (1 found)
0x1000aa52: and al, 0xBC ; add byte [eax], al ; add byte [ebx+0x146A28C4], al ; call dword [0x1001312C] ;  (1 found)
0x1000c614: and al, 0xBC ; add byte [eax], al ; add byte [ebx+0x456A28C4], al ; call dword [0x1001312C] ;  (1 found)
0x1000cc75: and al, 0xBC ; add byte [eax], al ; add byte [ecx+0x52542444], cl ; call esi ;  (1 found)
0x1000cea3: and al, 0xC0 ; add byte [eax], al ; add byte [ebx-0x12CCAE28], cl ; call edi ;  (1 found)
0x1000d360: and al, 0xC0 ; add byte [eax], al ; add byte [edx+0x04], ch ; call dword [0x1001312C] ;  (1 found)
0x1000cec9: and al, 0xC8 ; add byte [eax], al ; add byte [ebx+0x51ED33D8], cl ; call edi ;  (1 found)
0x1000d12c: and al, 0xCC ; add byte [eax], al ; add byte [ebx-0x12CCAE08], cl ; call esi ;  (1 found)
0x1000d6a9: and al, 0xD0 ; add dword [eax], eax ; add byte [ecx+0x0000F0C4], al ; add byte [edx+0x67], ch ; call dword [0x1001312C] ;  (1 found)
0x1000c003: and al, 0xD4 ; add byte [eax], al ; add byte [eax+0x33], dl ; in eax, dx ; call esi ;  (1 found)
0x1000c029: and al, 0xDC ; add byte [eax], al ; add byte [eax+0x33], dl ; in eax, dx ; call esi ;  (1 found)
0x1000c04f: and al, 0xE4 ; add byte [eax], al ; add byte [eax+0x33], dl ; in eax, dx ; call esi ;  (1 found)
0x1000d409: and al, 0xE4 ; add byte [eax], al ; add byte [ecx+0x51302444], cl ; call dword [0x1001312C] ;  (1 found)
0x1000bfdd: and al, 0xEC ; add byte [eax], al ; add byte [eax+0x33], dl ; in eax, dx ; call esi ;  (1 found)
0x1000d75f: and al, 0xF4 ; add byte [eax], al ; add byte [eax+0x33], dl ; in eax, dx ; call esi ;  (1 found)
0x1000abf9: and al, 0xF4 ; add byte [eax], al ; add byte [ebx+0x066A50C4], al ; call dword [0x1001312C] ;  (1 found)
0x1000b49a: and al, 0xF4 ; add byte [eax], al ; add byte [ebx+0x086A50C4], al ; call dword [0x1001312C] ;  (1 found)
0x1000c433: and al, 0xF8 ; add byte [eax], al ; add byte [ebx+0x026A50C4], al ; call dword [0x1001312C] ;  (1 found)
0x1000b69f: and al, 0xF8 ; add byte [eax], al ; add byte [ebx+0x0C6A50C4], al ; call ebx ;  (1 found)
0x1000ff34: and al, byte [eax] ; add byte [ebx-0x3FCCD73C], al ; pop edi ; pop esi ; ret  ;  (1 found)
0x10005459: and bh, bh ; rcl dword [eax-0x77], cl ; inc esp ; and al, 0x14 ; call dword [0x10013130] ;  (1 found)
0x10006c19: and byte [eax], al ; add byte [ebp+0x50077EC0], al ; call dword [0x10013084] ;  (1 found)
0x100111ab: and byte [ebp-0x00066B6B], cl ; call dword [edx-0x18] ;  (1 found)
0x1001118b: and byte [ebp-0x00066B73], cl ; call dword [ecx-0x18] ;  (1 found)
0x10006f60: and byte [ebp-0x17ADEFFF], ch ; fdiv dword [ecx-0x3B7D0000] ; sbb byte [edi+0x5E], bl ; pop ebx ; ret  ;  (1 found)
0x100066fb: and byte [ebp-0x17ADEFFF], ch ; xor dword [edx+0x438B0000], edi ; xor byte [ebx+0x006A18C4], al ; push eax ; call dword [0x10013128] ;  (1 found)
0x1000356a: and byte [ebp-0x17AEEFFF], ch ; retn 0x00EB ;  (1 found)
0x10003b8b: and byte [ebp-0x17AFEFFF], ch ; lodsd  ; in eax, 0x00 ; add byte [ebx+0x016A18C4], al ; call dword [0x1001312C] ;  (1 found)
0x10005dfe: and byte [ebp-0x17AFEFFF], ch ; ret  ;  (1 found)
0x100069a4: and byte [ebp-0x17AFEFFF], ch ; xchg eax, esp ; mov bh, 0x00 ; add byte [ebx+0x5E5F18C4], al ; ret  ;  (1 found)
0x1000469b: and byte [ebx+0x014D8DC5], cl ; sub eax, esi ; add word [ebx], ax ; push ecx ; call dword [0x1001312C] ;  (1 found)
0x100050db: and byte [ebx+0x204D8DC5], cl ; sub eax, esi ; add word [ebx], ax ; push ecx ; call dword [0x1001312C] ;  (1 found)
0x10003815: and byte [ebx+0x4E8B18C4], al ; pop esp ; push 0xFFFFFFFF ; push ecx ; call dword [0x10013090] ;  (1 found)
0x1000fc79: and byte [ebx+0x510C244C], cl ; call dword [0x1001301C] ;  (1 found)
0x10004a8a: and byte [ebx+0x52102454], cl ; call dword [0x1001312C] ;  (1 found)
0x10002776: and byte [ebx+0x5B5E5FC3], cl ; add esp, 0x10 ; ret  ;  (1 found)
0x10002743: and byte [ebx+0x5B5E5FC3], cl ; add esp, 0x10 ; ret  ;  (1 found)
0x1000fd7f: and byte [ebx+0x5B5E5FC6], cl ; add esp, 0x00000918 ; ret  ;  (1 found)
0x10002838: and byte [ebx+0x5B5E5FC6], cl ; add esp, 0x10 ; ret  ;  (1 found)
0x10002805: and byte [ebx+0x5B5E5FC6], cl ; add esp, 0x10 ; ret  ;  (1 found)
0x10007ddf: and byte [ebx+0x5B5E5FC7], cl ; add esp, 0x08 ; ret  ;  (1 found)
0x10007e12: and byte [ebx+0x5B5E5FC7], cl ; add esp, 0x08 ; ret  ;  (1 found)
0x10008ab0: and byte [ebx+0x5B5E5FC7], cl ; add esp, 0x08 ; ret  ;  (1 found)
0x10008ae3: and byte [ebx+0x5B5E5FC7], cl ; add esp, 0x08 ; ret  ;  (1 found)
0x10007f94: and byte [ebx+0x5B5E5FC7], cl ; add esp, 0x10 ; ret  ;  (1 found)
0x1000922d: and byte [ebx+0x5B5E5FC7], cl ; pop ecx ; ret  ;  (1 found)
0x100091fc: and byte [ebx+0x5B5E5FC7], cl ; pop ecx ; ret  ;  (1 found)
0x1000728b: and byte [ebx+0x5B5EFFC8], al ; pop ecx ; ret  ;  (1 found)
0x1000741b: and byte [ebx+0x5B5EFFC8], al ; pop ecx ; ret  ;  (1 found)
0x1000759b: and byte [ebx+0x5B5EFFC8], al ; pop ecx ; ret  ;  (1 found)
0x1000772b: and byte [ebx+0x5B5EFFC8], al ; pop ecx ; ret  ;  (1 found)
0x100096c7: and byte [ebx+0x5D5E5FC3], cl ; pop ebx ; add esp, 0x08 ; ret  ;  (1 found)
0x100096fb: and byte [ebx+0x5D5E5FC3], cl ; pop ebx ; add esp, 0x08 ; ret  ;  (1 found)
0x1000ecbb: and byte [ebx+0x5D5E5FC3], cl ; pop ebx ; add esp, 0x28 ; ret  ;  (1 found)
0x1000ecee: and byte [ebx+0x5D5E5FC3], cl ; pop ebx ; add esp, 0x28 ; ret  ;  (1 found)
0x1000992e: and byte [ebx+0x5D5E5FC3], cl ; pop ebx ; pop ecx ; ret  ;  (1 found)
0x10009960: and byte [ebx+0x5D5E5FC3], cl ; pop ebx ; pop ecx ; ret  ;  (1 found)
0x10008373: and byte [ebx+0x5D5E5FC3], cl ; pop ebx ; pop ecx ; ret  ;  (1 found)
0x10008560: and byte [ebx+0x5D5E5FC3], cl ; pop ebx ; pop ecx ; ret  ;  (1 found)
0x10008591: and byte [ebx+0x5D5E5FC3], cl ; pop ebx ; pop ecx ; ret  ;  (1 found)
0x100083a4: and byte [ebx+0x5D5E5FC3], cl ; pop ebx ; pop ecx ; ret  ;  (1 found)
0x10008750: and byte [ebx+0x5D5E5FC3], cl ; pop ebx ; pop ecx ; ret  ;  (1 found)
0x10008781: and byte [ebx+0x5D5E5FC3], cl ; pop ebx ; pop ecx ; ret  ;  (1 found)
0x10008922: and byte [ebx+0x5D5E5FC3], cl ; pop ebx ; pop ecx ; ret  ;  (1 found)
0x10008953: and byte [ebx+0x5D5E5FC3], cl ; pop ebx ; pop ecx ; ret  ;  (1 found)
0x10009fef: and byte [ebx+0x5D5E5FC3], cl ; pop ebx ; pop ecx ; ret  ;  (1 found)
0x1000a021: and byte [ebx+0x5D5E5FC3], cl ; pop ebx ; pop ecx ; ret  ;  (1 found)
0x100093f9: and byte [ebx+0x5D5E5FC3], cl ; pop ebx ; ret  ;  (1 found)
0x1000942a: and byte [ebx+0x5D5E5FC3], cl ; pop ebx ; ret  ;  (1 found)
0x10005c86: and byte [ebx+0x5D5E5FC5], cl ; pop ebx ; add esp, 0x00000094 ; ret  ;  (1 found)
0x10006e86: and byte [ebx+0x5D5E5FC6], cl ; pop ebx ; add esp, 0x10 ; ret  ;  (1 found)
0x10002ca1: and byte [ebx+0x5D5E5FC6], cl ; pop ebx ; add esp, 0x18 ; ret  ;  (1 found)
0x10002c6d: and byte [ebx+0x5D5E5FC6], cl ; pop ebx ; add esp, 0x18 ; ret  ;  (1 found)
0x1000415b: and byte [ebx+0x5D5E5FC6], cl ; pop ebx ; add esp, 0x24 ; ret  ;  (1 found)
0x100045ff: and byte [ebx+0x5D5E5FC6], cl ; pop ebx ; add esp, 0x4C ; ret  ;  (1 found)
0x10005039: and byte [ebx+0x5D5E5FC6], cl ; pop ebx ; add esp, 0x78 ; ret  ;  (1 found)
0x10002b05: and byte [ebx+0x5D5E5FC6], cl ; pop ebx ; pop ecx ; ret  ;  (1 found)
0x10002ad4: and byte [ebx+0x5D5E5FC6], cl ; pop ebx ; pop ecx ; ret  ;  (1 found)
0x1000296c: and byte [ebx+0x5D5E5FC6], cl ; pop ebx ; ret  ;  (1 found)
0x1000299d: and byte [ebx+0x5D5E5FC6], cl ; pop ebx ; ret  ;  (1 found)
0x10002e01: and byte [ebx+0x5D5E5FC6], cl ; pop ebx ; ret  ;  (1 found)
0x10002dd0: and byte [ebx+0x5D5E5FC6], cl ; pop ebx ; ret  ;  (1 found)
0x10009c26: and byte [ebx+0x5D5E5FC7], cl ; pop ebx ; add esp, 0x08 ; ret  ;  (1 found)
0x10009c59: and byte [ebx+0x5D5E5FC7], cl ; pop ebx ; add esp, 0x08 ; ret  ;  (1 found)
0x1000259f: and byte [ebx+0x5D5E5FC7], cl ; pop ebx ; add esp, 0x2C ; ret  ;  (1 found)
0x1000256c: and byte [ebx+0x5D5E5FC7], cl ; pop ebx ; add esp, 0x2C ; ret  ;  (1 found)
0x1000317b: and byte [ebx+0x5D5E5FC7], cl ; pop ebx ; add esp, 0x38 ; ret  ;  (1 found)
0x100031ae: and byte [ebx+0x5D5E5FC7], cl ; pop ebx ; add esp, 0x38 ; ret  ;  (1 found)
0x100071fa: and byte [ebx+0x5D5E5FC7], cl ; pop ebx ; pop ecx ; ret  ;  (1 found)
0x100071c8: and byte [ebx+0x5D5E5FC7], cl ; pop ebx ; pop ecx ; ret  ;  (1 found)
0x100079c7: and byte [ebx+0x5D5E5FC7], cl ; pop ebx ; pop ecx ; ret  ;  (1 found)
0x100079f9: and byte [ebx+0x5D5E5FC7], cl ; pop ebx ; pop ecx ; ret  ;  (1 found)
0x10008c7d: and byte [ebx+0x5D5E5FC7], cl ; pop ebx ; pop ecx ; ret  ;  (1 found)
0x10008cae: and byte [ebx+0x5D5E5FC7], cl ; pop ebx ; pop ecx ; ret  ;  (1 found)
0x10008e7e: and byte [ebx+0x5D5E5FC7], cl ; pop ebx ; pop ecx ; ret  ;  (1 found)
0x10008e4d: and byte [ebx+0x5D5E5FC7], cl ; pop ebx ; pop ecx ; ret  ;  (1 found)
0x1000901d: and byte [ebx+0x5D5E5FC7], cl ; pop ebx ; pop ecx ; ret  ;  (1 found)
0x1000904e: and byte [ebx+0x5D5E5FC7], cl ; pop ebx ; pop ecx ; ret  ;  (1 found)
0x1000a4a9: and byte [ebx+0x5D5E5FC7], cl ; pop ebx ; pop ecx ; ret  ;  (1 found)
0x1000a4db: and byte [ebx+0x5D5E5FC7], cl ; pop ebx ; pop ecx ; ret  ;  (1 found)
0x1000a88d: and byte [ebx+0x5D5E5FC7], cl ; pop ebx ; pop ecx ; ret  ;  (1 found)
0x1000a8be: and byte [ebx+0x5D5E5FC7], cl ; pop ebx ; pop ecx ; ret  ;  (1 found)
0x100070ff: and byte [ebx+0x5D5EFFC8], al ; pop ebx ; pop ecx ; ret  ;  (1 found)
0x100078ef: and byte [ebx+0x5D5EFFC8], al ; pop ebx ; pop ecx ; ret  ;  (1 found)
0x10008b9f: and byte [ebx+0x5D5EFFC8], al ; pop ebx ; pop ecx ; ret  ;  (1 found)
0x10008f3f: and byte [ebx+0x5D5EFFC8], al ; pop ebx ; pop ecx ; ret  ;  (1 found)
0x10008d6f: and byte [ebx+0x5D5EFFC8], al ; pop ebx ; pop ecx ; ret  ;  (1 found)
0x1000a7cf: and byte [ebx+0x5D5EFFC8], al ; pop ebx ; pop ecx ; ret  ;  (1 found)
0x1000735d: and byte [ebx+0x5E5D5FC7], cl ; pop ebx ; pop ecx ; ret  ;  (1 found)
0x1000738f: and byte [ebx+0x5E5D5FC7], cl ; pop ebx ; pop ecx ; ret  ;  (1 found)
0x100074dc: and byte [ebx+0x5E5D5FC7], cl ; pop ebx ; pop ecx ; ret  ;  (1 found)
0x1000750d: and byte [ebx+0x5E5D5FC7], cl ; pop ebx ; pop ecx ; ret  ;  (1 found)
0x1000766c: and byte [ebx+0x5E5D5FC7], cl ; pop ebx ; pop ecx ; ret  ;  (1 found)
0x1000769e: and byte [ebx+0x5E5D5FC7], cl ; pop ebx ; pop ecx ; ret  ;  (1 found)
0x10007801: and byte [ebx+0x5E5D5FC7], cl ; pop ebx ; pop ecx ; ret  ;  (1 found)
0x10007832: and byte [ebx+0x5E5D5FC7], cl ; pop ebx ; pop ecx ; ret  ;  (1 found)
0x100015cc: and byte [ebx+0x5E5FFFC8], al ; add esp, 0x10 ; ret  ;  (1 found)
0x10008052: and byte [ebx+0x5E5FFFC8], al ; pop ebp ; pop ebx ; add esp, 0x08 ; ret  ;  (1 found)
0x10009524: and byte [ebx+0x5E5FFFC8], al ; pop ebp ; pop ebx ; add esp, 0x08 ; ret  ;  (1 found)
0x10009ab3: and byte [ebx+0x5E5FFFC8], al ; pop ebp ; pop ebx ; add esp, 0x08 ; ret  ;  (1 found)
0x100023e5: and byte [ebx+0x5E5FFFC8], al ; pop ebp ; pop ebx ; add esp, 0x2C ; ret  ;  (1 found)
0x1000983d: and byte [ebx+0x5E5FFFC8], al ; pop ebp ; pop ebx ; pop ecx ; ret  ;  (1 found)
0x10008280: and byte [ebx+0x5E5FFFC8], al ; pop ebp ; pop ebx ; pop ecx ; ret  ;  (1 found)
0x10008460: and byte [ebx+0x5E5FFFC8], al ; pop ebp ; pop ebx ; pop ecx ; ret  ;  (1 found)
0x10008650: and byte [ebx+0x5E5FFFC8], al ; pop ebp ; pop ebx ; pop ecx ; ret  ;  (1 found)
0x10008840: and byte [ebx+0x5E5FFFC8], al ; pop ebp ; pop ebx ; pop ecx ; ret  ;  (1 found)
0x1000a36f: and byte [ebx+0x5E5FFFC8], al ; pop ebp ; pop ebx ; pop ecx ; ret  ;  (1 found)
0x10005dd0: and byte [ebx+0x5E5FFFC8], al ; pop ebp ; pop ebx ; ret  ;  (1 found)
0x10005e98: and byte [ebx+0x5E5FFFC8], al ; pop ebp ; pop ebx ; ret  ;  (1 found)
0x10009313: and byte [ebx+0x5E5FFFC8], al ; pop ebp ; pop ebx ; ret  ;  (1 found)
0x1000fdd7: and byte [ebx+0x5E5FFFC8], al ; pop ebx ; add esp, 0x00000918 ; ret  ;  (1 found)
0x10007c6a: and byte [ebx+0x5E5FFFC8], al ; pop ebx ; add esp, 0x08 ; ret  ;  (1 found)
0x100089f2: and byte [ebx+0x5E5FFFC8], al ; pop ebx ; add esp, 0x08 ; ret  ;  (1 found)
0x1000910e: and byte [ebx+0x5E5FFFC8], al ; pop ebx ; pop ecx ; ret  ;  (1 found)
0x10005f6c: and byte [ebx+0x5E5FFFC8], al ; pop ebx ; ret  ;  (1 found)
0x1000603d: and byte [ebx+0x5E5FFFC8], al ; pop ebx ; ret  ;  (1 found)
0x1000e1de: and byte [ebx-0x0095F382], cl ; mov eax, dword [edi+0x30] ; push eax ; call ebp ;  (1 found)
0x1000f047: and byte [ebx-0x3CA1A03A], cl ; pop edi ; xor eax, eax ; pop esi ; ret  ;  (1 found)
0x10001707: and byte [ebx-0x7CA1A039], cl ; les edx,  [eax] ; ret  ;  (1 found)
0x100016d5: and byte [ebx-0x7CA1A039], cl ; les edx,  [eax] ; ret  ;  (1 found)
0x1000fe72: and byte [ebx], dh ; rcr byte [edi+0x5E], 0x0000005B ; add esp, 0x00000918 ; ret  ;  (1 found)
0x100060b3: and byte [ebx], dh ; rcr byte [edi+0x5E], 0x0000005B ; ret  ;  (1 found)
0x1000dfee: and byte [ebx], dh ; rcr byte [edi+0x5E], 0x0000005D ; pop ebx ; add esp, 0x10 ; ret  ;  (1 found)
0x1000dfba: and byte [ebx], dh ; rcr byte [edi+0x5E], 0x0000005D ; pop ebx ; add esp, 0x10 ; ret  ;  (1 found)
0x10005f05: and byte [ebx], dh ; rcr byte [edi+0x5E], 0x0000005D ; pop ebx ; ret  ;  (1 found)
0x100034f4: and byte [ebx], dh ; rol byte [ecx+0x000414C4], 0x00000000 ; ret  ;  (1 found)
0x1000fa3c: and byte [edi+0x5E], bl ; pop ebx ; add esp, 0x54 ; ret  ;  (1 found)
0x100115c6: and byte [edi+0x5E], bl ; pop ebx ; ret  ;  (1 found)
0x1000efde: and byte [edx+0x00], ch ; push edi ; push edx ; push esi ; call dword [0x10013158] ;  (1 found)
0x10011f3e: and byte [edx+0x10], ch ; push ecx ; push esi ; mov word [esp+0x2E], ax ; call dword [0x10013150] ;  (1 found)
0x10005454: and byte [edx-0x15], dl ; add ch, byte [edx+0x20] ; call ebx ;  (1 found)
0x1000329c: and byte [edx], al ; add byte [eax], al ; push 0x1001ACA4 ; push eax ; call esi ;  (1 found)
0x1000ac6d: and byte [esi-0x7D], ah ; inc byte [edx+0x75] ; or byte [edx+0x06], ch ; call ebx ;  (1 found)
0x10001493: and cl, byte [ebx+0x5108244C] ; call eax ;  (1 found)
0x1000b8a0: and eax, 0x0000FFFF ; add ecx, edx ; push 0x00000001 ; lea ebx, dword [eax+ecx] ; call edi ;  (1 found)
0x10012131: and eax, 0x10013114 ; jmp dword [0x10013170] ;  (1 found)
0x10012137: and eax, 0x10013170 ; jmp dword [0x10013174] ;  (1 found)
0x1001213d: and eax, 0x10013174 ; jmp dword [0x10013178] ;  (1 found)
0x10012143: and eax, 0x10013178 ; jmp dword [0x1001317C] ;  (1 found)
0x10012149: and eax, 0x1001317C ; jmp dword [0x10013180] ;  (1 found)
0x1001214f: and eax, 0x10013180 ; jmp dword [0x10013184] ;  (1 found)
0x10012155: and eax, 0x10013184 ; jmp dword [0x10013188] ;  (1 found)
0x1001215b: and eax, 0x10013188 ; jmp dword [0x1001318C] ;  (1 found)
0x10012161: and eax, 0x1001318C ; jmp dword [0x10013194] ;  (1 found)
0x1001216d: and eax, 0x10013190 ; jmp dword [0x10013198] ;  (1 found)
0x10012167: and eax, 0x10013194 ; jmp dword [0x10013190] ;  (1 found)
0x10012373: and eax, 0x1002FDC4 ; add byte [ecx+0x5E], bl ; push 0x00000001 ; pop eax ; retn 0x000C ;  (1 found)
0x100119d7: and eax, dword [eax+0x006A0000] ; call dword [0x1001311C] ;  (1 found)
0x10010960: and eax, dword [eax+0x006A0000] ; call dword [0x1001311C] ;  (1 found)
0x10005476: and ebp, 0x0000FFFF ; add ebp, edi ; inc ecx ; push ecx ; call ebx ;  (1 found)
0x1000c7f8: and ebx, 0x0000FFFF ; push 0x00000007 ; call dword [0x1001312C] ;  (1 found)
0x1000ca08: and ebx, 0x0000FFFF ; push 0x00000009 ; call dword [0x1001312C] ;  (1 found)
0x1000a0ae: and ecx, 0x0000FFFF ; add eax, edx ; push 0x00000065 ; lea ebx, dword [ecx+eax] ; call edi ;  (1 found)
0x10003031: and ecx, 0x03 ; lea ebx, dword [ebx+eax+0x05] ; rep movsb  ; mov edi, dword [0x1001312C] ; call edi ;  (1 found)
0x1001069b: and ecx, 0x03 ; rep movsb  ; call dword [0x10013034] ;  (1 found)
0x1000521d: and ecx, 0x03 ; rep movsb  ; call dword [0x1001312C] ;  (1 found)
0x100056c6: and ecx, 0x03 ; rep movsb  ; mov edi, dword [esp+0x1C] ; push edi ; call dword [0x1001312C] ;  (1 found)
0x10005721: and ecx, 0x03 ; rep movsb  ; mov esi, dword [esp+0x20] ; push esi ; call dword [0x1001312C] ;  (1 found)
0x10010484: and ecx, 0x03 ; rep movsb  ; pop edi ; pop esi ; ret  ;  (1 found)
0x1000af7e: and edi, 0x0000FFFF ; push 0x000000CA ; call dword [0x1001312C] ;  (1 found)
0x1000b2b4: and edi, 0x0000FFFF ; push 0x000000CC ; call dword [0x1001312C] ;  (1 found)
0x1000a168: bound ebp, dword [edx+0x14] ; call edi ;  (1 found)
0x10011b83: call dword [0x10013000] ;  (1 found)
0x10011bac: call dword [0x10013004] ;  (1 found)
0x10011bd3: call dword [0x10013008] ;  (1 found)
0x10011bff: call dword [0x1001300C] ;  (1 found)
0x10011c2d: call dword [0x10013010] ;  (1 found)
0x10011b5a: call dword [0x10013014] ;  (1 found)
0x1000fba4: call dword [0x1001301C] ;  (1 found)
0x1000fc7f: call dword [0x1001301C] ;  (1 found)
0x1000fc44: call dword [0x10013020] ;  (1 found)
0x1000f65e: call dword [0x10013028] ;  (1 found)
0x10010113: call dword [0x1001302C] ;  (1 found)
0x1001085a: call dword [0x1001302C] ;  (1 found)
0x1001019a: call dword [0x10013030] ;  (1 found)
0x10010374: call dword [0x10013034] ;  (1 found)
0x10010380: call dword [0x10013034] ;  (1 found)
0x1001038f: call dword [0x10013034] ;  (1 found)
0x10010616: call dword [0x10013034] ;  (1 found)
0x100105e7: call dword [0x10013034] ;  (1 found)
0x10010624: call dword [0x10013034] ;  (1 found)
0x100106b6: call dword [0x10013034] ;  (1 found)
0x100106a0: call dword [0x10013034] ;  (1 found)
0x100106fc: call dword [0x10013034] ;  (1 found)
0x10010367: call dword [0x10013038] ;  (1 found)
0x1001060b: call dword [0x1001303C] ;  (1 found)
0x100106f3: call dword [0x1001303C] ;  (1 found)
0x1001073e: call dword [0x10013040] ;  (1 found)
0x10010834: call dword [0x10013044] ;  (1 found)
0x10010889: call dword [0x10013048] ;  (1 found)
0x10010e37: call dword [0x10013050] ;  (1 found)
0x10011051: call dword [0x10013054] ;  (1 found)
0x10011287: call dword [0x10013058] ;  (1 found)
0x10011944: call dword [0x10013058] ;  (1 found)
0x10010e72: call dword [0x10013058] ;  (1 found)
0x10011271: call dword [0x1001305C] ;  (1 found)
0x10011937: call dword [0x1001305C] ;  (1 found)
0x10010e62: call dword [0x1001305C] ;  (1 found)
0x10011481: call dword [0x10013060] ;  (1 found)
0x1001154a: call dword [0x10013064] ;  (1 found)
0x10011529: call dword [0x10013068] ;  (1 found)
0x10011a9f: call dword [0x1001306C] ;  (1 found)
0x10011062: call dword [0x10013070] ;  (1 found)
0x1001011a: call dword [0x10013070] ;  (1 found)
0x1001011b: call dword [0x10013070] ;  (1 found)
0x100101a6: call dword [0x10013070] ;  (1 found)
0x100105c1: call dword [0x10013070] ;  (1 found)
0x10010659: call dword [0x10013070] ;  (1 found)
0x100106d2: call dword [0x10013070] ;  (1 found)
0x10011b8d: call dword [0x10013070] ;  (1 found)
0x10011bdd: call dword [0x10013070] ;  (1 found)
0x10011bb6: call dword [0x10013070] ;  (1 found)
0x10011c09: call dword [0x10013070] ;  (1 found)
0x10011c37: call dword [0x10013070] ;  (1 found)
0x1000f5c8: call dword [0x10013074] ;  (1 found)
0x1000f5d8: call dword [0x10013078] ;  (1 found)
0x100099f3: call dword [0x10013080] ;  (1 found)
0x10009d93: call dword [0x10013080] ;  (1 found)
0x1000d67c: call dword [0x10013080] ;  (1 found)
0x10011297: call dword [0x10013080] ;  (1 found)
0x10011451: call dword [0x10013080] ;  (1 found)
0x10006c21: call dword [0x10013084] ;  (1 found)
0x1000f6a5: call dword [0x10013084] ;  (1 found)
0x10001f1c: call dword [0x10013088] ;  (1 found)
0x1000deac: call dword [0x10013088] ;  (1 found)
0x1000f59f: call dword [0x10013088] ;  (1 found)
0x1001209b: call dword [0x10013088] ;  (1 found)
0x10001f7f: call dword [0x1001308C] ;  (1 found)
0x1000ee26: call dword [0x1001308C] ;  (1 found)
0x1000d9ac: call dword [0x1001308C] ;  (1 found)
0x1000eea0: call dword [0x1001308C] ;  (1 found)
0x1000ef45: call dword [0x1001308C] ;  (1 found)
0x10011338: call dword [0x1001308C] ;  (1 found)
0x100113c2: call dword [0x1001308C] ;  (1 found)
0x1001195e: call dword [0x1001308C] ;  (1 found)
0x1001210c: call dword [0x1001308C] ;  (1 found)
0x10001139: call dword [0x10013090] ;  (1 found)
0x10001298: call dword [0x10013090] ;  (1 found)
0x100015df: call dword [0x10013090] ;  (1 found)
0x1000175c: call dword [0x10013090] ;  (1 found)
0x10001985: call dword [0x10013090] ;  (1 found)
0x10001c99: call dword [0x10013090] ;  (1 found)
0x1000381f: call dword [0x10013090] ;  (1 found)
0x10003675: call dword [0x10013090] ;  (1 found)
0x10003ac3: call dword [0x10013090] ;  (1 found)
0x100038aa: call dword [0x10013090] ;  (1 found)
0x10006ad5: call dword [0x10013090] ;  (1 found)
0x10006be0: call dword [0x10013090] ;  (1 found)
0x10006d8c: call dword [0x10013090] ;  (1 found)
0x10006e10: call dword [0x10013090] ;  (1 found)
0x1000d953: call dword [0x10013090] ;  (1 found)
0x1000da59: call dword [0x10013090] ;  (1 found)
0x1000e0b3: call dword [0x10013090] ;  (1 found)
0x1000f1de: call dword [0x10013090] ;  (1 found)
0x100120ce: call dword [0x10013090] ;  (1 found)
0x100011a2: call dword [0x10013094] ;  (1 found)
0x100011cc: call dword [0x10013094] ;  (1 found)
0x100012f0: call dword [0x10013094] ;  (1 found)
0x100016a2: call dword [0x10013094] ;  (1 found)
0x1000178e: call dword [0x10013094] ;  (1 found)
0x10001d0a: call dword [0x10013094] ;  (1 found)
0x10003712: call dword [0x10013094] ;  (1 found)
0x10003834: call dword [0x10013094] ;  (1 found)
0x100035fc: call dword [0x10013094] ;  (1 found)
0x10003b27: call dword [0x10013094] ;  (1 found)
0x10006b03: call dword [0x10013094] ;  (1 found)
0x10006d4f: call dword [0x10013094] ;  (1 found)
0x10006ddc: call dword [0x10013094] ;  (1 found)
0x1000ee41: call dword [0x10013094] ;  (1 found)
0x1000d9d0: call dword [0x10013094] ;  (1 found)
0x1000da6e: call dword [0x10013094] ;  (1 found)
0x1000e12c: call dword [0x10013094] ;  (1 found)
0x1000e20a: call dword [0x10013094] ;  (1 found)
0x1000e1f9: call dword [0x10013094] ;  (1 found)
0x1000eef8: call dword [0x10013094] ;  (1 found)
0x1000f24b: call dword [0x10013094] ;  (1 found)
0x1000f361: call dword [0x10013094] ;  (1 found)
0x1000f486: call dword [0x10013094] ;  (1 found)
0x1000f45d: call dword [0x10013094] ;  (1 found)
0x10012438: call dword [0x10013098] ;  (1 found)
0x1001198c: call dword [0x100130A8] ;  (1 found)
0x1001165c: call dword [0x100130AC] ;  (1 found)
0x100116c2: call dword [0x100130AC] ;  (1 found)
0x1001175d: call dword [0x100130AC] ;  (1 found)
0x100117d9: call dword [0x100130AC] ;  (1 found)
0x1001187d: call dword [0x100130AC] ;  (1 found)
0x100118f8: call dword [0x100130AC] ;  (1 found)
0x10011603: call dword [0x100130B0] ;  (1 found)
0x10012304: call dword [0x100130B0] ;  (1 found)
0x100117a3: call dword [0x100130B4] ;  (1 found)
0x1001236c: call dword [0x100130B4] ;  (1 found)
0x10011506: call dword [0x100130B8] ;  (1 found)
0x10011a2a: call dword [0x100130BC] ;  (1 found)
0x10010b2d: call dword [0x100130C4] ;  (1 found)
0x1001140a: call dword [0x100130C8] ;  (1 found)
0x10010b54: call dword [0x100130C8] ;  (1 found)
0x100109e9: call dword [0x100130CC] ;  (1 found)
0x100109f4: call dword [0x100130D0] ;  (1 found)
0x100107d1: call dword [0x100130D4] ;  (1 found)
0x100105b5: call dword [0x100130D8] ;  (1 found)
0x1001059f: call dword [0x100130DC] ;  (1 found)
0x1001057f: call dword [0x100130E0] ;  (1 found)
0x10010507: call dword [0x100130E4] ;  (1 found)
0x100104c4: call dword [0x100130E8] ;  (1 found)
0x1001049f: call dword [0x100130EC] ;  (1 found)
0x100103d4: call dword [0x100130F0] ;  (1 found)
0x100050cf: call dword [0x100130F4] ;  (1 found)
0x100051da: call dword [0x100130F4] ;  (1 found)
0x100047c4: call dword [0x100130F4] ;  (1 found)
0x1000468f: call dword [0x100130F4] ;  (1 found)
0x10003288: call dword [0x100130F8] ;  (1 found)
0x100119f7: call dword [0x100130FC] ;  (1 found)
0x10003232: call dword [0x10013100] ;  (1 found)
0x100103ef: call dword [0x10013100] ;  (1 found)
0x10001a0f: call dword [0x10013108] ;  (1 found)
0x10001a29: call dword [0x1001310C] ;  (1 found)
0x100119dd: call dword [0x1001311C] ;  (1 found)
0x10010966: call dword [0x1001311C] ;  (1 found)
0x100108cf: call dword [0x10013120] ;  (1 found)
0x10004460: call dword [0x10013128] ;  (1 found)
0x1000656f: call dword [0x10013128] ;  (1 found)
0x1000670e: call dword [0x10013128] ;  (1 found)
0x100077bd: call dword [0x10013128] ;  (1 found)
0x10007b95: call dword [0x10013128] ;  (1 found)
0x10009602: call dword [0x10013128] ;  (1 found)
0x10009b9f: call dword [0x10013128] ;  (1 found)
0x1000832f: call dword [0x10013128] ;  (1 found)
0x10008c39: call dword [0x10013128] ;  (1 found)
0x10008e09: call dword [0x10013128] ;  (1 found)
0x10008fd9: call dword [0x10013128] ;  (1 found)
0x100091b8: call dword [0x10013128] ;  (1 found)
0x10009fa8: call dword [0x10013128] ;  (1 found)
0x1000a944: call dword [0x10013128] ;  (1 found)
0x10011f26: call dword [0x10013128] ;  (1 found)
0x1000307b: call dword [0x1001312C] ;  (1 found)
0x100030cd: call dword [0x1001312C] ;  (1 found)
0x10003085: call dword [0x1001312C] ;  (1 found)
0x10003b9a: call dword [0x1001312C] ;  (1 found)
0x100050e7: call dword [0x1001312C] ;  (1 found)
0x100051f2: call dword [0x1001312C] ;  (1 found)
0x100046a7: call dword [0x1001312C] ;  (1 found)
0x100047e3: call dword [0x1001312C] ;  (1 found)
0x10004a90: call dword [0x1001312C] ;  (1 found)
0x100056d0: call dword [0x1001312C] ;  (1 found)
0x1000572b: call dword [0x1001312C] ;  (1 found)
0x100056e7: call dword [0x1001312C] ;  (1 found)
0x10005222: call dword [0x1001312C] ;  (1 found)
0x10006519: call dword [0x1001312C] ;  (1 found)
0x100066b8: call dword [0x1001312C] ;  (1 found)
0x1000b4a4: call dword [0x1001312C] ;  (1 found)
0x1000baad: call dword [0x1001312C] ;  (1 found)
0x1000bb39: call dword [0x1001312C] ;  (1 found)
0x1000bd03: call dword [0x1001312C] ;  (1 found)
0x1000a574: call dword [0x1001312C] ;  (1 found)
0x1000ac03: call dword [0x1001312C] ;  (1 found)
0x1000aa5c: call dword [0x1001312C] ;  (1 found)
0x1000adee: call dword [0x1001312C] ;  (1 found)
0x1000af89: call dword [0x1001312C] ;  (1 found)
0x1000b11e: call dword [0x1001312C] ;  (1 found)
0x1000b2bf: call dword [0x1001312C] ;  (1 found)
0x1000ca10: call dword [0x1001312C] ;  (1 found)
0x1000cc13: call dword [0x1001312C] ;  (1 found)
0x1000ce33: call dword [0x1001312C] ;  (1 found)
0x1000d0ce: call dword [0x1001312C] ;  (1 found)
0x1000d367: call dword [0x1001312C] ;  (1 found)
0x1000d413: call dword [0x1001312C] ;  (1 found)
0x1000bf7d: call dword [0x1001312C] ;  (1 found)
0x1000c20d: call dword [0x1001312C] ;  (1 found)
0x1000c43d: call dword [0x1001312C] ;  (1 found)
0x1000c800: call dword [0x1001312C] ;  (1 found)
0x1000c61e: call dword [0x1001312C] ;  (1 found)
0x1000d6b6: call dword [0x1001312C] ;  (1 found)
0x1000f281: call dword [0x1001312C] ;  (1 found)
0x10011f35: call dword [0x1001312C] ;  (1 found)
0x10004621: call dword [0x10013130] ;  (1 found)
0x10003ee8: call dword [0x10013130] ;  (1 found)
0x10004397: call dword [0x10013130] ;  (1 found)
0x1000446f: call dword [0x10013130] ;  (1 found)
0x10004cd4: call dword [0x10013130] ;  (1 found)
0x10005060: call dword [0x10013130] ;  (1 found)
0x10005161: call dword [0x10013130] ;  (1 found)
0x10004ac0: call dword [0x10013130] ;  (1 found)
0x10004bb0: call dword [0x10013130] ;  (1 found)
0x10005461: call dword [0x10013130] ;  (1 found)
0x10005487: call dword [0x10013130] ;  (1 found)
0x10005cd8: call dword [0x10013130] ;  (1 found)
0x10005f7a: call dword [0x10013130] ;  (1 found)
0x10006756: call dword [0x10013130] ;  (1 found)
0x10007ba9: call dword [0x10013130] ;  (1 found)
0x10007f19: call dword [0x10013130] ;  (1 found)
0x1000bd13: call dword [0x10013130] ;  (1 found)
0x1000be0e: call dword [0x10013130] ;  (1 found)
0x1000e793: call dword [0x10013130] ;  (1 found)
0x1000e7b5: call dword [0x10013130] ;  (1 found)
0x1000e8a4: call dword [0x10013130] ;  (1 found)
0x1000ebd7: call dword [0x10013130] ;  (1 found)
0x10002bb1: call dword [0x10013134] ;  (1 found)
0x10004e8b: call dword [0x10013134] ;  (1 found)
0x10004a9f: call dword [0x10013134] ;  (1 found)
0x10004ba1: call dword [0x10013134] ;  (1 found)
0x1000565c: call dword [0x10013134] ;  (1 found)
0x10005648: call dword [0x10013134] ;  (1 found)
0x10005883: call dword [0x10013134] ;  (1 found)
0x10006c86: call dword [0x10013134] ;  (1 found)
0x10006c93: call dword [0x10013134] ;  (1 found)
0x10006ca0: call dword [0x10013134] ;  (1 found)
0x10006cad: call dword [0x10013134] ;  (1 found)
0x10007eb6: call dword [0x10013134] ;  (1 found)
0x1000b6fd: call dword [0x10013134] ;  (1 found)
0x1000b302: call dword [0x10013134] ;  (1 found)
0x1000ca70: call dword [0x10013134] ;  (1 found)
0x1000c28d: call dword [0x10013134] ;  (1 found)
0x1000c860: call dword [0x10013134] ;  (1 found)
0x1000ed92: call dword [0x10013138] ;  (1 found)
0x1000f350: call dword [0x10013138] ;  (1 found)
0x1000f44c: call dword [0x10013138] ;  (1 found)
0x1001200f: call dword [0x10013138] ;  (1 found)
0x10011ff2: call dword [0x10013138] ;  (1 found)
0x1000ed67: call dword [0x1001313C] ;  (1 found)
0x1000f324: call dword [0x1001313C] ;  (1 found)
0x1000f421: call dword [0x1001313C] ;  (1 found)
0x10012008: call dword [0x1001313C] ;  (1 found)
0x10011feb: call dword [0x1001313C] ;  (1 found)
0x1000f620: call dword [0x10013144] ;  (1 found)
0x1000f4c6: call dword [0x10013148] ;  (1 found)
0x1000f4d6: call dword [0x1001314C] ;  (1 found)
0x1000f2ab: call dword [0x10013150] ;  (1 found)
0x10011f47: call dword [0x10013150] ;  (1 found)
0x10011f48: call dword [0x10013150] ;  (1 found)
0x10011fd5: call dword [0x10013154] ;  (1 found)
0x1000efe4: call dword [0x10013158] ;  (1 found)
0x10011f71: call dword [0x10013158] ;  (1 found)
0x1000f382: call dword [0x1001315C] ;  (1 found)
0x10011f14: call dword [0x1001315C] ;  (1 found)
0x10011fa6: call dword [0x10013160] ;  (1 found)
0x1000f015: call dword [0x10013164] ;  (1 found)
0x1000f204: call dword [0x10013164] ;  (1 found)
0x1000f2bc: call dword [0x10013164] ;  (1 found)
0x1000f1f3: call dword [0x10013168] ;  (1 found)
0x10011edc: call dword [0x10013168] ;  (1 found)
0x1000f695: call dword [0x100131A0] ;  (1 found)
0x1000f685: call dword [0x100131A4] ;  (1 found)
0x1000fd99: call dword [0x1002FB6C] ;  (1 found)
0x1000fdeb: call dword [0x1002FB80] ;  (1 found)
0x100100bb: call dword [0x1002FB84] ;  (1 found)
0x1000fed5: call dword [0x1002FB9C] ;  (1 found)
0x1000feb4: call dword [0x1002FBA0] ;  (1 found)
0x10010070: call dword [0x1002FBA4] ;  (1 found)
0x1000fec8: call dword [0x1002FBAC] ;  (1 found)
0x10010060: call dword [0x1002FBB0] ;  (1 found)
0x1000fee6: call dword [0x1002FBB8] ;  (1 found)
0x1000ff9c: call dword [0x1002FBC4] ;  (1 found)
0x1000fff9: call dword [0x1002FBC8] ;  (1 found)
0x1001001c: call dword [0x1002FBCC] ;  (1 found)
0x1000d6b5: call dword [di] ;  (1 found)
0x100112d5: call dword [eax+0x50] ;  (1 found)
0x10011140: call dword [eax+0x68] ;  (1 found)
0x100111c4: call dword [eax+0x68] ;  (1 found)
0x10011211: call dword [eax+0x68] ;  (1 found)
0x10011261: call dword [eax+0x68] ;  (1 found)
0x10010b1f: call dword [eax+0x68] ;  (1 found)
0x10001983: call dword [eax-0x01] ;  (1 found)
0x100035a0: call dword [eax-0x01] ;  (1 found)
0x10010715: call dword [eax-0x18] ;  (1 found)
0x10010aea: call dword [eax-0x18] ;  (1 found)
0x10010ac6: call dword [eax-0x18] ;  (1 found)
0x10011103: call dword [eax-0x73] ;  (1 found)
0x100111f2: call dword [eax-0x73] ;  (1 found)
0x100114aa: call dword [ebp-0x1C] ;  (1 found)
0x10006af1: call dword [ebx+0x08] ;  (1 found)
0x10006a2f: call dword [ebx+0x08] ;  (1 found)
0x10006234: call dword [ebx+0x34] ;  (1 found)
0x100063b4: call dword [ebx+0x34] ;  (1 found)
0x10006116: call dword [ebx+0x3A] ;  (1 found)
0x100061b2: call dword [ebx+0x3E] ;  (1 found)
0x10010ad2: call dword [ecx+0x68] ;  (1 found)
0x1000175a: call dword [ecx-0x01] ;  (1 found)
0x1000381d: call dword [ecx-0x01] ;  (1 found)
0x10003673: call dword [ecx-0x01] ;  (1 found)
0x10003ac1: call dword [ecx-0x01] ;  (1 found)
0x100038a8: call dword [ecx-0x01] ;  (1 found)
0x10003989: call dword [ecx-0x01] ;  (1 found)
0x10006927: call dword [ecx-0x01] ;  (1 found)
0x10006ad3: call dword [ecx-0x01] ;  (1 found)
0x10006bde: call dword [ecx-0x01] ;  (1 found)
0x10006827: call dword [ecx-0x01] ;  (1 found)
0x10006d8a: call dword [ecx-0x01] ;  (1 found)
0x10006e0e: call dword [ecx-0x01] ;  (1 found)
0x1000ed35: call dword [ecx-0x01] ;  (1 found)
0x1000d951: call dword [ecx-0x01] ;  (1 found)
0x1000e0b1: call dword [ecx-0x01] ;  (1 found)
0x1000e1a9: call dword [ecx-0x01] ;  (1 found)
0x1000f1dc: call dword [ecx-0x01] ;  (1 found)
0x1001110a: call dword [ecx-0x18] ;  (1 found)
0x100111d9: call dword [ecx-0x18] ;  (1 found)
0x10011191: call dword [ecx-0x18] ;  (1 found)
0x10011222: call dword [ecx-0x18] ;  (1 found)
0x10010af6: call dword [ecx-0x18] ;  (1 found)
0x100111f9: call dword [ecx-0x73] ;  (1 found)
0x10007e30: call dword [edi+0x53] ;  (1 found)
0x1000156f: call dword [edi+0x56] ;  (1 found)
0x1001130a: call dword [edi+0x56] ;  (1 found)
0x1001127e: call dword [edi+0x6A] ;  (1 found)
0x100111eb: call dword [edi-0x73] ;  (1 found)
0x10011200: call dword [edx+0x68] ;  (1 found)
0x10001137: call dword [edx-0x01] ;  (1 found)
0x100015dd: call dword [edx-0x01] ;  (1 found)
0x10001c97: call dword [edx-0x01] ;  (1 found)
0x1000358a: call dword [edx-0x01] ;  (1 found)
0x10003994: call dword [edx-0x01] ;  (1 found)
0x1000682f: call dword [edx-0x01] ;  (1 found)
0x1000692f: call dword [edx-0x01] ;  (1 found)
0x1000da57: call dword [edx-0x01] ;  (1 found)
0x1001112a: call dword [edx-0x18] ;  (1 found)
0x100111b1: call dword [edx-0x18] ;  (1 found)
0x100111e5: call dword [edx-0x18] ;  (1 found)
0x10011240: call dword [edx-0x18] ;  (1 found)
0x100103af: call dword [edx-0x18] ;  (1 found)
0x1001063f: call dword [edx-0x18] ;  (1 found)
0x10010ade: call dword [edx-0x18] ;  (1 found)
0x10010b07: call dword [edx-0x18] ;  (1 found)
0x1000ca62: call dword [edx-0x77] ;  (1 found)
0x1000c852: call dword [edx-0x77] ;  (1 found)
0x1000eee1: call dword [esi+0x34] ;  (1 found)
0x1000718f: call dword [esi+0x53] ;  (1 found)
0x10008717: call dword [esi+0x57] ;  (1 found)
0x10008527: call dword [esi+0x57] ;  (1 found)
0x100088e9: call dword [esi+0x57] ;  (1 found)
0x1000edc8: call dword [esi-0x01] ;  (1 found)
0x1000ef87: call dword [esi-0x01] ;  (1 found)
0x10011408: call dword [esi-0x01] ;  (1 found)
0x10010b52: call dword [esi-0x01] ;  (1 found)
0x10010b2b: call dword [esi-0x01] ;  (1 found)
0x10001641: call dword [esi-0x18] ;  (1 found)
0x1000176d: call dword [esi-0x18] ;  (1 found)
0x10001499: call eax ;  (1 found)
0x100039d6: call eax ;  (1 found)
0x1000629d: call eax ;  (1 found)
0x1000654f: call eax ;  (1 found)
0x10006423: call eax ;  (1 found)
0x100123b3: call eax ;  (1 found)
0x1001240f: call eax ;  (1 found)
0x10001c51: call ebp ;  (1 found)
0x10001b2f: call ebp ;  (1 found)
0x10001bf3: call ebp ;  (1 found)
0x10001be1: call ebp ;  (1 found)
0x10001bac: call ebp ;  (1 found)
0x10001cb2: call ebp ;  (1 found)
0x10001c76: call ebp ;  (1 found)
0x10003e6b: call ebp ;  (1 found)
0x10003e7b: call ebp ;  (1 found)
0x10003e8b: call ebp ;  (1 found)
0x1000404d: call ebp ;  (1 found)
0x10003f78: call ebp ;  (1 found)
0x10003c2c: call ebp ;  (1 found)
0x10003c37: call ebp ;  (1 found)
0x10005a53: call ebp ;  (1 found)
0x10005a61: call ebp ;  (1 found)
0x100065e6: call ebp ;  (1 found)
0x100065ad: call ebp ;  (1 found)
0x100065c4: call ebp ;  (1 found)
0x10009bc2: call ebp ;  (1 found)
0x10009bd1: call ebp ;  (1 found)
0x10009f79: call ebp ;  (1 found)
0x10009f88: call ebp ;  (1 found)
0x1000a967: call ebp ;  (1 found)
0x1000a99b: call ebp ;  (1 found)
0x1000a9a6: call ebp ;  (1 found)
0x1000a977: call ebp ;  (1 found)
0x1000e5e1: call ebp ;  (1 found)
0x1000e5d8: call ebp ;  (1 found)
0x1000edb6: call ebp ;  (1 found)
0x1000e1ab: call ebp ;  (1 found)
0x1000e1e8: call ebp ;  (1 found)
0x1000f129: call ebp ;  (1 found)
0x1000130f: call ebx ;  (1 found)
0x1000132d: call ebx ;  (1 found)
0x10001300: call ebx ;  (1 found)
0x1000131e: call ebx ;  (1 found)
0x100012d5: call ebx ;  (1 found)
0x1000133c: call ebx ;  (1 found)
0x1000135a: call ebx ;  (1 found)
0x1000134b: call ebx ;  (1 found)
0x10001667: call ebx ;  (1 found)
0x10001681: call ebx ;  (1 found)
0x10001674: call ebx ;  (1 found)
0x1000168e: call ebx ;  (1 found)
0x100052b1: call ebx ;  (1 found)
0x10005293: call ebx ;  (1 found)
0x1000529e: call ebx ;  (1 found)
0x100052a9: call ebx ;  (1 found)
0x1000545a: call ebx ;  (1 found)
0x10005480: call ebx ;  (1 found)
0x1000528b: call ebx ;  (1 found)
0x10005282: call ebx ;  (1 found)
0x1000b6a9: call ebx ;  (1 found)
0x1000b70f: call ebx ;  (1 found)
0x1000ac76: call ebx ;  (1 found)
0x1000ac61: call ebx ;  (1 found)
0x1000e98a: call ebx ;  (1 found)
0x1000e993: call ebx ;  (1 found)
0x1000ed37: call ebx ;  (1 found)
0x1000edca: call ebx ;  (1 found)
0x1000ef75: call ebx ;  (1 found)
0x10010be1: call ebx ;  (1 found)
0x10010bb6: call ebx ;  (1 found)
0x10010f98: call ebx ;  (1 found)
0x10010fee: call ebx ;  (1 found)
0x10003a12: call ecx ;  (1 found)
0x1001235f: call ecx ;  (1 found)
0x100019ed: call edi ;  (1 found)
0x1000300f: call edi ;  (1 found)
0x10003016: call edi ;  (1 found)
0x10003040: call edi ;  (1 found)
0x1000304a: call edi ;  (1 found)
0x10003bfb: call edi ;  (1 found)
0x10003905: call edi ;  (1 found)
0x10003912: call edi ;  (1 found)
0x10003996: call edi ;  (1 found)
0x1000398b: call edi ;  (1 found)
0x10003a46: call edi ;  (1 found)
0x10003a53: call edi ;  (1 found)
0x10003c4e: call edi ;  (1 found)
0x10003c06: call edi ;  (1 found)
0x10006831: call edi ;  (1 found)
0x1000689e: call edi ;  (1 found)
0x100068ab: call edi ;  (1 found)
0x10006929: call edi ;  (1 found)
0x10006931: call edi ;  (1 found)
0x1000697e: call edi ;  (1 found)
0x1000698b: call edi ;  (1 found)
0x10006829: call edi ;  (1 found)
0x10006f02: call edi ;  (1 found)
0x10006e49: call edi ;  (1 found)
0x10006ef4: call edi ;  (1 found)
0x10006e56: call edi ;  (1 found)
0x1000b8ac: call edi ;  (1 found)
0x1000b8ef: call edi ;  (1 found)
0x1000b8fe: call edi ;  (1 found)
0x1000b8e0: call edi ;  (1 found)
0x10009f05: call edi ;  (1 found)
0x10009f14: call edi ;  (1 found)
0x10009f3a: call edi ;  (1 found)
0x10009f49: call edi ;  (1 found)
0x1000a0bb: call edi ;  (1 found)
0x1000a118: call edi ;  (1 found)
0x1000a182: call edi ;  (1 found)
0x1000a162: call edi ;  (1 found)
0x1000a16b: call edi ;  (1 found)
0x1000a173: call edi ;  (1 found)
0x1000a191: call edi ;  (1 found)
0x1000ce91: call edi ;  (1 found)
0x1000ce9f: call edi ;  (1 found)
0x1000cead: call edi ;  (1 found)
0x1000cec5: call edi ;  (1 found)
0x1000ced3: call edi ;  (1 found)
0x1000c497: call edi ;  (1 found)
0x1000c4a5: call edi ;  (1 found)
0x1000ef89: call edi ;  (1 found)
0x1000f122: call edi ;  (1 found)
0x1000f151: call edi ;  (1 found)
0x100114ff: call edi ;  (1 found)
0x100114fc: call edi ;  (1 found)
0x10010371: call edi ;  (1 found)
0x10010328: call edi ;  (1 found)
0x10010f6e: call edi ;  (1 found)
0x100032c4: call esi ;  (1 found)
0x100032a6: call esi ;  (1 found)
0x1000358c: call esi ;  (1 found)
0x100035a2: call esi ;  (1 found)
0x1000cc71: call esi ;  (1 found)
0x1000cc7f: call esi ;  (1 found)
0x1000cc91: call esi ;  (1 found)
0x1000d128: call esi ;  (1 found)
0x1000d136: call esi ;  (1 found)
0x1000d14e: call esi ;  (1 found)
0x1000d3fb: call esi ;  (1 found)
0x1000d3cd: call esi ;  (1 found)
0x1000d3df: call esi ;  (1 found)
0x1000d405: call esi ;  (1 found)
0x1000bfd7: call esi ;  (1 found)
0x1000bfe5: call esi ;  (1 found)
0x1000bffd: call esi ;  (1 found)
0x1000c00b: call esi ;  (1 found)
0x1000c049: call esi ;  (1 found)
0x1000c031: call esi ;  (1 found)
0x1000c023: call esi ;  (1 found)
0x1000c057: call esi ;  (1 found)
0x1000d73d: call esi ;  (1 found)
0x1000d732: call esi ;  (1 found)
0x1000d731: call esi ;  (1 found)
0x1000d767: call esi ;  (1 found)
0x1000d77f: call esi ;  (1 found)
0x1000d759: call esi ;  (1 found)
0x1000d78d: call esi ;  (1 found)
0x1000d79b: call esi ;  (1 found)
0x1000d7b3: call esi ;  (1 found)
0x1000d7f0: call esi ;  (1 found)
0x1000d7c1: call esi ;  (1 found)
0x1000d7df: call esi ;  (1 found)
0x1000e345: call esi ;  (1 found)
0x1000e350: call esi ;  (1 found)
0x1000fb99: call esi ;  (1 found)
0x1000fc1f: call esi ;  (1 found)
0x100114bd: call esi ;  (1 found)
0x100114c0: call esi ;  (1 found)
0x1001156b: call esi ;  (1 found)
0x10011574: call esi ;  (1 found)
0x100043bd: call esp ;  (1 found)
0x1000a573: call word [0x1001312C] ;  (1 found)
0x1000c434: clc  ; add byte [eax], al ; add byte [ebx+0x026A50C4], al ; call dword [0x1001312C] ;  (1 found)
0x1000b6a0: clc  ; add byte [eax], al ; add byte [ebx+0x0C6A50C4], al ; call ebx ;  (1 found)
0x1001179b: clc  ; add dword [ebp+0x56], esi ; lea ecx, dword [esi-0x08] ; push ecx ; call dword [0x100130B4] ;  (1 found)
0x100106fb: clc  ; call dword [0x10013034] ;  (1 found)
0x10003084: clc  ; call dword [0x1001312C] ;  (1 found)
0x1000f1fa: clc  ; dec dword [ecx+0x0005D886] ; add byte [ebp+0x56], dh ; call dword [0x10013164] ;  (1 found)
0x1000f4cd: clc  ; dec dword [ecx+0x75082444] ; push esi ; call dword [0x1001314C] ;  (1 found)
0x1000e5db: clc  ; mov ax, word [esi+0x02] ; push eax ; call ebp ;  (1 found)
0x1000e98d: clc  ; mov ax, word [esi+0x02] ; push eax ; call ebx ;  (1 found)
0x1000d3d7: clc  ; mov dword [esp+0x10], edi ; push ecx ; xor edi, edi ; call esi ;  (1 found)
0x1000d75c: clc  ; mov eax, dword [esp+0x000000F4] ; push eax ; xor ebp, ebp ; call esi ;  (1 found)
0x1000f125: clc  ; push dword [ebp+0x2F] ; call ebp ;  (1 found)
0x1000d735: clc  ; push ebp ; mov dword [esp+0x14], edi ; xor edi, edi ; call esi ;  (1 found)
0x100117a1: clc  ; push ecx ; call dword [0x100130B4] ;  (1 found)
0x1000d132: clc  ; push ecx ; xor ebp, ebp ; call esi ;  (1 found)
0x1000d797: clc  ; push ecx ; xor ebp, ebp ; call esi ;  (1 found)
0x1000d7bd: clc  ; push ecx ; xor ebp, ebp ; call esi ;  (1 found)
0x1000d3f1: clc  ; push edx ; mov dword [esp+0x2C], ecx ; mov dword [esp+0x30], edi ; call esi ;  (1 found)
0x1000d74f: clc  ; push edx ; mov dword [esp+0x68], ecx ; mov dword [esp+0x6C], edi ; call esi ;  (1 found)
0x100114b2: cld  ; mov eax, dword [edi+0x08] ; push eax ; mov esi, dword [0x100130B4] ; call esi ;  (1 found)
0x100061ac: cld  ; push edx ; rep movsd  ; movsw  ; call dword [ebx+0x3E] ;  (1 found)
0x1000654b: cld  ; rep movsd  ; push ebx ; call eax ;  (1 found)
0x1000d7cf: cli  ; push eax ; mov dword [esp+0x00000084], edi ; mov dword [esp+0x00000088], ebp ; call esi ;  (1 found)
0x1000d148: cli  ; push ebp ; mov dword [esp+0x54], edi ; call esi ;  (1 found)
0x10011874: cmc  ; add dword [eax], edx ; push 0x000000FF ; push edx ; call dword [0x100130AC] ;  (1 found)
0x1000e482: cmp al, 0x00 ; add byte [ebx+0x5D5E30C4], al ; add esp, 0x0000041C ; ret  ;  (1 found)
0x10006634: cmp al, 0x03 ; retn 0xC103 ;  (1 found)
0x100106f5: cmp al, 0x30 ; add dword [eax], edx ; push esi ; mov edi, eax ; call dword [0x10013034] ;  (1 found)
0x10011fed: cmp al, 0x31 ; add dword [eax], edx ; push esi ; call dword [0x10013138] ;  (1 found)
0x1001200a: cmp al, 0x31 ; add dword [eax], edx ; push esi ; call dword [0x10013138] ;  (1 found)
0x1000f1e6: cmp al, 0x6A ; add byte [ebx+0x016A08C9], al ; push 0x00000002 ; mov dword [esi+0x3C], ecx ; call dword [0x10013168] ;  (1 found)
0x100066ab: cmp al, 0x83 ; les ebp,  [eax] ; mov di, word [ebx+0x02] ; push 0x0000FFE2 ; call dword [0x1001312C] ;  (1 found)
0x1000e69b: cmp al, byte [eax] ; add byte [ebx-0x3FCCDF3C], al ; ret  ;  (1 found)
0x10001d4c: cmp byte [ebx+0x5B5E28C4], al ; pop edi ; pop ebp ; add esp, 0x00000108 ; ret  ;  (1 found)
0x10001d8e: cmp byte [ebx+0x5B5E28C4], al ; pop edi ; pop ebp ; add esp, 0x00000108 ; ret  ;  (1 found)
0x10002f0b: cmp byte [ebx+0x5E5FFFC8], al ; pop ebp ; pop ebx ; add esp, 0x38 ; ret  ;  (1 found)
0x1000b038: cmp byte [ecx-0x7D], dl ; ret  ;  (1 found)
0x100017fa: cmp byte [ecx], cl ; add dword [eax], eax ; add esp, 0x30 ; pop esi ; ret  ;  (1 found)
0x10011cdc: cmp byte [edi+0x5E], bl ; mov eax, 0xFFFFFFFE ; pop ebx ; add esp, 0x00001128 ; ret  ;  (1 found)
0x1000e3b7: cmp byte [esi+0x5D], bl ; add esp, 0x0000041C ; ret  ;  (1 found)
0x1000e331: cmp byte [esi+0x5D], bl ; add esp, 0x0000041C ; ret  ;  (1 found)
0x100070f9: cmp dword [eax-0x3B7D0000], esi ; and byte [ebx+0x5D5EFFC8], al ; pop ebx ; pop ecx ; ret  ;  (1 found)
0x10005cdf: cmp eax, 0x05740001 ; or eax, 0xFFFFFFFF ; pop esi ; ret  ;  (1 found)
0x10005655: cmp eax, 0x0E750001 ; push 0x00000002 ; call dword [0x10013134] ;  (1 found)
0x10010323: cmp eax, 0x10013070 ; call edi ;  (1 found)
0x10003980: cmp eax, 0x10013090 ; add esp, 0x28 ; push 0xFFFFFFFF ; push ecx ; call edi ;  (1 found)
0x1000681e: cmp eax, 0x10013090 ; add esp, 0x28 ; push 0xFFFFFFFF ; push ecx ; call edi ;  (1 found)
0x1000691e: cmp eax, 0x10013090 ; add esp, 0x28 ; push 0xFFFFFFFF ; push ecx ; call edi ;  (1 found)
0x1000ef6a: cmp eax, 0x10013090 ; lea eax, dword [esp+0x0C] ; push eax ; push esi ; call ebx ;  (1 found)
0x10006e3f: cmp eax, 0x10013094 ; push 0x00000000 ; push 0x00000001 ; push eax ; call edi ;  (1 found)
0x100114f7: cmp eax, 0x100130B4 ; call edi ;  (1 found)
0x100019db: cmp eax, 0x10013104 ; mov edx, dword [esp+0x10] ; movsx eax, byte [esi+edx+0x000003B8] ; push eax ; call edi ;  (1 found)
0x1000303b: cmp eax, 0x1001312C ; call edi ;  (1 found)
0x10009ef9: cmp eax, 0x10013134 ; mov ebp, dword [esi+0x0000009C] ; push eax ; call edi ;  (1 found)
0x10003bf1: cmp eax, 0x10013134 ; mov ebx, eax ; xor eax, eax ; push eax ; call edi ;  (1 found)
0x1000ce83: cmp eax, 0x10013134 ; push edx ; mov dword [esp+0x4C], eax ; mov dword [esp+0x50], ecx ; call edi ;  (1 found)
0x1001242c: cmp eax, 0x1002FDC8 ; add byte [ebp+0x0A], dh ; push dword [esp+0x04] ; call dword [0x10013098] ;  (1 found)
0x10010b4f: cmp eax, 0x56FFFFFA ; call dword [0x100130C8] ;  (1 found)
0x1000e3b2: cmp eax, 0xC4830000 ; cmp byte [esi+0x5D], bl ; add esp, 0x0000041C ; ret  ;  (1 found)
0x1000e432: cmp eax, 0xC4830000 ; sbb byte [edi+0x5E], bl ; pop ebp ; add esp, 0x0000041C ; ret  ;  (1 found)
0x1000e54e: cmp eax, dword [eax] ; add byte [ebx+0x01B818C4], al ; add byte [eax], al ; add byte [edi+0x5E], bl ; ret  ;  (1 found)
0x10003acb: cwde  ; add eax, dword [eax] ; add byte [ebp+0x0003949F], cl ; add byte [ebx], bh ; ret  ;  (1 found)
0x1001243a: cwde  ; xor byte [ecx], al ; adc byte [edx+0x01], ch ; pop eax ; retn 0x000C ;  (1 found)
0x1000f417: daa  ; sub eax, 0xC4830000 ; sbb byte [edx+0x02], ch ; push edi ; call dword [0x1001313C] ;  (1 found)
0x1000f128: das  ; call ebp ;  (1 found)
0x10011398: das  ; mov eax, 0x00000001 ; ret  ;  (1 found)
0x10010acc: dec dword [ebp-0x00011F73] ; call dword [ecx+0x68] ;  (1 found)
0x10010af0: dec dword [ebp-0x00022373] ; call dword [ecx-0x18] ;  (1 found)
0x10010ae4: dec dword [ebp-0x0003277B] ; call dword [eax-0x18] ;  (1 found)
0x100111df: dec dword [ebp-0x00063F6B] ; call dword [edx-0x18] ;  (1 found)
0x10006dd0: dec dword [ebx+0x0005D086] ; add byte [edx+0x00], ch ; push 0x00000001 ; push eax ; call dword [0x10013094] ;  (1 found)
0x100112cf: dec dword [ebx-0x00069B7B] ; call dword [eax+0x50] ;  (1 found)
0x1000fa36: dec dword [ebx-0x3B7CF7BD] ; and byte [edi+0x5E], bl ; pop ebx ; add esp, 0x54 ; ret  ;  (1 found)
0x1000f1fb: dec dword [ecx+0x0005D886] ; add byte [ebp+0x56], dh ; call dword [0x10013164] ;  (1 found)
0x10011489: dec dword [ecx+0x10EBFC75] ; or eax, 0xFFFFFFFF ; ret  ;  (1 found)
0x1000f4ce: dec dword [ecx+0x75082444] ; push esi ; call dword [0x1001314C] ;  (1 found)
0x1000a98f: dec eax ; mov dword [esi+0x4C], 0x00000010 ; mov edx, dword [ebx+0x38] ; push edx ; call ebp ;  (1 found)
0x10011f9d: dec eax ; mov dword [esp+0x44], 0x00000001 ; call dword [0x10013160] ;  (1 found)
0x1000c492: dec eax ; mov dword [esp+0x4C], ebx ; call edi ;  (1 found)
0x1000bfd2: dec eax ; mov dword [esp+0x4C], ebx ; call esi ;  (1 found)
0x1000d123: dec eax ; mov dword [esp+0x4C], edi ; call esi ;  (1 found)
0x1000f19e: dec eax ; ret  ;  (1 found)
0x100011f0: dec eax ; sgdt  [eax] ; add esp, 0x18 ; pop esi ; ret  ;  (1 found)
0x1000446c: dec ebp ; inc eax ; push ecx ; call dword [0x10013130] ;  (1 found)
0x10004bad: dec ebp ; inc eax ; push ecx ; call dword [0x10013130] ;  (1 found)
0x10006ad0: dec ebx ; pop esp ; push 0xFFFFFFFF ; push ecx ; call dword [0x10013090] ;  (1 found)
0x1001044e: dec ecx ; pop edi ; mov eax, ecx ; ret  ;  (1 found)
0x1000da67: dec ecx ; push 0x00000001 ; push eax ; mov dword [esi+0x2C], ecx ; call dword [0x10013094] ;  (1 found)
0x10004a89: dec edi ; and byte [ebx+0x52102454], cl ; call dword [0x1001312C] ;  (1 found)
0x1000e5f2: dec edi ; inc byte [ebx+0x427764F9] ; xor edx, edx ; mov dl, byte [ecx+0x1000E6C0] ; jmp dword [0x1000E6A4+edx*4] ;  (1 found)
0x10003078: dec edi ; push 0x0000001C ; call dword [0x1001312C] ;  (1 found)
0x10006893: dec edx ; mov dword [esi+0x00000374], edx ; mov edx, dword [esi+0x4C] ; push edx ; call edi ;  (1 found)
0x10001a25: dec esi ; add dword [eax+0x51], edx ; call dword [0x1001310C] ;  (1 found)
0x100117a0: dec esi ; clc  ; push ecx ; call dword [0x100130B4] ;  (1 found)
0x10006633: dec esi ; cmp al, 0x03 ; retn 0xC103 ;  (1 found)
0x10006975: dec esi ; dec esp ; push ecx ; mov dword [esi+0x00000378], edx ; call edi ;  (1 found)
0x1000381a: dec esi ; pop esp ; push 0xFFFFFFFF ; push ecx ; call dword [0x10013090] ;  (1 found)
0x1000eef1: dec esi ; sub al, 0x6A ; add byte [edx+0x01], ch ; push ecx ; call dword [0x10013094] ;  (1 found)
0x10011b55: dec esp ; and al, 0x04 ; push eax ; push ecx ; call dword [0x10013014] ;  (1 found)
0x10010855: dec esp ; and al, 0x04 ; push eax ; push ecx ; call dword [0x1001302C] ;  (1 found)
0x100109f0: dec esp ; and al, 0x08 ; push ecx ; call dword [0x100130D0] ;  (1 found)
0x10001495: dec esp ; and al, 0x08 ; push ecx ; call eax ;  (1 found)
0x1000fc7b: dec esp ; and al, 0x0C ; push ecx ; call dword [0x1001301C] ;  (1 found)
0x1000edb1: dec esp ; and al, 0x14 ; push ecx ; push esi ; call ebp ;  (1 found)
0x10001684: dec esp ; and al, 0x18 ; mov dword [esi+0x000006EC], eax ; push ecx ; call ebx ;  (1 found)
0x1000d3c2: dec esp ; and al, 0x18 ; mov dword [esp+0x1C], edx ; mov dword [esp+0x20], edi ; call esi ;  (1 found)
0x1000fd94: dec esp ; and al, 0x18 ; push eax ; push ecx ; call dword [0x1002FB6C] ;  (1 found)
0x10003c4a: dec esp ; and al, 0x18 ; push ecx ; call edi ;  (1 found)
0x1000fde6: dec esp ; and al, 0x18 ; push ecx ; push eax ; call dword [0x1002FB80] ;  (1 found)
0x100065c0: dec esp ; and al, 0x18 ; push edx ; call ebp ;  (1 found)
0x10011754: dec esp ; and al, 0x1C ; push 0x000000FF ; push ecx ; call dword [0x100130AC] ;  (1 found)
0x100118ef: dec esp ; and al, 0x1C ; push 0x000000FF ; push ecx ; call dword [0x100130AC] ;  (1 found)
0x10002bae: dec esp ; and al, 0x24 ; call dword [0x10013134] ;  (1 found)
0x100116b9: dec esp ; and al, 0x24 ; push 0x000000FF ; push ecx ; call dword [0x100130AC] ;  (1 found)
0x10004e85: dec esp ; and al, 0x28 ; mov dword [edi+0x20], ecx ; call dword [0x10013134] ;  (1 found)
0x10011653: dec esp ; and al, 0x28 ; push 0x000000FF ; push ecx ; call dword [0x100130AC] ;  (1 found)
0x1000be03: dec esp ; and al, 0x2C ; mov dword [esp+0x30], 0x00000034 ; call dword [0x10013130] ;  (1 found)
0x1000d3f4: dec esp ; and al, 0x2C ; mov dword [esp+0x30], edi ; call esi ;  (1 found)
0x10009bce: dec esp ; and al, 0x38 ; call ebp ;  (1 found)
0x10009f85: dec esp ; and al, 0x3C ; call ebp ;  (1 found)
0x10009f11: dec esp ; and al, 0x40 ; call edi ;  (1 found)
0x10009f46: dec esp ; and al, 0x44 ; call edi ;  (1 found)
0x1000c48c: dec esp ; and al, 0x44 ; mov dword [esp+0x48], ebp ; mov dword [esp+0x4C], ebx ; call edi ;  (1 found)
0x1000bfcc: dec esp ; and al, 0x44 ; mov dword [esp+0x48], ebp ; mov dword [esp+0x4C], ebx ; call esi ;  (1 found)
0x1000300b: dec esp ; and al, 0x44 ; push ecx ; call edi ;  (1 found)
0x10005a4f: dec esp ; and al, 0x4C ; push ecx ; call ebp ;  (1 found)
0x1000ce8e: dec esp ; and al, 0x50 ; call edi ;  (1 found)
0x1000c859: dec esp ; and al, 0x50 ; mov dword [esp+0x58], edi ; call dword [0x10013134] ;  (1 found)
0x1000ca69: dec esp ; and al, 0x50 ; mov dword [esp+0x58], edi ; call dword [0x10013134] ;  (1 found)
0x1000c286: dec esp ; and al, 0x5C ; mov dword [esp+0x60], edx ; call dword [0x10013134] ;  (1 found)
0x1000d752: dec esp ; and al, 0x68 ; mov dword [esp+0x6C], edi ; call esi ;  (1 found)
0x1000c496: dec esp ; call edi ;  (1 found)
0x1000d127: dec esp ; call esi ;  (1 found)
0x1000bfd6: dec esp ; call esi ;  (1 found)
0x1000b6f8: dec esp ; mov dword [esp+0x50], eax ; call dword [0x10013134] ;  (1 found)
0x1000ce8c: dec esp ; mov dword [esp+0x50], ecx ; call edi ;  (1 found)
0x1000c857: dec esp ; mov dword [esp+0x50], ecx ; mov dword [esp+0x58], edi ; call dword [0x10013134] ;  (1 found)
0x1000ca67: dec esp ; mov dword [esp+0x50], ecx ; mov dword [esp+0x58], edi ; call dword [0x10013134] ;  (1 found)
0x1000c280: dec esp ; mov dword [esp+0x50], edi ; mov dword [esp+0x5C], ecx ; mov dword [esp+0x60], edx ; call dword [0x10013134] ;  (1 found)
0x1000682d: dec esp ; push 0xFFFFFFFF ; push edx ; call edi ;  (1 found)
0x1000692d: dec esp ; push 0xFFFFFFFF ; push edx ; call edi ;  (1 found)
0x10005a51: dec esp ; push ecx ; call ebp ;  (1 found)
0x10006976: dec esp ; push ecx ; mov dword [esi+0x00000378], edx ; call edi ;  (1 found)
0x1000689c: dec esp ; push edx ; call edi ;  (1 found)
0x10004608: dec esp ; ret  ;  (1 found)
0x10004235: dec esp ; ret  ;  (1 found)
0x100113f9: div byte [ebp+0x02] ; pop esi ; ret  ;  (1 found)
0x10010cff: div byte [ebp+0x0A] ; xor eax, eax ; pop esi ; add esp, 0x0000009C ; ret  ;  (1 found)
0x100101a3: div byte [ebp+0x3D] ; call dword [0x10013070] ;  (1 found)
0x1000ceca: enter 0x0000, 0x00 ; mov ebx, eax ; xor ebp, ebp ; push ecx ; call edi ;  (1 found)
0x1000d143: enter 0x0000, 0x00 ; or edi, edx ; push ebp ; mov dword [esp+0x54], edi ; call esi ;  (1 found)
0x10003e75: enter 0x0000, 0x00 ; push 0x00000001 ; call ebp ;  (1 found)
0x1000d90a: enter 0x0000, 0x00 ; ret  ;  (1 found)
0x1000d8da: enter 0x0000, 0x00 ; ret  ;  (1 found)
0x1001140c: enter 0x0130, 0x10 ; add esp, 0x0C ; mov eax, 0x00000001 ; pop esi ; ret  ;  (1 found)
0x1001242d: enter 0x02FD, 0x10 ; add byte [ebp+0x0A], dh ; push dword [esp+0x04] ; call dword [0x10013098] ;  (1 found)
0x10001c71: enter 0x5153, 0x50 ; push ebx ; call ebp ;  (1 found)
0x10001c4c: enter 0x5153, 0x50 ; push ebx ; call ebp ;  (1 found)
0x10009e30: enter 0x5BFF, 0x59 ; ret  ;  (1 found)
0x10006bd0: enter 0x5BFF, 0x83 ; les edx,  [eax] ; ret  ;  (1 found)
0x10006bee: enter 0x5BFF, 0x83 ; les edx,  [eax] ; ret  ;  (1 found)
0x10006de6: enter 0x5BFF, 0x83 ; les edx,  [eax] ; ret  ;  (1 found)
0x1000728d: enter 0x5EFF, 0x5B ; pop ecx ; ret  ;  (1 found)
0x1000741d: enter 0x5EFF, 0x5B ; pop ecx ; ret  ;  (1 found)
0x1000759d: enter 0x5EFF, 0x5B ; pop ecx ; ret  ;  (1 found)
0x1000772d: enter 0x5EFF, 0x5B ; pop ecx ; ret  ;  (1 found)
0x10006fd7: enter 0x5EFF, 0x5B ; ret  ;  (1 found)
0x10007101: enter 0x5EFF, 0x5D ; pop ebx ; pop ecx ; ret  ;  (1 found)
0x100078f1: enter 0x5EFF, 0x5D ; pop ebx ; pop ecx ; ret  ;  (1 found)
0x10007ae8: enter 0x5EFF, 0x5D ; pop ebx ; pop ecx ; ret  ;  (1 found)
0x10008ba1: enter 0x5EFF, 0x5D ; pop ebx ; pop ecx ; ret  ;  (1 found)
0x10008d71: enter 0x5EFF, 0x5D ; pop ebx ; pop ecx ; ret  ;  (1 found)
0x10008f41: enter 0x5EFF, 0x5D ; pop ebx ; pop ecx ; ret  ;  (1 found)
0x1000a7d1: enter 0x5EFF, 0x5D ; pop ebx ; pop ecx ; ret  ;  (1 found)
0x100015ce: enter 0x5FFF, 0x5E ; add esp, 0x10 ; ret  ;  (1 found)
0x10008054: enter 0x5FFF, 0x5E ; pop ebp ; pop ebx ; add esp, 0x08 ; ret  ;  (1 found)
0x10009526: enter 0x5FFF, 0x5E ; pop ebp ; pop ebx ; add esp, 0x08 ; ret  ;  (1 found)
0x10009ab5: enter 0x5FFF, 0x5E ; pop ebp ; pop ebx ; add esp, 0x08 ; ret  ;  (1 found)
0x100023e7: enter 0x5FFF, 0x5E ; pop ebp ; pop ebx ; add esp, 0x2C ; ret  ;  (1 found)
0x10002f0d: enter 0x5FFF, 0x5E ; pop ebp ; pop ebx ; add esp, 0x38 ; ret  ;  (1 found)
0x1000422d: enter 0x5FFF, 0x5E ; pop ebp ; pop ebx ; add esp, 0x4C ; ret  ;  (1 found)
0x10004917: enter 0x5FFF, 0x5E ; pop ebp ; pop ebx ; add esp, 0x78 ; ret  ;  (1 found)
0x1000983f: enter 0x5FFF, 0x5E ; pop ebp ; pop ebx ; pop ecx ; ret  ;  (1 found)
0x10008282: enter 0x5FFF, 0x5E ; pop ebp ; pop ebx ; pop ecx ; ret  ;  (1 found)
0x10008462: enter 0x5FFF, 0x5E ; pop ebp ; pop ebx ; pop ecx ; ret  ;  (1 found)
0x10008652: enter 0x5FFF, 0x5E ; pop ebp ; pop ebx ; pop ecx ; ret  ;  (1 found)
0x10008842: enter 0x5FFF, 0x5E ; pop ebp ; pop ebx ; pop ecx ; ret  ;  (1 found)
0x1000a371: enter 0x5FFF, 0x5E ; pop ebp ; pop ebx ; pop ecx ; ret  ;  (1 found)
0x10005e13: enter 0x5FFF, 0x5E ; pop ebp ; pop ebx ; ret  ;  (1 found)
0x10005dd2: enter 0x5FFF, 0x5E ; pop ebp ; pop ebx ; ret  ;  (1 found)
0x10005e9a: enter 0x5FFF, 0x5E ; pop ebp ; pop ebx ; ret  ;  (1 found)
0x10009315: enter 0x5FFF, 0x5E ; pop ebp ; pop ebx ; ret  ;  (1 found)
0x1000fdd9: enter 0x5FFF, 0x5E ; pop ebx ; add esp, 0x00000918 ; ret  ;  (1 found)
0x1000fe38: enter 0x5FFF, 0x5E ; pop ebx ; add esp, 0x00000918 ; ret  ;  (1 found)
0x10007c6c: enter 0x5FFF, 0x5E ; pop ebx ; add esp, 0x08 ; ret  ;  (1 found)
0x100089f4: enter 0x5FFF, 0x5E ; pop ebx ; add esp, 0x08 ; ret  ;  (1 found)
0x10009110: enter 0x5FFF, 0x5E ; pop ebx ; pop ecx ; ret  ;  (1 found)
0x10005f6e: enter 0x5FFF, 0x5E ; pop ebx ; ret  ;  (1 found)
0x1000603f: enter 0x5FFF, 0x5E ; pop ebx ; ret  ;  (1 found)
0x100101dd: enter 0x5FFF, 0x5E ; pop ecx ; ret  ;  (1 found)
0x100104f9: enter 0x81FF, 0xC4 ; add byte [eax], dl ; add byte [eax], al ; ret  ;  (1 found)
0x10010df9: enter 0x81FF, 0xC4 ; add byte [eax], dl ; add byte [eax], al ; ret  ;  (1 found)
0x100122c1: enter 0xC48B, 0x85 ; add dword [ebx-0x74F7741F], ecx ; inc eax ; add al, 0x50 ; ret  ;  (1 found)
0x10005720: enter 0xE183, 0x03 ; rep movsb  ; mov esi, dword [esp+0x20] ; push esi ; call dword [0x1001312C] ;  (1 found)
0x1000f14a: fadd dword [0x52510000] ; push eax ; call edi ;  (1 found)
0x1000f11b: fadd dword [0x52510000] ; push eax ; call edi ;  (1 found)
0x1000f1fe: fadd dword [0x56750000] ; call dword [0x10013164] ;  (1 found)
0x10011fdc: fadd dword [ebx+0x2375FFFB] ; mov dword [edi], 0x00000000 ; push 0x00000002 ; push esi ; call dword [0x1001313C] ;  (1 found)
0x10012220: fadd dword [ebx+0x5E5B00DA] ; pop edi ; retn 0x0010 ;  (1 found)
0x1000f144: fadd qword [0x868B0000] ; fadd dword [0x52510000] ; push eax ; call edi ;  (1 found)
0x1000f115: fadd qword [0x868B0000] ; fadd dword [0x52510000] ; push eax ; call edi ;  (1 found)
0x1000c02a: fadd qword [eax] ; add byte [eax], al ; push eax ; xor ebp, ebp ; call esi ;  (1 found)
0x1000f1d7: fadd qword [esi] ; add byte [eax], al ; push 0xFFFFFFFF ; push ecx ; call dword [0x10013090] ;  (1 found)
0x1000ed30: fadd qword [esi] ; add byte [eax], al ; push 0xFFFFFFFF ; push ecx ; call ebx ;  (1 found)
0x1000cea9: fcom dword [ecx+0x33] ; in eax, dx ; call edi ;  (1 found)
0x1000855a: fcomp dword [ebx-0x3B7D0000] ; and byte [ebx+0x5D5E5FC3], cl ; pop ebx ; pop ecx ; ret  ;  (1 found)
0x10010c3c: fcomp dword [ebx] ; rcr byte [edi+0x5E], 0x0000005B ; neg eax ; add esp, 0x00000230 ; ret  ;  (1 found)
0x1000f198: fcomp dword [ebx] ; rcr byte [esi-0x09], 0xFFFFFFD8 ; dec eax ; ret  ;  (1 found)
0x100105b7: fdiv dword [eax] ; add dword [eax], edx ; add esp, 0x04 ; ret  ;  (1 found)
0x1000cecf: fdiv dword [ebx] ; in eax, dx ; push ecx ; call edi ;  (1 found)
0x10006f66: fdiv dword [ecx-0x3B7D0000] ; sbb byte [edi+0x5E], bl ; pop ebx ; ret  ;  (1 found)
0x100105a1: fdiv qword [eax] ; add dword [eax], edx ; add esp, 0x0C ; ret  ;  (1 found)
0x10011b40: fdivr st0, st7 ; pop esi ; ret  ;  (1 found)
0x10012222: fiadd dword [eax] ; pop ebx ; pop esi ; pop edi ; retn 0x0010 ;  (1 found)
0x1000995a: fiadd word [edi-0x3B7D0000] ; and byte [ebx+0x5D5E5FC3], cl ; pop ebx ; pop ecx ; ret  ;  (1 found)
0x1000cebb: ficom dword [eax-0x77] ; pop esp ; and al, 0x58 ; mov dword [esp+0x5C], ebp ; call edi ;  (1 found)
0x100039bb: fistp word [ebx] ; jmp dword [ebx] ;  (1 found)
0x1000ac80: fisttp dword [ebp+0x3B542454] ; ret  ;  (1 found)
0x1000b71a: fisttp dword [ebp+0x3B582454] ; ret  ;  (1 found)
0x10007357: fld tword [ebp-0x3B7D0000] ; and byte [ebx+0x5E5D5FC7], cl ; pop ebx ; pop ecx ; ret  ;  (1 found)
0x1000c49a: fmul dword [ebx+0x00BC2484] ; add byte [eax], al ; push eax ; xor ebp, ebp ; call edi ;  (1 found)
0x1000c000: fmul dword [ebx+0x00D42484] ; add byte [eax], al ; push eax ; xor ebp, ebp ; call esi ;  (1 found)
0x1000c026: fmul dword [ebx+0x00DC2484] ; add byte [eax], al ; push eax ; xor ebp, ebp ; call esi ;  (1 found)
0x1000c04c: fmul dword [ebx+0x00E42484] ; add byte [eax], al ; push eax ; xor ebp, ebp ; call esi ;  (1 found)
0x1000bfda: fmul dword [ebx+0x00EC2484] ; add byte [eax], al ; push eax ; xor ebp, ebp ; call esi ;  (1 found)
0x1001206b: fsave  [ebx] ; rcr byte [edi+0x5E], 0x0000005D ; pop ebx ; ret  ;  (1 found)
0x1000e7ae: fsave  [edi+0x5F] ; mov ax, word [esi] ; push eax ; call dword [0x10013130] ;  (1 found)
0x10003c1f: fsave  [edi+ebx+0x66] ; mov edx, dword [ebx] ; mov ebp, dword [0x1001312C] ; push edx ; call ebp ;  (1 found)
0x1000e1dc: fsub st3, st0 ; and byte [ebx-0x0095F382], cl ; mov eax, dword [edi+0x30] ; push eax ; call ebp ;  (1 found)
0x10006a2a: fsubr dword [edx+0x00] ; push ebx ; push ebp ; call dword [ebx+0x08] ;  (1 found)
0x1000d760: hlt  ; add byte [eax], al ; add byte [eax+0x33], dl ; in eax, dx ; call esi ;  (1 found)
0x1000abfa: hlt  ; add byte [eax], al ; add byte [ebx+0x066A50C4], al ; call dword [0x1001312C] ;  (1 found)
0x1000b49b: hlt  ; add byte [eax], al ; add byte [ebx+0x086A50C4], al ; call dword [0x1001312C] ;  (1 found)
0x100111e8: hlt  ; idiv edi ; call dword [edi-0x73] ;  (1 found)
0x1000614a: hlt  ; mov edi, 0xC4830000 ; sbb byte [ebx], dh ; rcr byte [edi+0x5E], 0x0000005B ; ret  ;  (1 found)
0x1000d673: hlt  ; stosb  ; add dword [eax], edx ; push 0x000001FB ; call dword [0x10013080] ;  (1 found)
0x100111e9: idiv edi ; call dword [edi-0x73] ;  (1 found)
0x100111dd: idiv edi ; dec dword [ebp-0x00063F6B] ; call dword [edx-0x18] ;  (1 found)
0x10003e86: imul bl ; adc dword [edx+0x02], ebp ; call ebp ;  (1 found)
0x1000e8d5: imul edi, dword [eax], 0xC4830000 ; sbb byte [ebx], dh ; rcr byte [edi+0x5E], 0x0000005B ; ret  ;  (1 found)
0x1000e80c: imul edi, edi, 0xFF ; jmp dword [ecx+0x1002FDB8] ;  (1 found)
0x100107e3: imul edi, esi, 0xC483FFFF ; or byte [ebp+0x5F0475C0], al ; pop esi ; pop ebx ; ret  ;  (1 found)
0x10009d8b: in al, 0x00 ; add byte [eax], al ; add byte [eax], al ; add byte [eax], al ; call dword [0x10013080] ;  (1 found)
0x1000d40a: in al, 0x00 ; add byte [eax], al ; mov dword [esp+0x30], eax ; push ecx ; call dword [0x1001312C] ;  (1 found)
0x1000c050: in al, 0x00 ; add byte [eax], al ; push eax ; xor ebp, ebp ; call esi ;  (1 found)
0x10003c74: in al, 0x00 ; add byte [ebx+0x5E5F18C4], al ; pop ebp ; pop ebx ; ret  ;  (1 found)
0x1000166f: in al, 0x06 ; add byte [eax], al ; push edx ; call ebx ;  (1 found)
0x10010509: in al, 0x30 ; add dword [eax], edx ; add esp, 0x04 ; add esp, 0x00001000 ; ret  ;  (1 found)
0x10001cab: in al, 0x53 ; push 0x00000001 ; push 0x00000001 ; push ebx ; call ebp ;  (1 found)
0x1000bfde: in al, dx ; add byte [eax], al ; add byte [eax+0x33], dl ; in eax, dx ; call esi ;  (1 found)
0x1000fb91: in al, dx ; add dword [eax], edx ; push 0x80000002 ; call esi ;  (1 found)
0x10001689: in al, dx ; push es ; add byte [eax], al ; push ecx ; call ebx ;  (1 found)
0x1000f5c1: in al, dx ; sbb byte [ebp+0x50082444], cl ; call dword [0x10013074] ;  (1 found)
0x10011931: in al, dx ; sub byte [esi+0x57], dl ; xor edi, edi ; call dword [0x1001305C] ;  (1 found)
0x10003b92: in eax, 0x00 ; add byte [ebx+0x016A18C4], al ; call dword [0x1001312C] ;  (1 found)
0x10003b67: in eax, 0x00 ; add byte [ebx+0x5B5F28C4], al ; ret  ;  (1 found)
0x10011376: in eax, 0x5D ; ret  ;  (1 found)
0x100113df: in eax, 0x5D ; ret  ;  (1 found)
0x10010b74: in eax, 0x5D ; ret  ;  (1 found)
0x100114d5: in eax, 0x5D ; retn 0x0004 ;  (1 found)
0x10003c05: in eax, dx ; call edi ;  (1 found)
0x1000ceac: in eax, dx ; call edi ;  (1 found)
0x1000c4a4: in eax, dx ; call edi ;  (1 found)
0x1000cc90: in eax, dx ; call esi ;  (1 found)
0x1000d135: in eax, dx ; call esi ;  (1 found)
0x1000bfe4: in eax, dx ; call esi ;  (1 found)
0x1000c030: in eax, dx ; call esi ;  (1 found)
0x1000c00a: in eax, dx ; call esi ;  (1 found)
0x1000c056: in eax, dx ; call esi ;  (1 found)
0x1000d766: in eax, dx ; call esi ;  (1 found)
0x1000d79a: in eax, dx ; call esi ;  (1 found)
0x1000d7c0: in eax, dx ; call esi ;  (1 found)
0x10005285: in eax, dx ; mov dword [esp+0x64], eax ; push ebp ; call ebx ;  (1 found)
0x1000ced1: in eax, dx ; push ecx ; call edi ;  (1 found)
0x1000228b: inc byte [eax] ; add byte [ebx-0x3974DF3C], al ; pop esi ; ret  ;  (1 found)
0x1000e5f3: inc byte [ebx+0x427764F9] ; xor edx, edx ; mov dl, byte [ecx+0x1000E6C0] ; jmp dword [0x1000E6A4+edx*4] ;  (1 found)
0x1000ac70: inc byte [edx+0x75] ; or byte [edx+0x06], ch ; call ebx ;  (1 found)
0x100117d4: inc dword [eax] ; add byte [eax], al ; push eax ; call dword [0x100130AC] ;  (1 found)
0x10011657: inc dword [eax] ; add byte [eax], al ; push ecx ; call dword [0x100130AC] ;  (1 found)
0x100116bd: inc dword [eax] ; add byte [eax], al ; push ecx ; call dword [0x100130AC] ;  (1 found)
0x10011758: inc dword [eax] ; add byte [eax], al ; push ecx ; call dword [0x100130AC] ;  (1 found)
0x100118f3: inc dword [eax] ; add byte [eax], al ; push ecx ; call dword [0x100130AC] ;  (1 found)
0x10011878: inc dword [eax] ; add byte [eax], al ; push edx ; call dword [0x100130AC] ;  (1 found)
0x1000e96a: inc dword [eax] ; add byte [ebp+0x03050174], cl ; retn 0x4489 ;  (1 found)
0x10002230: inc dword [eax] ; add byte [ebx-0x3974DF3C], al ; pop esi ; ret  ;  (1 found)
0x10002160: inc dword [eax] ; add byte [ebx-0x3FCCDF3C], al ; pop esi ; ret  ;  (1 found)
0x1000a0b1: inc dword [eax] ; add byte [ebx], al ; retn 0x656A ;  (1 found)
0x1000c7fb: inc dword [eax] ; add byte [edx+0x07], ch ; call dword [0x1001312C] ;  (1 found)
0x1000ca0b: inc dword [eax] ; add byte [edx+0x09], ch ; call dword [0x1001312C] ;  (1 found)
0x100113bc: inc dword [ebp+0x500774C0] ; call dword [0x1001308C] ;  (1 found)
0x1000327e: inc dword [ebp+0x680E75C0] ; test al, 0xAC ; add dword [eax], edx ; call dword [0x100130F8] ;  (1 found)
0x100111a0: inc dword [ebp+0x681675C0] ; push 0x6A1001F0 ; and byte [ebp-0x00066B6B], cl ; call dword [edx-0x18] ;  (1 found)
0x10011393: inc dword [ebx+0x2FEB08C4] ; mov eax, 0x00000001 ; ret  ;  (1 found)
0x1000f98e: inc dword [ebx+0x5E5F10C4] ; pop ebp ; pop ebx ; add esp, 0x40 ; ret  ;  (1 found)
0x100115c3: inc dword [ebx+0x5E5F20C4] ; pop ebx ; ret  ;  (1 found)
0x1001132d: inc dword [ebx-0x16A8F73C] ; mov eax, dword [eax] ; add byte [eax], al ; push edi ; call dword [0x1001308C] ;  (1 found)
0x10010a79: inc dword [ebx-0x2708FB3C] ; sbb eax, eax ; inc eax ; ret  ;  (1 found)
0x10006a25: inc dword [ebx-0x2774F73C] ; push 0x00000000 ; push ebx ; push ebp ; call dword [ebx+0x08] ;  (1 found)
0x10010942: inc dword [ebx-0x3974F73C] ; pop edi ; pop esi ; ret  ;  (1 found)
0x10010a5a: inc dword [ebx-0x3FCCF33C] ; pop esi ; add esp, 0x0C ; ret  ;  (1 found)
0x1000f651: inc dword [ecx+0x000190C4] ; add bl, al ; push 0x1002FB60 ; call dword [0x10013028] ;  (1 found)
0x100104fa: inc dword [ecx+0x001000C4] ; add bl, al ; lea edx, dword [esp+0x00] ; push edx ; call dword [0x100130E4] ;  (1 found)
0x100122cb: inc eax ; add al, 0x50 ; ret  ;  (1 found)
0x10003a41: inc eax ; add byte [eax], al ; add byte [eax], al ; call edi ;  (1 found)
0x10005f76: inc eax ; and al, 0x55 ; push eax ; call dword [0x10013130] ;  (1 found)
0x10011480: inc eax ; call dword [0x10013060] ;  (1 found)
0x10009f13: inc eax ; call edi ;  (1 found)
0x10007f13: inc eax ; mov ax, word [esi+0x42] ; push eax ; call dword [0x10013130] ;  (1 found)
0x10009bcc: inc eax ; mov dword [esp+0x38], ecx ; call ebp ;  (1 found)
0x1000bb33: inc eax ; or al, 0x89 ; inc esp ; and al, 0x60 ; call dword [0x1001312C] ;  (1 found)
0x1000a15c: inc eax ; or al, 0x89 ; inc esp ; and al, 0x60 ; call edi ;  (1 found)
0x1000446d: inc eax ; push ecx ; call dword [0x10013130] ;  (1 found)
0x10004bae: inc eax ; push ecx ; call dword [0x10013130] ;  (1 found)
0x1000be00: inc eax ; push edx ; mov dword [esp+0x2C], ecx ; mov dword [esp+0x30], 0x00000034 ; call dword [0x10013130] ;  (1 found)
0x100063b0: inc eax ; push esi ; push ebx ; push ebp ; call dword [ebx+0x34] ;  (1 found)
0x1000f998: inc eax ; ret  ;  (1 found)
0x10010a81: inc eax ; ret  ;  (1 found)
0x10012105: inc eax ; sub al, 0x85 ; sal byte [edi+eax+0x50], 0xFFFFFFFF ; adc eax, 0x1001308C ; ret  ;  (1 found)
0x1000445d: inc ebp ; adc al, 0x50 ; call dword [0x10013128] ;  (1 found)
0x10004b9e: inc ebp ; adc al, 0x50 ; call dword [0x10013134] ;  (1 found)
0x1000d494: inc ebp ; add byte [ecx+0x035C2444], cl ; retn 0x5489 ;  (1 found)
0x1000c61d: inc ebp ; call dword [0x1001312C] ;  (1 found)
0x10005159: inc ebx ; add al, 0x57 ; mov cx, word [eax+0x02] ; push ecx ; call dword [0x10013130] ;  (1 found)
0x1000fa38: inc ebx ; or byte [ebx+0x5E5F20C4], al ; pop ebx ; add esp, 0x54 ; ret  ;  (1 found)
0x1000a974: inc ebx ; xor al, 0x50 ; call ebp ;  (1 found)
0x1000a9a3: inc ebx ; xor al, 0x50 ; call ebp ;  (1 found)
0x100065a4: inc ebx ; xor al, 0x8B ; sub eax, 0x10013128 ; push eax ; call ebp ;  (1 found)
0x10006706: inc ebx ; xor byte [ebx+0x006A18C4], al ; push eax ; call dword [0x10013128] ;  (1 found)
0x100056e4: inc ecx ; push 0x0000001C ; call dword [0x1001312C] ;  (1 found)
0x1000547e: inc ecx ; push ecx ; call ebx ;  (1 found)
0x1000b6f2: inc edi ; or al, 0x51 ; mov dword [esp+0x4C], edx ; mov dword [esp+0x50], eax ; call dword [0x10013134] ;  (1 found)
0x100114b4: inc edi ; or byte [eax-0x75], dl ; xor eax, 0x100130B4 ; call esi ;  (1 found)
0x10006c9d: inc edi ; sbb al, 0x50 ; call dword [0x10013134] ;  (1 found)
0x10006caa: inc edi ; sbb al, 0x51 ; call dword [0x10013134] ;  (1 found)
0x10007f17: inc edx ; push eax ; call dword [0x10013130] ;  (1 found)
0x1000e5f8: inc edx ; xor edx, edx ; mov dl, byte [ecx+0x1000E6C0] ; jmp dword [0x1000E6A4+edx*4] ;  (1 found)
0x1000da93: inc esi ; add byte [eax], al ; add esp, 0x18 ; pop esi ; ret  ;  (1 found)
0x1000da4b: inc esi ; add byte [eax], al ; add esp, 0x18 ; pop esi ; ret  ;  (1 found)
0x1000e8a1: inc esi ; and al, 0x50 ; call dword [0x10013130] ;  (1 found)
0x10003a40: inc esi ; inc eax ; add byte [eax], al ; add byte [eax], al ; call edi ;  (1 found)
0x10007f16: inc esi ; inc edx ; push eax ; call dword [0x10013130] ;  (1 found)
0x1000ac56: inc esi ; or al, 0x51 ; mov dword [esp+0x1C], edx ; mov dword [esp+0x20], eax ; call ebx ;  (1 found)
0x1000e1f2: inc esi ; push 0x00000001 ; push ecx ; mov dword [edi+0x2C], esi ; call dword [0x10013094] ;  (1 found)
0x100120ac: inc esi ; push 0x00000005 ; pop esi ; ret  ;  (1 found)
0x1000382e: inc esi ; pushad  ; add dword [eax], eax ; add byte [eax], al ; call dword [0x10013094] ;  (1 found)
0x100120cb: inc esi ; sub al, 0x50 ; call dword [0x10013090] ;  (1 found)
0x10003c30: inc esi ; sub al, 0x66 ; mov eax, dword [ebx+0x02] ; push eax ; call ebp ;  (1 found)
0x10011fa1: inc esp ; add dword [eax], eax ; add byte [eax], al ; call dword [0x10013160] ;  (1 found)
0x1000f617: inc esp ; and al, 0x00 ; push eax ; push 0x00000101 ; call dword [0x10013144] ;  (1 found)
0x100100b6: inc esp ; and al, 0x00 ; push eax ; push ecx ; call dword [0x1002FB84] ;  (1 found)
0x100109e4: inc esp ; and al, 0x00 ; push esi ; push eax ; call dword [0x100130CC] ;  (1 found)
0x10011058: inc esp ; and al, 0x04 ; add esp, 0x00000318 ; ret  ;  (1 found)
0x100119ee: inc esp ; and al, 0x04 ; push 0x1001F650 ; push eax ; call dword [0x100130FC] ;  (1 found)
0x1000f6a1: inc esp ; and al, 0x04 ; push eax ; call dword [0x10013084] ;  (1 found)
0x1000ef41: inc esp ; and al, 0x04 ; push eax ; call dword [0x1001308C] ;  (1 found)
0x100105b1: inc esp ; and al, 0x04 ; push eax ; call dword [0x100130D8] ;  (1 found)
0x1000f691: inc esp ; and al, 0x04 ; push eax ; call dword [0x100131A0] ;  (1 found)
0x1000f681: inc esp ; and al, 0x04 ; push eax ; call dword [0x100131A4] ;  (1 found)
0x1000f5c4: inc esp ; and al, 0x08 ; push eax ; call dword [0x10013074] ;  (1 found)
0x1000f535: inc esp ; and al, 0x0C ; pop edi ; pop esi ; ret  ;  (1 found)
0x1000ef70: inc esp ; and al, 0x0C ; push eax ; push esi ; call ebx ;  (1 found)
0x10010737: inc esp ; and al, 0x10 ; add byte [eax], cl ; add byte [eax], al ; call dword [0x10013040] ;  (1 found)
0x100030c5: inc esp ; and al, 0x10 ; mov eax, dword [esp+0x10] ; push eax ; call dword [0x1001312C] ;  (1 found)
0x100030c9: inc esp ; and al, 0x10 ; push eax ; call dword [0x1001312C] ;  (1 found)
0x1000b8eb: inc esp ; and al, 0x10 ; push ecx ; call edi ;  (1 found)
0x10010baf: inc esp ; and al, 0x10 ; sbb al, 0x01 ; add byte [eax], al ; call ebx ;  (1 found)
0x1000b8fa: inc esp ; and al, 0x12 ; push edx ; call edi ;  (1 found)
0x10010e5b: inc esp ; and al, 0x14 ; add byte [eax], al ; add byte [eax], al ; call dword [0x1001305C] ;  (1 found)
0x1000545e: inc esp ; and al, 0x14 ; call dword [0x10013130] ;  (1 found)
0x1000167d: inc esp ; and al, 0x14 ; push eax ; call ebx ;  (1 found)
0x1000f2a2: inc esp ; and al, 0x18 ; add al, byte [eax] ; mov dword [esp+0x1C], eax ; call dword [0x10013150] ;  (1 found)
0x1000f2a8: inc esp ; and al, 0x1C ; call dword [0x10013150] ;  (1 found)
0x1000ac5e: inc esp ; and al, 0x20 ; call ebx ;  (1 found)
0x100117d0: inc esp ; and al, 0x20 ; push 0x000000FF ; push eax ; call dword [0x100130AC] ;  (1 found)
0x10011f21: inc esp ; and al, 0x24 ; add al, byte [eax] ; call dword [0x10013128] ;  (1 found)
0x10004467: inc esp ; and al, 0x24 ; mov cx, word [ebp+0x40] ; push ecx ; call dword [0x10013130] ;  (1 found)
0x1000d3fe: inc esp ; and al, 0x24 ; mov eax, dword [ebp+0x00] ; push eax ; call esi ;  (1 found)
0x10011f32: inc esp ; and al, 0x28 ; call dword [0x1001312C] ;  (1 found)
0x10011f45: inc esp ; and al, 0x2E ; call dword [0x10013150] ;  (1 found)
0x10004ba8: inc esp ; and al, 0x30 ; mov cx, word [ebp+0x40] ; push ecx ; call dword [0x10013130] ;  (1 found)
0x1000d40f: inc esp ; and al, 0x30 ; push ecx ; call dword [0x1001312C] ;  (1 found)
0x1000be07: inc esp ; and al, 0x30 ; xor al, 0x00 ; add byte [eax], al ; call dword [0x10013130] ;  (1 found)
0x10011f9f: inc esp ; and al, 0x44 ; add dword [eax], eax ; add byte [eax], al ; call dword [0x10013160] ;  (1 found)
0x1000ce8a: inc esp ; and al, 0x4C ; mov dword [esp+0x50], ecx ; call edi ;  (1 found)
0x1000c855: inc esp ; and al, 0x4C ; mov dword [esp+0x50], ecx ; mov dword [esp+0x58], edi ; call dword [0x10013134] ;  (1 found)
0x1000ca65: inc esp ; and al, 0x4C ; mov dword [esp+0x50], ecx ; mov dword [esp+0x58], edi ; call dword [0x10013134] ;  (1 found)
0x1000b6fa: inc esp ; and al, 0x50 ; call dword [0x10013134] ;  (1 found)
0x1000a115: inc esp ; and al, 0x50 ; call edi ;  (1 found)
0x1000ce94: inc esp ; and al, 0x50 ; mov eax, dword [esp+0x000000C4] ; push eax ; call edi ;  (1 found)
0x1000b70b: inc esp ; and al, 0x50 ; push edi ; call ebx ;  (1 found)
0x1000cc6e: inc esp ; and al, 0x54 ; call esi ;  (1 found)
0x1000cc7b: inc esp ; and al, 0x54 ; push edx ; call esi ;  (1 found)
0x1000529b: inc esp ; and al, 0x5C ; call ebx ;  (1 found)
0x1000bb36: inc esp ; and al, 0x60 ; call dword [0x1001312C] ;  (1 found)
0x1000a15f: inc esp ; and al, 0x60 ; call edi ;  (1 found)
0x1000a166: inc esp ; and al, 0x62 ; push 0x00000014 ; call edi ;  (1 found)
0x1000d72f: inc esp ; and al, 0x64 ; call esi ;  (1 found)
0x10005287: inc esp ; and al, 0x64 ; push ebp ; call ebx ;  (1 found)
0x1000a17e: inc esp ; and al, 0x66 ; push edx ; call edi ;  (1 found)
0x1000a170: inc esp ; and al, 0x68 ; call edi ;  (1 found)
0x1000a186: inc esp ; and al, 0x68 ; mov eax, dword [esp+0x000000F0] ; push eax ; call edi ;  (1 found)
0x100099ec: inc esp ; and al, 0x6C ; add byte [eax], al ; add byte [eax], al ; call dword [0x10013080] ;  (1 found)
0x100052ae: inc esp ; and al, 0x70 ; call ebx ;  (1 found)
0x10005290: inc esp ; and al, 0x74 ; call ebx ;  (1 found)
0x1000d782: inc esp ; and al, 0x74 ; mov eax, dword [esp+0x00000104] ; push eax ; call esi ;  (1 found)
0x10005484: inc esp ; and al, 0x7C ; call dword [0x10013130] ;  (1 found)
0x10009f48: inc esp ; call edi ;  (1 found)
0x10009f0f: inc esp ; mov dword [esp+0x40], ecx ; call edi ;  (1 found)
0x1000c48e: inc esp ; mov dword [esp+0x48], ebp ; mov dword [esp+0x4C], ebx ; call edi ;  (1 found)
0x1000bfce: inc esp ; mov dword [esp+0x48], ebp ; mov dword [esp+0x4C], ebx ; call esi ;  (1 found)
0x1000d11f: inc esp ; mov dword [esp+0x48], ebp ; mov dword [esp+0x4C], edi ; call esi ;  (1 found)
0x1000fb9e: inc esp ; mov edx, dword [esp+0x0C] ; push edx ; call dword [0x1001301C] ;  (1 found)
0x1000300d: inc esp ; push ecx ; call edi ;  (1 found)
0x1000f2ce: inc esp ; retn 0x1001 ;  (1 found)
0x100099ee: insb  ; add byte [eax], al ; add byte [eax], al ; call dword [0x10013080] ;  (1 found)
0x1000cc8b: insb  ; and al, 0x10 ; push eax ; xor ebp, ebp ; call esi ;  (1 found)
0x10004459: insb  ; and al, 0x18 ; mov eax, dword [ebp+0x14] ; push eax ; call dword [0x10013128] ;  (1 found)
0x10003c01: insb  ; and al, 0x24 ; xor ebp, ebp ; call edi ;  (1 found)
0x1000c490: insb  ; and al, 0x48 ; mov dword [esp+0x4C], ebx ; call edi ;  (1 found)
0x1000bfd0: insb  ; and al, 0x48 ; mov dword [esp+0x4C], ebx ; call esi ;  (1 found)
0x1000d121: insb  ; and al, 0x48 ; mov dword [esp+0x4C], edi ; call esi ;  (1 found)
0x1000bffa: insb  ; and al, 0x58 ; call esi ;  (1 found)
0x1000cec2: insb  ; and al, 0x5C ; call edi ;  (1 found)
0x1000c046: insb  ; and al, 0x60 ; call esi ;  (1 found)
0x1000c01f: insb  ; and al, 0x6C ; push edx ; call esi ;  (1 found)
0x1000d77c: insb  ; and al, 0x74 ; call esi ;  (1 found)
0x1000d7af: insb  ; and al, 0x7C ; push eax ; call esi ;  (1 found)
0x10001bab: insb  ; call ebp ;  (1 found)
0x1000d758: insb  ; call esi ;  (1 found)
0x1000c021: insb  ; push edx ; call esi ;  (1 found)
0x1001147f: insd  ; inc eax ; call dword [0x10013060] ;  (1 found)
0x10006c81: int1  ; mov ecx, dword [ebp+0x00] ; push ecx ; call dword [0x10013134] ;  (1 found)
0x10006e06: int1  ; mov ecx, dword [esi+0x000005D4] ; push 0xFFFFFFFF ; push ecx ; call dword [0x10013090] ;  (1 found)
0x1000d12d: int3  ; add byte [eax], al ; add byte [ebx-0x12CCAE08], cl ; call esi ;  (1 found)
0x10003909: int3  ; add eax, 0x006A0000 ; push 0x00000001 ; push ecx ; call edi ;  (1 found)
0x100122cf: int3  ; jmp dword [0x100130C0] ;  (1 found)
0x100109eb: int3  ; xor byte [ecx], al ; adc byte [ebp+0x5108244C], cl ; call dword [0x100130D0] ;  (1 found)
0x10005b8b: into  ; add byte [eax], al ; add byte [ebx-0x7AD7DBBC], cl ; ror byte [edi], 0xFFFFFF84 ; retn 0x0000 ;  (1 found)
0x10011488: into  ; dec dword [ecx+0x10EBFC75] ; or eax, 0xFFFFFFFF ; ret  ;  (1 found)
0x1000e601: jmp dword [0x1000E6A4+edx*4] ;  (1 found)
0x1001241e: jmp dword [0x100130A4] ;  (1 found)
0x100122d0: jmp dword [0x100130C0] ;  (1 found)
0x10012130: jmp dword [0x10013114] ;  (1 found)
0x1000f670: jmp dword [0x10013140] ;  (1 found)
0x10012136: jmp dword [0x10013170] ;  (1 found)
0x1001213c: jmp dword [0x10013174] ;  (1 found)
0x10012142: jmp dword [0x10013178] ;  (1 found)
0x10012148: jmp dword [0x1001317C] ;  (1 found)
0x1001214e: jmp dword [0x10013180] ;  (1 found)
0x10012154: jmp dword [0x10013184] ;  (1 found)
0x1001215a: jmp dword [0x10013188] ;  (1 found)
0x10012160: jmp dword [0x1001318C] ;  (1 found)
0x1001216c: jmp dword [0x10013190] ;  (1 found)
0x10012166: jmp dword [0x10013194] ;  (1 found)
0x10012172: jmp dword [0x10013198] ;  (1 found)
0x100110f9: jmp dword [eax] ;  (1 found)
0x100101f2: jmp dword [ebx+0x1002FB74] ;  (1 found)
0x10010231: jmp dword [ebx+0x1002FB84] ;  (1 found)
0x10010270: jmp dword [ebx+0x1002FBA4] ;  (1 found)
0x100102af: jmp dword [ebx+0x1002FBB4] ;  (1 found)
0x100102ee: jmp dword [ebx+0x1002FBC8] ;  (1 found)
0x10010303: jmp dword [ebx+0x1002FBCC] ;  (1 found)
0x100039bd: jmp dword [ebx] ;  (1 found)
0x10005bd6: jmp dword [ecx+0x1002FDB8] ;  (1 found)
0x10005c5c: jmp dword [ecx+0x1002FDB8] ;  (1 found)
0x10007017: jmp dword [ecx+0x1002FDB8] ;  (1 found)
0x10007bfb: jmp dword [ecx+0x1002FDB8] ;  (1 found)
0x10008198: jmp dword [ecx+0x1002FDB8] ;  (1 found)
0x1000aa1f: jmp dword [ecx+0x1002FDB8] ;  (1 found)
0x1000adae: jmp dword [ecx+0x1002FDB8] ;  (1 found)
0x1000b0de: jmp dword [ecx+0x1002FDB8] ;  (1 found)
0x1000c5e1: jmp dword [ecx+0x1002FDB8] ;  (1 found)
0x1000e80f: jmp dword [ecx+0x1002FDB8] ;  (1 found)
0x1000797d: jmp dword [esi-0x75] ;  (1 found)
0x10007b7b: jmp dword [esi-0x75] ;  (1 found)
0x10003ad0: lahf  ; xchg eax, esp ; add eax, dword [eax] ; add byte [ebx], bh ; ret  ;  (1 found)
0x1000836d: lds ebx,  [ebp-0x3B7D0000] ; and byte [ebx+0x5D5E5FC3], cl ; pop ebx ; pop ecx ; ret  ;  (1 found)
0x10005c88: lds ebx,  [edi+0x5E] ; pop ebp ; pop ebx ; add esp, 0x00000094 ; ret  ;  (1 found)
0x10002f1f: lds ecx,  [ebp+0x2B142454] ; ret  ;  (1 found)
0x100050dd: lds ecx,  [ebp-0x39D4DFB3] ; add word [ebx], ax ; push ecx ; call dword [0x1001312C] ;  (1 found)
0x1000469d: lds ecx,  [ebp-0x39D4FEB3] ; add word [ebx], ax ; push ecx ; call dword [0x1001312C] ;  (1 found)
0x100067d6: lea eax, dword [esi+0x00000600] ; pop edi ; pop esi ; pop ebx ; ret  ;  (1 found)
0x100047bf: lea eax, dword [esi+edi] ; push edx ; push eax ; call dword [0x100130F4] ;  (1 found)
0x1000fd8c: lea eax, dword [esp+0x00000124] ; lea ecx, dword [esp+0x18] ; push eax ; push ecx ; call dword [0x1002FB6C] ;  (1 found)
0x10011f67: lea eax, dword [esp+0x00000138] ; push edi ; push eax ; push esi ; call dword [0x10013158] ;  (1 found)
0x10003299: lea eax, dword [esp+0x00000220] ; push 0x1001ACA4 ; push eax ; call esi ;  (1 found)
0x1000322a: lea eax, dword [esp+0x00000224] ; push eax ; call dword [0x10013100] ;  (1 found)
0x1000f616: lea eax, dword [esp+0x00] ; push eax ; push 0x00000101 ; call dword [0x10013144] ;  (1 found)
0x100100b5: lea eax, dword [esp+0x00] ; push eax ; push ecx ; call dword [0x1002FB84] ;  (1 found)
0x100109e3: lea eax, dword [esp+0x00] ; push esi ; push eax ; call dword [0x100130CC] ;  (1 found)
0x100119ed: lea eax, dword [esp+0x04] ; push 0x1001F650 ; push eax ; call dword [0x100130FC] ;  (1 found)
0x1000f5c3: lea eax, dword [esp+0x08] ; push eax ; call dword [0x10013074] ;  (1 found)
0x10010ba3: lea eax, dword [esp+0x0C] ; mov dword [esi], 0x00000000 ; push eax ; mov dword [esp+0x10], 0x0000011C ; call ebx ;  (1 found)
0x10010598: lea eax, dword [esp+0x0C] ; push eax ; push ecx ; push edx ; call dword [0x100130DC] ;  (1 found)
0x10010498: lea eax, dword [esp+0x0C] ; push eax ; push ecx ; push edx ; call dword [0x100130EC] ;  (1 found)
0x1000ef6f: lea eax, dword [esp+0x0C] ; push eax ; push esi ; call ebx ;  (1 found)
0x100117cf: lea eax, dword [esp+0x20] ; push 0x000000FF ; push eax ; call dword [0x100130AC] ;  (1 found)
0x1000b8a9: lea ebx, dword [eax+ecx] ; call edi ;  (1 found)
0x10003034: lea ebx, dword [ebx+eax+0x05] ; rep movsb  ; mov edi, dword [0x1001312C] ; call edi ;  (1 found)
0x1000a0b7: lea ebx, dword [ecx+eax] ; call edi ;  (1 found)
0x1000a0b8: lea ebx, dword [ecx+eax] ; call edi ;  (1 found)
0x100115ff: lea ebx, dword [edi+0x0C] ; push ebx ; call dword [0x100130B0] ;  (1 found)
0x1000469e: lea ecx, dword [ebp+0x01] ; sub eax, esi ; add word [ebx], ax ; push ecx ; call dword [0x1001312C] ;  (1 found)
0x100050de: lea ecx, dword [ebp+0x20] ; sub eax, esi ; add word [ebx], ax ; push ecx ; call dword [0x1001312C] ;  (1 found)
0x10001a24: lea ecx, dword [esi+0x01] ; push eax ; push ecx ; call dword [0x1001310C] ;  (1 found)
0x1001179f: lea ecx, dword [esi-0x08] ; push ecx ; call dword [0x100130B4] ;  (1 found)
0x10010bce: lea ecx, dword [esp+0x00000128] ; mov dword [esp+0x00000128], 0x00000114 ; push ecx ; call ebx ;  (1 found)
0x100032bb: lea ecx, dword [esp+0x0000022C] ; push edx ; push ecx ; call esi ;  (1 found)
0x10010572: lea ecx, dword [esp+0x00] ; lea edx, dword [esp+0x00001000] ; push ecx ; push edx ; call dword [0x100130E0] ;  (1 found)
0x1000f5ce: lea ecx, dword [esp+0x00] ; lea edx, dword [esp+0x08] ; push ecx ; push edx ; call dword [0x10013078] ;  (1 found)
0x100109ef: lea ecx, dword [esp+0x08] ; push ecx ; call dword [0x100130D0] ;  (1 found)
0x10010730: lea ecx, dword [esp+0x0C] ; push eax ; push ecx ; mov dword [esp+0x10], 0x00000800 ; call dword [0x10013040] ;  (1 found)
0x1000edb0: lea ecx, dword [esp+0x14] ; push ecx ; push esi ; call ebp ;  (1 found)
0x1000fd93: lea ecx, dword [esp+0x18] ; push eax ; push ecx ; call dword [0x1002FB6C] ;  (1 found)
0x1000fde5: lea ecx, dword [esp+0x18] ; push ecx ; push eax ; call dword [0x1002FB80] ;  (1 found)
0x10011753: lea ecx, dword [esp+0x1C] ; push 0x000000FF ; push ecx ; call dword [0x100130AC] ;  (1 found)
0x100118ee: lea ecx, dword [esp+0x1C] ; push 0x000000FF ; push ecx ; call dword [0x100130AC] ;  (1 found)
0x100116b8: lea ecx, dword [esp+0x24] ; push 0x000000FF ; push ecx ; call dword [0x100130AC] ;  (1 found)
0x10011652: lea ecx, dword [esp+0x28] ; push 0x000000FF ; push ecx ; call dword [0x100130AC] ;  (1 found)
0x1000bdfd: lea ecx, dword [esp+0x40] ; push edx ; mov dword [esp+0x2C], ecx ; mov dword [esp+0x30], 0x00000034 ; call dword [0x10013130] ;  (1 found)
0x10004ccd: lea ecx, dword [esp+0x78] ; push eax ; push ecx ; push edx ; call dword [0x10013130] ;  (1 found)
0x1000e3b1: lea edi, dword [0xC4830000] ; cmp byte [esi+0x5D], bl ; add esp, 0x0000041C ; ret  ;  (1 found)
0x10010576: lea edx, dword [esp+0x00001000] ; push ecx ; push edx ; call dword [0x100130E0] ;  (1 found)
0x1001082f: lea edx, dword [esp+0x00] ; push edx ; call dword [0x10013044] ;  (1 found)
0x10010502: lea edx, dword [esp+0x00] ; push edx ; call dword [0x100130E4] ;  (1 found)
0x10011a24: lea edx, dword [esp+0x00] ; push esi ; push edx ; call dword [0x100130BC] ;  (1 found)
0x1000f5d2: lea edx, dword [esp+0x08] ; push ecx ; push edx ; call dword [0x10013078] ;  (1 found)
0x10010e31: lea edx, dword [esp+0x14] ; push ecx ; push edx ; call dword [0x10013050] ;  (1 found)
0x1000366a: lea edx, esp ; add eax, 0xC4830000 ; sub byte [edx-0x01], ch ; push ecx ; call dword [0x10013090] ;  (1 found)
0x10005cce: lea esi, dword [ecx+eax+0x05] ; mov ax, word [ecx+eax+0x05] ; push eax ; call dword [0x10013130] ;  (1 found)
0x10006544: lea esi, dword [edx+0x00000084] ; mov edi, esp ; rep movsd  ; push ebx ; call eax ;  (1 found)
0x1000f1ea: leave  ; or byte [edx+0x01], ch ; push 0x00000002 ; mov dword [esi+0x3C], ecx ; call dword [0x10013168] ;  (1 found)
0x10009f3f: leave  ; push ebp ; mov dword [esp+0x38], edx ; mov dword [esp+0x44], ecx ; call edi ;  (1 found)
0x10009f0a: leave  ; push ebp ; mov dword [esp+0x44], edx ; mov dword [esp+0x40], ecx ; call edi ;  (1 found)
0x10009bc7: leave  ; push ebx ; mov dword [esp+0x40], edx ; mov dword [esp+0x38], ecx ; call ebp ;  (1 found)
0x10009f7e: leave  ; push edi ; mov dword [esp+0x38], edx ; mov dword [esp+0x3C], ecx ; call ebp ;  (1 found)
0x100109ac: les eax,  [0x5E0275C0+eax*4] ; ret  ;  (1 found)
0x10010d17: les eax,  [0x5E0875C0+eax*4] ; add esp, 0x0000009C ; ret  ;  (1 found)
0x100114e4: les eax,  [eax+edi*4] ; add dword [eax], eax ; add byte [eax], al ; ret  ;  (1 found)
0x1001075a: les eax,  [eax+edx] ; add byte [eax], al ; ret  ;  (1 found)
0x100107b4: les eax,  [eax+edx] ; add byte [eax], al ; ret  ;  (1 found)
0x1001079b: les eax,  [eax+edx] ; add byte [eax], al ; ret  ;  (1 found)
0x1000ce9a: les eax,  [eax] ; add byte [eax], al ; push eax ; call edi ;  (1 found)
0x10005d25: les eax,  [eax] ; add byte [ebx-0x3FCCE73C], al ; pop esi ; ret  ;  (1 found)
0x100106af: les eax,  [eax] ; or byte [eax], al ; add bl, al ; push ebx ; call dword [0x10013034] ;  (1 found)
0x100122c3: les eax,  [ebp-0x741E74FF] ; or byte [ebx-0x3CAFFBC0], cl ; int3  ; jmp dword [0x100130C0] ;  (1 found)
0x100105bc: les eax,  [ebx+eax*8] ; nop  ; push esi ; call dword [0x10013070] ;  (1 found)
0x1000128b: les eax,  [ebx+ecx*4] ; punpckhdq mm7, mm7 ; mov edx, dword [ecx+0x000005D4] ; push edx ; call dword [0x10013090] ;  (1 found)
0x10011af4: les eax,  [ecx+eax] ; add byte [eax], al ; ret  ;  (1 found)
0x10011a67: les eax,  [ecx+eax] ; add byte [eax], al ; ret  ;  (1 found)
0x10011afe: les eax,  [ecx+eax] ; add byte [eax], al ; ret  ;  (1 found)
0x1000f278: les eax,  [ecx+ecx*4] ; xchg byte [eax+0x52000004], bh ; call dword [0x1001312C] ;  (1 found)
0x1000fafc: les eax,  [edi+ebx*2] ; pop esi ; add esp, 0x3C ; ret  ;  (1 found)
0x1000d357: les ebp,  [eax-0x3D000000] ; push ebx ; mov ebx, dword [esp+0x000000C0] ; push 0x00000004 ; call dword [0x1001312C] ;  (1 found)
0x1000af7c: les ebp,  [eax] ; and edi, 0x0000FFFF ; push 0x000000CA ; call dword [0x1001312C] ;  (1 found)
0x1000b2b2: les ebp,  [eax] ; and edi, 0x0000FFFF ; push 0x000000CC ; call dword [0x1001312C] ;  (1 found)
0x100066ad: les ebp,  [eax] ; mov di, word [ebx+0x02] ; push 0x0000FFE2 ; call dword [0x1001312C] ;  (1 found)
0x10003b6b: les ebp,  [eax] ; pop edi ; pop ebx ; ret  ;  (1 found)
0x1000aa58: les ebp,  [eax] ; push 0x00000014 ; call dword [0x1001312C] ;  (1 found)
0x1000c61a: les ebp,  [eax] ; push 0x00000045 ; call dword [0x1001312C] ;  (1 found)
0x1000ade7: les ebp,  [eax] ; push 0x000000C9 ; call dword [0x1001312C] ;  (1 found)
0x1000b117: les ebp,  [eax] ; push 0x000000CB ; call dword [0x1001312C] ;  (1 found)
0x10003670: les ebp,  [eax] ; push 0xFFFFFFFF ; push ecx ; call dword [0x10013090] ;  (1 found)
0x10003abe: les ebp,  [eax] ; push 0xFFFFFFFF ; push ecx ; call dword [0x10013090] ;  (1 found)
0x1000d94e: les ebp,  [eax] ; push 0xFFFFFFFF ; push ecx ; call dword [0x10013090] ;  (1 found)
0x1000e0ae: les ebp,  [eax] ; push 0xFFFFFFFF ; push ecx ; call dword [0x10013090] ;  (1 found)
0x1000e1a6: les ebp,  [eax] ; push 0xFFFFFFFF ; push ecx ; call ebp ;  (1 found)
0x10003986: les ebp,  [eax] ; push 0xFFFFFFFF ; push ecx ; call edi ;  (1 found)
0x10006824: les ebp,  [eax] ; push 0xFFFFFFFF ; push ecx ; call edi ;  (1 found)
0x10006924: les ebp,  [eax] ; push 0xFFFFFFFF ; push ecx ; call edi ;  (1 found)
0x10001134: les ebp,  [eax] ; push 0xFFFFFFFF ; push edx ; call dword [0x10013090] ;  (1 found)
0x1001010f: les ebp,  [eax] ; push edi ; push eax ; call dword [0x1001302C] ;  (1 found)
0x1000eb31: les ebp,  [eax] ; ret  ;  (1 found)
0x1000ecc3: les ebp,  [eax] ; ret  ;  (1 found)
0x1000ecf6: les ebp,  [eax] ; ret  ;  (1 found)
0x1001196b: les ebp,  [eax] ; ret  ;  (1 found)
0x10011973: les ebp,  [eax] ; ret  ;  (1 found)
0x1000ff38: les ebp,  [eax] ; xor eax, eax ; pop edi ; pop esi ; ret  ;  (1 found)
0x1000d0be: les ebx,  [eax-0x3D000000] ; push ebx ; mov ebx, dword [esp+0x000000B0] ; push 0x00000003 ; call dword [0x1001312C] ;  (1 found)
0x1001105c: les ebx,  [eax] ; add eax, dword [eax] ; add bl, al ; call dword [0x10013070] ;  (1 found)
0x10011a22: les ebx,  [eax] ; lea edx, dword [esp+0x00] ; push esi ; push edx ; call dword [0x100130BC] ;  (1 found)
0x1000e552: les ebx,  [eax] ; mov eax, 0x00000001 ; pop edi ; pop esi ; ret  ;  (1 found)
0x1000ea0c: les ebx,  [eax] ; mov eax, 0x00000001 ; pop esi ; pop ebp ; ret  ;  (1 found)
0x1000e66f: les ebx,  [eax] ; mov eax, 0x00000001 ; ret  ;  (1 found)
0x1000ed2c: les ebx,  [eax] ; mov ecx, dword [edi+0x000006DC] ; push 0xFFFFFFFF ; push ecx ; call ebx ;  (1 found)
0x1000ee1d: les ebx,  [eax] ; mov ecx, dword [edi+0x000006E0] ; push ecx ; call dword [0x1001308C] ;  (1 found)
0x1000f1d3: les ebx,  [eax] ; mov ecx, dword [esi+0x000006DC] ; push 0xFFFFFFFF ; push ecx ; call dword [0x10013090] ;  (1 found)
0x10003817: les ebx,  [eax] ; mov ecx, dword [esi+0x5C] ; push 0xFFFFFFFF ; push ecx ; call dword [0x10013090] ;  (1 found)
0x1000f64d: les ebx,  [eax] ; or eax, 0xFFFFFFFF ; add esp, 0x00000190 ; ret  ;  (1 found)
0x10006fd4: les ebx,  [eax] ; or eax, 0xFFFFFFFF ; pop esi ; pop ebx ; ret  ;  (1 found)
0x1000f501: les ebx,  [eax] ; or eax, 0xFFFFFFFF ; pop esi ; ret  ;  (1 found)
0x100020be: les ebx,  [eax] ; pop edi ; pop esi ; pop ebx ; ret  ;  (1 found)
0x10006f6b: les ebx,  [eax] ; pop edi ; pop esi ; pop ebx ; ret  ;  (1 found)
0x1000ee66: les ebx,  [eax] ; pop edi ; pop esi ; pop ebx ; ret  ;  (1 found)
0x10003937: les ebx,  [eax] ; pop edi ; pop esi ; ret  ;  (1 found)
0x100068d0: les ebx,  [eax] ; pop edi ; pop esi ; ret  ;  (1 found)
0x100069af: les ebx,  [eax] ; pop edi ; pop esi ; ret  ;  (1 found)
0x1000d9f8: les ebx,  [eax] ; pop edi ; pop esi ; ret  ;  (1 found)
0x1000a9fd: les ebx,  [eax] ; pop esi ; pop ebx ; ret  ;  (1 found)
0x1000e154: les ebx,  [eax] ; pop esi ; pop ebx ; ret  ;  (1 found)
0x10001fd4: les ebx,  [eax] ; pop esi ; pop ecx ; ret  ;  (1 found)
0x100011f5: les ebx,  [eax] ; pop esi ; ret  ;  (1 found)
0x100010ad: les ebx,  [eax] ; pop esi ; ret  ;  (1 found)
0x10001449: les ebx,  [eax] ; pop esi ; ret  ;  (1 found)
0x10001411: les ebx,  [eax] ; pop esi ; ret  ;  (1 found)
0x10001554: les ebx,  [eax] ; pop esi ; ret  ;  (1 found)
0x100017b6: les ebx,  [eax] ; pop esi ; ret  ;  (1 found)
0x100037ec: les ebx,  [eax] ; pop esi ; ret  ;  (1 found)
0x1000385c: les ebx,  [eax] ; pop esi ; ret  ;  (1 found)
0x1000da97: les ebx,  [eax] ; pop esi ; ret  ;  (1 found)
0x1000da4f: les ebx,  [eax] ; pop esi ; ret  ;  (1 found)
0x10006709: les ebx,  [eax] ; push 0x00000000 ; push eax ; call dword [0x10013128] ;  (1 found)
0x10003b96: les ebx,  [eax] ; push 0x00000001 ; call dword [0x1001312C] ;  (1 found)
0x1000f31f: les ebx,  [eax] ; push 0x00000002 ; push edi ; call dword [0x1001313C] ;  (1 found)
0x1000f41c: les ebx,  [eax] ; push 0x00000002 ; push edi ; call dword [0x1001313C] ;  (1 found)
0x1000ed62: les ebx,  [eax] ; push 0x00000002 ; push esi ; call dword [0x1001313C] ;  (1 found)
0x1000f34d: les ebx,  [eax] ; push edi ; call dword [0x10013138] ;  (1 found)
0x1000f449: les ebx,  [eax] ; push edi ; call dword [0x10013138] ;  (1 found)
0x1000ed8f: les ebx,  [eax] ; push esi ; call dword [0x10013138] ;  (1 found)
0x10001f4a: les ebx,  [eax] ; ret  ;  (1 found)
0x10002c75: les ebx,  [eax] ; ret  ;  (1 found)
0x10002ca9: les ebx,  [eax] ; ret  ;  (1 found)
0x10004846: les ebx,  [eax] ; ret  ;  (1 found)
0x10006b61: les ebx,  [eax] ; ret  ;  (1 found)
0x1000eec6: les ebx,  [eax] ; ret  ;  (1 found)
0x1000ef2e: les ebx,  [eax] ; ret  ;  (1 found)
0x1000f602: les ebx,  [eax] ; ret  ;  (1 found)
0x10005d29: les ebx,  [eax] ; xor eax, eax ; pop esi ; ret  ;  (1 found)
0x100018bc: les ebx,  [esi+ebx*2] ; ret  ;  (1 found)
0x1000f715: les ebx,  [esi+ebx*2] ; ret  ;  (1 found)
0x1000e335: les ebx,  [esp+eax] ; add byte [eax], al ; ret  ;  (1 found)
0x1000e3bb: les ebx,  [esp+eax] ; add byte [eax], al ; ret  ;  (1 found)
0x1000e43c: les ebx,  [esp+eax] ; add byte [eax], al ; ret  ;  (1 found)
0x1000e48b: les ebx,  [esp+eax] ; add byte [eax], al ; ret  ;  (1 found)
0x1000d9a5: les ecx,  [0x500774C0+eax*4] ; call dword [0x1001308C] ;  (1 found)
0x10010c81: les ecx,  [0x5F0A75C0+eax*4] ; pop esi ; pop ebx ; add esp, 0x00000230 ; ret  ;  (1 found)
0x100104f2: les ecx,  [0x830A75C0+eax*4] ; enter 0x81FF, 0xC4 ; add byte [eax], dl ; add byte [eax], al ; ret  ;  (1 found)
0x10010df2: les ecx,  [0x830A75C0+eax*4] ; enter 0x81FF, 0xC4 ; add byte [eax], dl ; add byte [eax], al ; ret  ;  (1 found)
0x10005b85: les ecx,  [0xCE850FED+eax*4] ; add byte [eax], al ; add byte [ebx-0x7AD7DBBC], cl ; ror byte [edi], 0xFFFFFF84 ; retn 0x0000 ;  (1 found)
0x100111d2: les ecx,  [0xFFFDE08D+ecx*4] ; call dword [ecx-0x18] ;  (1 found)
0x10011411: les ecx,  [eax+edi*4] ; add dword [eax], eax ; add byte [eax], al ; pop esi ; ret  ;  (1 found)
0x10010586: les ecx,  [eax] ; add esp, 0x00002000 ; ret  ;  (1 found)
0x100109cd: les ecx,  [eax] ; mov eax, 0x00000001 ; pop esi ; ret  ;  (1 found)
0x10010944: les ecx,  [eax] ; mov eax, esi ; pop edi ; pop esi ; ret  ;  (1 found)
0x10011502: les ecx,  [eax] ; push 0xFFFFFFFF ; call dword [0x100130B8] ;  (1 found)
0x100014ba: les ecx,  [eax] ; ret  ;  (1 found)
0x1000805b: les ecx,  [eax] ; ret  ;  (1 found)
0x10007c72: les ecx,  [eax] ; ret  ;  (1 found)
0x10007de6: les ecx,  [eax] ; ret  ;  (1 found)
0x10007e19: les ecx,  [eax] ; ret  ;  (1 found)
0x1000952d: les ecx,  [eax] ; ret  ;  (1 found)
0x100096cf: les ecx,  [eax] ; ret  ;  (1 found)
0x10009703: les ecx,  [eax] ; ret  ;  (1 found)
0x10009abc: les ecx,  [eax] ; ret  ;  (1 found)
0x100081ca: les ecx,  [eax] ; ret  ;  (1 found)
0x100089fa: les ecx,  [eax] ; ret  ;  (1 found)
0x10008ab7: les ecx,  [eax] ; ret  ;  (1 found)
0x10008aea: les ecx,  [eax] ; ret  ;  (1 found)
0x10009c2e: les ecx,  [eax] ; ret  ;  (1 found)
0x10009c61: les ecx,  [eax] ; ret  ;  (1 found)
0x1000f6c0: les ecx,  [eax] ; ret  ;  (1 found)
0x1001071d: les ecx,  [eax] ; ret  ;  (1 found)
0x100100c2: les ecx,  [eax] ; xor eax, eax ; add esp, 0x0000010C ; ret  ;  (1 found)
0x10011c40: les ecx,  [ebx+eax*8] ; mov eax, 0x00000001 ; add esp, 0x0C ; ret  ;  (1 found)
0x100100c7: les ecx,  [ecx+eax] ; add byte [eax], al ; ret  ;  (1 found)
0x10010db9: les ecx,  [edi+ebx*2] ; mov eax, 0x00000001 ; pop esi ; add esp, 0x0000009C ; ret  ;  (1 found)
0x10011188: les ecx,  [edx+ebp*2] ; and byte [ebp-0x00066B73], cl ; call dword [ecx-0x18] ;  (1 found)
0x1000e3b6: les edi,  [eax] ; pop esi ; pop ebp ; add esp, 0x0000041C ; ret  ;  (1 found)
0x1000e330: les edi,  [eax] ; pop esi ; pop ebp ; add esp, 0x0000041C ; ret  ;  (1 found)
0x10002f14: les edi,  [eax] ; ret  ;  (1 found)
0x100031b6: les edi,  [eax] ; ret  ;  (1 found)
0x10003183: les edi,  [eax] ; ret  ;  (1 found)
0x1000a570: les edx,  [eax+0x6A] ; call word [0x1001312C] ;  (1 found)
0x1000c209: les edx,  [eax+0x6A] ; push cs ; call dword [0x1001312C] ;  (1 found)
0x1000abff: les edx,  [eax+0x6A] ; push es ; call dword [0x1001312C] ;  (1 found)
0x1000f667: les edx,  [eax-0x3CFFFFFF] ; nop  ; nop  ; nop  ; jmp dword [0x10013140] ;  (1 found)
0x1000f653: les edx,  [eax-0x3CFFFFFF] ; push 0x1002FB60 ; call dword [0x10013028] ;  (1 found)
0x100015d3: les edx,  [eax] ; ret  ;  (1 found)
0x1000170d: les edx,  [eax] ; ret  ;  (1 found)
0x100016db: les edx,  [eax] ; ret  ;  (1 found)
0x1000280c: les edx,  [eax] ; ret  ;  (1 found)
0x1000274a: les edx,  [eax] ; ret  ;  (1 found)
0x1000277d: les edx,  [eax] ; ret  ;  (1 found)
0x1000283f: les edx,  [eax] ; ret  ;  (1 found)
0x10003d64: les edx,  [eax] ; ret  ;  (1 found)
0x10006bd4: les edx,  [eax] ; ret  ;  (1 found)
0x10006bf2: les edx,  [eax] ; ret  ;  (1 found)
0x10006e8e: les edx,  [eax] ; ret  ;  (1 found)
0x10007f9b: les edx,  [eax] ; ret  ;  (1 found)
0x10006dea: les edx,  [eax] ; ret  ;  (1 found)
0x1000db88: les edx,  [eax] ; ret  ;  (1 found)
0x1000dbe0: les edx,  [eax] ; ret  ;  (1 found)
0x1000dc2f: les edx,  [eax] ; ret  ;  (1 found)
0x1000db3b: les edx,  [eax] ; ret  ;  (1 found)
0x1000dc79: les edx,  [eax] ; ret  ;  (1 found)
0x1000dd60: les edx,  [eax] ; ret  ;  (1 found)
0x1000dcda: les edx,  [eax] ; ret  ;  (1 found)
0x1000de2e: les edx,  [eax] ; ret  ;  (1 found)
0x1000dea1: les edx,  [eax] ; ret  ;  (1 found)
0x1000dff6: les edx,  [eax] ; ret  ;  (1 found)
0x1000dfc2: les edx,  [eax] ; ret  ;  (1 found)
0x1000e069: les edx,  [eax] ; ret  ;  (1 found)
0x1000f6ea: les edx,  [eax] ; ret  ;  (1 found)
0x1000f917: les edx,  [eax] ; ret  ;  (1 found)
0x1000f9b7: les edx,  [eax] ; ret  ;  (1 found)
0x1000f8fa: les edx,  [eax] ; ret  ;  (1 found)
0x100103b7: les edx,  [eax] ; ret  ;  (1 found)
0x100103db: les edx,  [eax] ; ret  ;  (1 found)
0x100104cb: les edx,  [eax] ; ret  ;  (1 found)
0x10010647: les edx,  [eax] ; ret  ;  (1 found)
0x10010023: les edx,  [eax] ; xor eax, eax ; pop esi ; pop ecx ; ret  ;  (1 found)
0x100034f8: les edx,  [esp+eax] ; add byte [eax], al ; ret  ;  (1 found)
0x1000208a: les esi,  [eax] ; pop edi ; pop esi ; pop ebx ; ret  ;  (1 found)
0x1000e486: les esi,  [eax] ; pop esi ; pop ebp ; add esp, 0x0000041C ; ret  ;  (1 found)
0x1000123d: les esi,  [eax] ; pop esi ; ret  ;  (1 found)
0x10001080: les esi,  [eax] ; pop esi ; ret  ;  (1 found)
0x10001890: les esi,  [eax] ; pop esi ; ret  ;  (1 found)
0x100017ff: les esi,  [eax] ; pop esi ; ret  ;  (1 found)
0x1000119b: les esi,  [eax] ; push 0x00000000 ; push 0x00000001 ; push edx ; call dword [0x10013094] ;  (1 found)
0x10001def: les esi,  [eax] ; ret  ;  (1 found)
0x1000d6af: les esi, eax ; add byte [eax], al ; add byte [edx+0x67], ch ; call dword [0x1001312C] ;  (1 found)
0x1000148e: les esp,  [0x8B2274C0+eax*4] ; dec esp ; and al, 0x08 ; push ecx ; call eax ;  (1 found)
0x1000f046: les esp,  [eax] ; mov eax, esi ; pop edi ; pop esi ; ret  ;  (1 found)
0x1001014d: les esp,  [eax] ; mov eax, esi ; pop edi ; pop esi ; retn 0x000C ;  (1 found)
0x10002234: les esp,  [eax] ; mov eax, esi ; pop esi ; ret  ;  (1 found)
0x1000228f: les esp,  [eax] ; mov eax, esi ; pop esi ; ret  ;  (1 found)
0x1000fc78: les esp,  [eax] ; mov ecx, dword [esp+0x0C] ; push ecx ; call dword [0x1001301C] ;  (1 found)
0x100115c5: les esp,  [eax] ; pop edi ; pop esi ; pop ebx ; ret  ;  (1 found)
0x1000ea3e: les esp,  [eax] ; pop esi ; xor eax, eax ; pop ebp ; ret  ;  (1 found)
0x10004046: les esp,  [eax] ; push 0x80000000 ; call ebp ;  (1 found)
0x10010197: les esp,  [eax] ; push edi ; call dword [0x10013030] ;  (1 found)
0x100034f3: les esp,  [eax] ; xor eax, eax ; add esp, 0x00000414 ; ret  ;  (1 found)
0x10002164: les esp,  [eax] ; xor eax, eax ; pop esi ; ret  ;  (1 found)
0x1000e69f: les esp,  [eax] ; xor eax, eax ; ret  ;  (1 found)
0x1000dc26: les esp,  [ebx+esi] ; rcr byte [edi+0x5E], 0x0000005D ; pop ebx ; add esp, 0x10 ; ret  ;  (1 found)
0x1000139d: les esp,  [edi+ebx*2] ; pop esi ; pop ebp ; pop ebx ; ret  ;  (1 found)
0x10011775: les esp,  [edi+ebx*2] ; pop esi ; pop ebx ; add esp, 0x00000100 ; ret  ;  (1 found)
0x1000e918: les esp,  [edi+ebx*2] ; pop esi ; pop ebx ; ret  ;  (1 found)
0x1000d6b0: lock add byte [eax], al ; add byte [edx+0x67], ch ; call dword [0x1001312C] ;  (1 found)
0x10003285: lodsb  ; add dword [eax], edx ; call dword [0x100130F8] ;  (1 found)
0x100032a2: lodsb  ; add dword [eax], edx ; push eax ; call esi ;  (1 found)
0x10002085: lodsd  ; add byte [ecx], al ; add byte [ebx+0x5E5F30C4], al ; pop ebx ; ret  ;  (1 found)
0x10003b91: lodsd  ; in eax, 0x00 ; add byte [ebx+0x016A18C4], al ; call dword [0x1001312C] ;  (1 found)
0x1000ade2: mov ah, 0x00 ; add byte [eax], al ; add esp, 0x28 ; push 0x000000C9 ; call dword [0x1001312C] ;  (1 found)
0x1000b112: mov ah, 0x00 ; add byte [eax], al ; add esp, 0x28 ; push 0x000000CB ; call dword [0x1001312C] ;  (1 found)
0x1000a283: mov ah, 0x00 ; add byte [eax], al ; ret  ;  (1 found)
0x1000a2b3: mov ah, 0x00 ; add byte [eax], al ; ret  ;  (1 found)
0x1000a71b: mov ah, 0x00 ; add byte [eax], al ; ret  ;  (1 found)
0x1000a6eb: mov ah, 0x00 ; add byte [eax], al ; ret  ;  (1 found)
0x1000c432: mov ah, 0x24 ; clc  ; add byte [eax], al ; add byte [ebx+0x026A50C4], al ; call dword [0x1001312C] ;  (1 found)
0x1000b69e: mov ah, 0x24 ; clc  ; add byte [eax], al ; add byte [ebx+0x0C6A50C4], al ; call ebx ;  (1 found)
0x1000b499: mov ah, 0x24 ; hlt  ; add byte [eax], al ; add byte [ebx+0x086A50C4], al ; call dword [0x1001312C] ;  (1 found)
0x1000aa51: mov ah, 0x24 ; mov esp, 0x83000000 ; les ebp,  [eax] ; push 0x00000014 ; call dword [0x1001312C] ;  (1 found)
0x1000c613: mov ah, 0x24 ; mov esp, 0x83000000 ; les ebp,  [eax] ; push 0x00000045 ; call dword [0x1001312C] ;  (1 found)
0x100114f8: mov ah, 0x30 ; add dword [eax], edx ; call edi ;  (1 found)
0x100114b9: mov ah, 0x30 ; add dword [eax], edx ; call esi ;  (1 found)
0x1000ed8a: mov ah, 0x33 ; add byte [eax], al ; add esp, 0x18 ; push esi ; call dword [0x10013138] ;  (1 found)
0x1000d0c8: mov al, 0x00 ; add byte [eax], al ; push 0x00000003 ; call dword [0x1001312C] ;  (1 found)
0x10003e5c: mov al, 0x02 ; add byte [eax], al ; mov ebp, dword [0x10013134] ; push 0x80000000 ; call ebp ;  (1 found)
0x10011564: mov al, 0x30 ; add dword [eax], edx ; push edi ; push 0x0000000C ; call esi ;  (1 found)
0x1000b8e5: mov al, byte [0x66000000] ; mov dword [esp+0x10], eax ; push ecx ; call edi ;  (1 found)
0x10009ef4: mov al, byte [0x8B000000] ; cmp eax, 0x10013134 ; mov ebp, dword [esi+0x0000009C] ; push eax ; call edi ;  (1 found)
0x10004abb: mov ax, word [eax+0x02] ; push eax ; call dword [0x10013130] ;  (1 found)
0x10005f74: mov ax, word [eax+0x24] ; push ebp ; push eax ; call dword [0x10013130] ;  (1 found)
0x1000e33b: mov ax, word [eax] ; mov esi, dword [0x10013130] ; push eax ; call esi ;  (1 found)
0x100047de: mov ax, word [ebp+0x00] ; push eax ; call dword [0x1001312C] ;  (1 found)
0x100051ed: mov ax, word [ebp+0x00] ; push eax ; call dword [0x1001312C] ;  (1 found)
0x10003c32: mov ax, word [ebx+0x02] ; push eax ; call ebp ;  (1 found)
0x10003ee3: mov ax, word [ecx+0x02] ; push eax ; call dword [0x10013130] ;  (1 found)
0x10005cd2: mov ax, word [ecx+eax+0x05] ; push eax ; call dword [0x10013130] ;  (1 found)
0x1000e34b: mov ax, word [edx+0x02] ; push eax ; call esi ;  (1 found)
0x1000e78e: mov ax, word [esi+0x02] ; push eax ; call dword [0x10013130] ;  (1 found)
0x1000e5dc: mov ax, word [esi+0x02] ; push eax ; call ebp ;  (1 found)
0x1000e98e: mov ax, word [esi+0x02] ; push eax ; call ebx ;  (1 found)
0x1000e89f: mov ax, word [esi+0x24] ; push eax ; call dword [0x10013130] ;  (1 found)
0x10007f14: mov ax, word [esi+0x42] ; push eax ; call dword [0x10013130] ;  (1 found)
0x1000e7b1: mov ax, word [esi] ; push eax ; call dword [0x10013130] ;  (1 found)
0x1000e5d4: mov ax, word [esi] ; push eax ; call ebp ;  (1 found)
0x1000e986: mov ax, word [esi] ; push eax ; call ebx ;  (1 found)
0x100069ab: mov bh, 0x00 ; add byte [ebx+0x5E5F18C4], al ; ret  ;  (1 found)
0x1000107b: mov bh, 0x10 ; add dword [eax], eax ; add esp, 0x30 ; pop esi ; ret  ;  (1 found)
0x1001006a: mov bp, seg? ; add dl, byte [eax] ; push eax ; push ecx ; call dword [0x1002FBA4] ;  (1 found)
0x1000fee0: mov bp, seg? ; add dl, byte [eax] ; push eax ; push ecx ; call dword [0x1002FBB8] ;  (1 found)
0x1000feaf: mov bp, seg? ; add dl, byte [eax] ; push ecx ; call dword [0x1002FBA0] ;  (1 found)
0x1000fecf: mov bp, seg? ; add dl, byte [eax] ; push edi ; push eax ; call dword [0x1002FB9C] ;  (1 found)
0x1000fec3: mov bp, seg? ; add dl, byte [eax] ; push edx ; call dword [0x1002FBAC] ;  (1 found)
0x1000d7db: mov byte [eax], al ; add byte [eax], al ; call esi ;  (1 found)
0x100077b8: mov byte [eax], al ; add byte [eax], al ; push eax ; call dword [0x10013128] ;  (1 found)
0x100091b3: mov byte [eax], al ; add byte [eax], al ; push ecx ; call dword [0x10013128] ;  (1 found)
0x1000d7eb: mov byte [eax], al ; add byte [eax], al ; push ecx ; call esi ;  (1 found)
0x1000832a: mov byte [eax], al ; add byte [eax], al ; push edx ; call dword [0x10013128] ;  (1 found)
0x10008c34: mov byte [eax], al ; add byte [eax], al ; push edx ; call dword [0x10013128] ;  (1 found)
0x10008e04: mov byte [eax], al ; add byte [eax], al ; push edx ; call dword [0x10013128] ;  (1 found)
0x10008fd4: mov byte [eax], al ; add byte [eax], al ; push edx ; call dword [0x10013128] ;  (1 found)
0x1001147d: mov byte [ebx], dl ; insd  ; inc eax ; call dword [0x10013060] ;  (1 found)
0x100105e4: mov byte [ecx], 0x00000000 ; call dword [0x10013034] ;  (1 found)
0x1001215c: mov byte [ecx], dh ; add dword [eax], edx ; jmp dword [0x1001318C] ;  (1 found)
0x10008aaa: mov byte [esi-0x3B7D0000], dl ; and byte [ebx+0x5B5E5FC7], cl ; add esp, 0x08 ; ret  ;  (1 found)
0x10006f67: mov cl, 0x00 ; add byte [ebx+0x5E5F18C4], al ; pop ebx ; ret  ;  (1 found)
0x10005ccb: mov cl, byte [eax+0x04] ; lea esi, dword [ecx+eax+0x05] ; mov ax, word [ecx+eax+0x05] ; push eax ; call dword [0x10013130] ;  (1 found)
0x10003908: mov cs, sp ; add eax, 0x006A0000 ; push 0x00000001 ; push ecx ; call edi ;  (1 found)
0x100091b2: mov cs, word [eax+0x51000000] ; call dword [0x10013128] ;  (1 found)
0x1000505b: mov cx, word [eax+0x02] ; push ecx ; call dword [0x10013130] ;  (1 found)
0x1000515c: mov cx, word [eax+0x02] ; push ecx ; call dword [0x10013130] ;  (1 found)
0x1000461c: mov cx, word [eax+0x02] ; push ecx ; call dword [0x10013130] ;  (1 found)
0x1000446a: mov cx, word [ebp+0x40] ; push ecx ; call dword [0x10013130] ;  (1 found)
0x10004bab: mov cx, word [ebp+0x40] ; push ecx ; call dword [0x10013130] ;  (1 found)
0x1000f2b6: mov dh, 0x00 ; add byte [eax], al ; push 0x00000000 ; call dword [0x10013164] ;  (1 found)
0x100095fd: mov dh, 0x00 ; add byte [eax], al ; push ecx ; call dword [0x10013128] ;  (1 found)
0x10008196: mov dh, 0xFF ; jmp dword [ecx+0x1002FDB8] ;  (1 found)
0x100066af: mov di, word [ebx+0x02] ; push 0x0000FFE2 ; call dword [0x1001312C] ;  (1 found)
0x10006545: mov dl, 0x84 ; add byte [eax], al ; add byte [ebx+0x53A5F3FC], cl ; call eax ;  (1 found)
0x1000e5fb: mov dl, byte [ecx+0x1000E6C0] ; jmp dword [0x1000E6A4+edx*4] ;  (1 found)
0x1000231a: mov dword [0x1001F714], 0x00000000 ; ret  ;  (1 found)
0x10007dda: mov dword [0xC4830000], eax ; and byte [ebx+0x5B5E5FC7], cl ; add esp, 0x08 ; ret  ;  (1 found)
0x10007e0d: mov dword [0xC4830000], eax ; and byte [ebx+0x5B5E5FC7], cl ; add esp, 0x08 ; ret  ;  (1 found)
0x10009f9e: mov dword [eax+0x04], edx ; mov eax, dword [esi+0x00000098] ; push eax ; call dword [0x10013128] ;  (1 found)
0x10009f2a: mov dword [eax+0x04], edx ; mov eax, dword [esi+0x000000A8] ; mov ebp, dword [esi+0x000000A4] ; push eax ; call edi ;  (1 found)
0x10003ee0: mov dword [eax+0x0C], edx ; mov ax, word [ecx+0x02] ; push eax ; call dword [0x10013130] ;  (1 found)
0x10009f9c: mov dword [eax], ecx ; mov dword [eax+0x04], edx ; mov eax, dword [esi+0x00000098] ; push eax ; call dword [0x10013128] ;  (1 found)
0x1000370c: mov dword [ebp+0x000003A4], ebx ; call dword [0x10013094] ;  (1 found)
0x10006c8f: mov dword [ebp+0x00], eax ; push edx ; call dword [0x10013134] ;  (1 found)
0x10003013: mov dword [ebp+0x20], eax ; call edi ;  (1 found)
0x10011279: mov dword [ebp-0x0000064C], edi ; push edi ; push 0x00000001 ; push 0x001F0FFF ; call dword [0x10013058] ;  (1 found)
0x1001149f: mov dword [ebp-0x04], 0x00000001 ; mov edx, dword [edi+0x04] ; push edx ; call dword [ebp-0x1C] ;  (1 found)
0x100114b0: mov dword [ebp-0x04], esi ; mov eax, dword [edi+0x08] ; push eax ; mov esi, dword [0x100130B4] ; call esi ;  (1 found)
0x1001144b: mov dword [ebp-0x1C], eax ; mov esi, dword [edi+0x08] ; call dword [0x10013080] ;  (1 found)
0x1000d3ba: mov dword [ebx+0x28], 0x00000002 ; mov dword [esp+0x18], ecx ; mov dword [esp+0x1C], edx ; mov dword [esp+0x20], edi ; call esi ;  (1 found)
0x1000d115: mov dword [ebx+0x28], 0x00000003 ; mov dword [esp+0x44], edx ; mov dword [esp+0x48], ebp ; mov dword [esp+0x4C], edi ; call esi ;  (1 found)
0x10003047: mov dword [ebx], eax ; push esi ; call edi ;  (1 found)
0x10001bed: mov dword [ecx+0x000005CC], eax ; call ebp ;  (1 found)
0x10004e81: mov dword [ecx+0x0C], eax ; mov ecx, dword [esp+0x28] ; mov dword [edi+0x20], ecx ; call dword [0x10013134] ;  (1 found)
0x10003007: mov dword [ecx+0x0C], eax ; mov ecx, dword [esp+0x44] ; push ecx ; call edi ;  (1 found)
0x10003d5e: mov dword [ecx+0x0C], ebp ; pop ebp ; pop ebx ; add esp, 0x10 ; ret  ;  (1 found)
0x10007b9f: mov dword [ecx], eax ; mov dx, word [esi+0x00000094] ; push edx ; call dword [0x10013130] ;  (1 found)
0x10011ec8: mov dword [ecx], eax ; mov eax, 0xFFFFFFF9 ; add esp, 0x00001128 ; ret  ;  (1 found)
0x1000ee37: mov dword [edi+0x000006E0], 0x00000000 ; call dword [0x10013094] ;  (1 found)
0x10006c99: mov dword [edi+0x18], eax ; mov eax, dword [edi+0x1C] ; push eax ; call dword [0x10013134] ;  (1 found)
0x10006ca9: mov dword [edi+0x1C], eax ; push ecx ; call dword [0x10013134] ;  (1 found)
0x10004e88: mov dword [edi+0x20], ecx ; call dword [0x10013134] ;  (1 found)
0x10004a88: mov dword [edi+0x20], ecx ; mov edx, dword [esp+0x10] ; push edx ; call dword [0x1001312C] ;  (1 found)
0x10004a9c: mov dword [edi+0x24], eax ; call dword [0x10013134] ;  (1 found)
0x1000bfc4: mov dword [edi+0x28], 0x00000000 ; mov dword [esp+0x44], ecx ; mov dword [esp+0x48], ebp ; mov dword [esp+0x4C], ebx ; call esi ;  (1 found)
0x1000e1f6: mov dword [edi+0x2C], esi ; call dword [0x10013094] ;  (1 found)
0x10011fe2: mov dword [edi], 0x00000000 ; push 0x00000002 ; push esi ; call dword [0x1001313C] ;  (1 found)
0x100035ef: mov dword [edx+0x04], esi ; mov dword [esi+0x04], eax ; mov eax, dword [ebx+0x000005D4] ; push eax ; call dword [0x10013094] ;  (1 found)
0x10005a4b: mov dword [edx+0x0C], eax ; mov ecx, dword [esp+0x4C] ; push ecx ; call ebp ;  (1 found)
0x10005a5e: mov dword [edx+0x20], eax ; call ebp ;  (1 found)
0x10011ef7: mov dword [edx], 0x00000000 ; pop ebx ; add esp, 0x00001128 ; ret  ;  (1 found)
0x10010755: mov dword [edx], eax ; xor eax, eax ; add esp, 0x00001004 ; ret  ;  (1 found)
0x10007b8c: mov dword [edx], ecx ; mov eax, dword [esi+0x00000090] ; push eax ; call dword [0x10013128] ;  (1 found)
0x1000a96d: mov dword [esi+0x00000080], eax ; mov eax, dword [ebx+0x34] ; push eax ; call ebp ;  (1 found)
0x100065b6: mov dword [esi+0x00000080], eax ; mov edx, dword [ebx+0x34] ; mov dword [esp+0x18], ecx ; push edx ; call ebp ;  (1 found)
0x1000696e: mov dword [esi+0x00000374], ecx ; mov ecx, dword [esi+0x4C] ; push ecx ; mov dword [esi+0x00000378], edx ; call edi ;  (1 found)
0x10006894: mov dword [esi+0x00000374], edx ; mov edx, dword [esi+0x4C] ; push edx ; call edi ;  (1 found)
0x10006978: mov dword [esi+0x00000378], edx ; call edi ;  (1 found)
0x10006d45: mov dword [esi+0x000003A8], 0x00000000 ; call dword [0x10013094] ;  (1 found)
0x1000f27a: mov dword [esi+0x000004B8], eax ; push edx ; call dword [0x1001312C] ;  (1 found)
0x10006efc: mov dword [esi+0x000005D0], eax ; call edi ;  (1 found)
0x1000f5ab: mov dword [esi+0x000006DC], eax ; pop edi ; xor eax, eax ; pop esi ; ret  ;  (1 found)
0x1000166d: mov dword [esi+0x000006E4], eax ; push edx ; call ebx ;  (1 found)
0x10001676: mov dword [esi+0x000006E8], eax ; mov eax, dword [esp+0x14] ; push eax ; call ebx ;  (1 found)
0x10001687: mov dword [esi+0x000006EC], eax ; push ecx ; call ebx ;  (1 found)
0x100035f2: mov dword [esi+0x04], eax ; mov eax, dword [ebx+0x000005D4] ; push eax ; call dword [0x10013094] ;  (1 found)
0x1000fedb: mov dword [esi+0x04], eax ; mov ecx, dword [0x1002FD8C] ; push eax ; push ecx ; call dword [0x1002FBB8] ;  (1 found)
0x10012091: mov dword [esi+0x08], 0x1000EED0 ; mov dword [esi+0x34], eax ; call dword [0x10013088] ;  (1 found)
0x1000b8d2: mov dword [esi+0x20], edx ; mov dword [esi+0x24], eax ; mov dword [esi+0x28], 0x00000002 ; push ebp ; call edi ;  (1 found)
0x1000b8d5: mov dword [esi+0x24], eax ; mov dword [esi+0x28], 0x00000002 ; push ebp ; call edi ;  (1 found)
0x1000b2f3: mov dword [esi+0x24], edx ; push eax ; mov dword [esi+0x28], 0x00000002 ; mov dword [esp+0x18], ebx ; call dword [0x10013134] ;  (1 found)
0x1000c484: mov dword [esi+0x28], 0x00000000 ; mov dword [esp+0x44], ecx ; mov dword [esp+0x48], ebp ; mov dword [esp+0x4C], ebx ; call edi ;  (1 found)
0x1000b2f7: mov dword [esi+0x28], 0x00000002 ; mov dword [esp+0x18], ebx ; call dword [0x10013134] ;  (1 found)
0x1000b8d8: mov dword [esi+0x28], 0x00000002 ; push ebp ; call edi ;  (1 found)
0x10003c2f: mov dword [esi+0x2C], eax ; mov ax, word [ebx+0x02] ; push eax ; call ebp ;  (1 found)
0x100120a5: mov dword [esi+0x2C], eax ; mov dword [esi+0x30], ecx ; mov dword [esi+0x68], 0x00000005 ; pop esi ; ret  ;  (1 found)
0x10003c42: mov dword [esi+0x2C], ebp ; mov word [esi+0x2E], bp ; mov ecx, dword [esp+0x18] ; push ecx ; call edi ;  (1 found)
0x1000da6b: mov dword [esi+0x2C], ecx ; call dword [0x10013094] ;  (1 found)
0x10003c46: mov dword [esi+0x2E], ebp ; mov ecx, dword [esp+0x18] ; push ecx ; call edi ;  (1 found)
0x100120a8: mov dword [esi+0x30], ecx ; mov dword [esi+0x68], 0x00000005 ; pop esi ; ret  ;  (1 found)
0x10012098: mov dword [esi+0x34], eax ; call dword [0x10013088] ;  (1 found)
0x1000f1f0: mov dword [esi+0x3C], ecx ; call dword [0x10013168] ;  (1 found)
0x1000f483: mov dword [esi+0x3C], edx ; call dword [0x10013094] ;  (1 found)
0x10003a3f: mov dword [esi+0x40], 0x00000000 ; call edi ;  (1 found)
0x1000a98d: mov dword [esi+0x48], ecx ; mov dword [esi+0x4C], 0x00000010 ; mov edx, dword [ebx+0x38] ; push edx ; call ebp ;  (1 found)
0x1000a990: mov dword [esi+0x4C], 0x00000010 ; mov edx, dword [ebx+0x38] ; push edx ; call ebp ;  (1 found)
0x1000382d: mov dword [esi+0x60], 0x00000001 ; call dword [0x10013094] ;  (1 found)
0x100120ab: mov dword [esi+0x68], 0x00000005 ; pop esi ; ret  ;  (1 found)
0x10001ba9: mov dword [esi+0x6C], ebx ; call ebp ;  (1 found)
0x10010ba7: mov dword [esi], 0x00000000 ; push eax ; mov dword [esp+0x10], 0x0000011C ; call ebx ;  (1 found)
0x1000febf: mov dword [esi], eax ; mov edx, dword [0x1002FD8C] ; push edx ; call dword [0x1002FBAC] ;  (1 found)
0x100052a2: mov dword [esp+0x00000080], eax ; call ebx ;  (1 found)
0x1000d7d1: mov dword [esp+0x00000084], edi ; mov dword [esp+0x00000088], ebp ; call esi ;  (1 found)
0x1000d7e8: mov dword [esp+0x00000088], eax ; push ecx ; call esi ;  (1 found)
0x1000d7d8: mov dword [esp+0x00000088], ebp ; call esi ;  (1 found)
0x10009d88: mov dword [esp+0x000000E4], 0x00000000 ; call dword [0x10013080] ;  (1 found)
0x10010bd5: mov dword [esp+0x00000128], 0x00000114 ; push ecx ; call ebx ;  (1 found)
0x10010bae: mov dword [esp+0x10], 0x0000011C ; call ebx ;  (1 found)
0x10010736: mov dword [esp+0x10], 0x00000800 ; call dword [0x10013040] ;  (1 found)
0x100030c4: mov dword [esp+0x10], eax ; mov eax, dword [esp+0x10] ; push eax ; call dword [0x1001312C] ;  (1 found)
0x1000b8ea: mov dword [esp+0x10], eax ; push ecx ; call edi ;  (1 found)
0x1000cc8a: mov dword [esp+0x10], ebp ; push eax ; xor ebp, ebp ; call esi ;  (1 found)
0x1000d3d8: mov dword [esp+0x10], edi ; push ecx ; xor edi, edi ; call esi ;  (1 found)
0x1000b8f9: mov dword [esp+0x12], eax ; push edx ; call edi ;  (1 found)
0x10010e5a: mov dword [esp+0x14], 0x00000000 ; call dword [0x1001305C] ;  (1 found)
0x1000545d: mov dword [esp+0x14], eax ; call dword [0x10013130] ;  (1 found)
0x1000d737: mov dword [esp+0x14], edi ; xor edi, edi ; call esi ;  (1 found)
0x1000f2a1: mov dword [esp+0x18], 0x44890002 ; and al, 0x1C ; call dword [0x10013150] ;  (1 found)
0x1000b2fe: mov dword [esp+0x18], ebx ; call dword [0x10013134] ;  (1 found)
0x1000d3c1: mov dword [esp+0x18], ecx ; mov dword [esp+0x1C], edx ; mov dword [esp+0x20], edi ; call esi ;  (1 found)
0x100065bf: mov dword [esp+0x18], ecx ; push edx ; call ebp ;  (1 found)
0x1000f2a7: mov dword [esp+0x1C], eax ; call dword [0x10013150] ;  (1 found)
0x1000ac59: mov dword [esp+0x1C], edx ; mov dword [esp+0x20], eax ; call ebx ;  (1 found)
0x1000d3c5: mov dword [esp+0x1C], edx ; mov dword [esp+0x20], edi ; call esi ;  (1 found)
0x1000ac5d: mov dword [esp+0x20], eax ; call ebx ;  (1 found)
0x1000d3c9: mov dword [esp+0x20], edi ; call esi ;  (1 found)
0x10004466: mov dword [esp+0x24], eax ; mov cx, word [ebp+0x40] ; push ecx ; call dword [0x10013130] ;  (1 found)
0x1000d3fd: mov dword [esp+0x24], eax ; mov eax, dword [ebp+0x00] ; push eax ; call esi ;  (1 found)
0x10003c00: mov dword [esp+0x24], ebp ; xor ebp, ebp ; call edi ;  (1 found)
0x10002bad: mov dword [esp+0x24], ecx ; call dword [0x10013134] ;  (1 found)
0x10011f31: mov dword [esp+0x28], eax ; call dword [0x1001312C] ;  (1 found)
0x1000be02: mov dword [esp+0x2C], ecx ; mov dword [esp+0x30], 0x00000034 ; call dword [0x10013130] ;  (1 found)
0x1000d3f3: mov dword [esp+0x2C], ecx ; mov dword [esp+0x30], edi ; call esi ;  (1 found)
0x10011f44: mov dword [esp+0x2E], eax ; call dword [0x10013150] ;  (1 found)
0x1000be06: mov dword [esp+0x30], 0x00000034 ; call dword [0x10013130] ;  (1 found)
0x10004ba7: mov dword [esp+0x30], eax ; mov cx, word [ebp+0x40] ; push ecx ; call dword [0x10013130] ;  (1 found)
0x1000d40e: mov dword [esp+0x30], eax ; push ecx ; call dword [0x1001312C] ;  (1 found)
0x1000d3f7: mov dword [esp+0x30], edi ; call esi ;  (1 found)
0x10009bcd: mov dword [esp+0x38], ecx ; call ebp ;  (1 found)
0x10009f80: mov dword [esp+0x38], edx ; mov dword [esp+0x3C], ecx ; call ebp ;  (1 found)
0x10009f41: mov dword [esp+0x38], edx ; mov dword [esp+0x44], ecx ; call edi ;  (1 found)
0x10009f84: mov dword [esp+0x3C], ecx ; call ebp ;  (1 found)
0x10009f10: mov dword [esp+0x40], ecx ; call edi ;  (1 found)
0x10009bc9: mov dword [esp+0x40], edx ; mov dword [esp+0x38], ecx ; call ebp ;  (1 found)
0x10011f9e: mov dword [esp+0x44], 0x00000001 ; call dword [0x10013160] ;  (1 found)
0x10009f45: mov dword [esp+0x44], ecx ; call edi ;  (1 found)
0x1000c48b: mov dword [esp+0x44], ecx ; mov dword [esp+0x48], ebp ; mov dword [esp+0x4C], ebx ; call edi ;  (1 found)
0x1000bfcb: mov dword [esp+0x44], ecx ; mov dword [esp+0x48], ebp ; mov dword [esp+0x4C], ebx ; call esi ;  (1 found)
0x10009f0c: mov dword [esp+0x44], edx ; mov dword [esp+0x40], ecx ; call edi ;  (1 found)
0x1000d11c: mov dword [esp+0x44], edx ; mov dword [esp+0x48], ebp ; mov dword [esp+0x4C], edi ; call esi ;  (1 found)
0x1000c48f: mov dword [esp+0x48], ebp ; mov dword [esp+0x4C], ebx ; call edi ;  (1 found)
0x1000bfcf: mov dword [esp+0x48], ebp ; mov dword [esp+0x4C], ebx ; call esi ;  (1 found)
0x1000d120: mov dword [esp+0x48], ebp ; mov dword [esp+0x4C], edi ; call esi ;  (1 found)
0x10011f9a: mov dword [esp+0x48], esi ; mov dword [esp+0x44], 0x00000001 ; call dword [0x10013160] ;  (1 found)
0x1000ce89: mov dword [esp+0x4C], eax ; mov dword [esp+0x50], ecx ; call edi ;  (1 found)
0x1000c854: mov dword [esp+0x4C], eax ; mov dword [esp+0x50], ecx ; mov dword [esp+0x58], edi ; call dword [0x10013134] ;  (1 found)
0x1000ca64: mov dword [esp+0x4C], eax ; mov dword [esp+0x50], ecx ; mov dword [esp+0x58], edi ; call dword [0x10013134] ;  (1 found)
0x1000c493: mov dword [esp+0x4C], ebx ; call edi ;  (1 found)
0x1000bfd3: mov dword [esp+0x4C], ebx ; call esi ;  (1 found)
0x1000c27d: mov dword [esp+0x4C], ebx ; mov dword [esp+0x50], edi ; mov dword [esp+0x5C], ecx ; mov dword [esp+0x60], edx ; call dword [0x10013134] ;  (1 found)
0x1000d124: mov dword [esp+0x4C], edi ; call esi ;  (1 found)
0x1000b6f5: mov dword [esp+0x4C], edx ; mov dword [esp+0x50], eax ; call dword [0x10013134] ;  (1 found)
0x1000b6f9: mov dword [esp+0x50], eax ; call dword [0x10013134] ;  (1 found)
0x1000a114: mov dword [esp+0x50], eax ; call edi ;  (1 found)
0x1000ce93: mov dword [esp+0x50], eax ; mov eax, dword [esp+0x000000C4] ; push eax ; call edi ;  (1 found)
0x1000b70a: mov dword [esp+0x50], eax ; push edi ; call ebx ;  (1 found)
0x1000ce8d: mov dword [esp+0x50], ecx ; call edi ;  (1 found)
0x1000c858: mov dword [esp+0x50], ecx ; mov dword [esp+0x58], edi ; call dword [0x10013134] ;  (1 found)
0x1000ca68: mov dword [esp+0x50], ecx ; mov dword [esp+0x58], edi ; call dword [0x10013134] ;  (1 found)
0x1000c281: mov dword [esp+0x50], edi ; mov dword [esp+0x5C], ecx ; mov dword [esp+0x60], edx ; call dword [0x10013134] ;  (1 found)
0x1000cc69: mov dword [esp+0x50], edx ; mov dword [esp+0x54], eax ; call esi ;  (1 found)
0x1000cc6d: mov dword [esp+0x54], eax ; call esi ;  (1 found)
0x1000cc7a: mov dword [esp+0x54], eax ; push edx ; call esi ;  (1 found)
0x1000bff5: mov dword [esp+0x54], ebx ; mov dword [esp+0x58], ebp ; call esi ;  (1 found)
0x1000d14a: mov dword [esp+0x54], edi ; call esi ;  (1 found)
0x1000bff9: mov dword [esp+0x58], ebp ; call esi ;  (1 found)
0x1000cebd: mov dword [esp+0x58], ebx ; mov dword [esp+0x5C], ebp ; call edi ;  (1 found)
0x1000c85c: mov dword [esp+0x58], edi ; call dword [0x10013134] ;  (1 found)
0x1000ca6c: mov dword [esp+0x58], edi ; call dword [0x10013134] ;  (1 found)
0x1000529a: mov dword [esp+0x5C], eax ; call ebx ;  (1 found)
0x1000cec1: mov dword [esp+0x5C], ebp ; call edi ;  (1 found)
0x1000c041: mov dword [esp+0x5C], ebx ; mov dword [esp+0x60], ebp ; call esi ;  (1 found)
0x1000c285: mov dword [esp+0x5C], ecx ; mov dword [esp+0x60], edx ; call dword [0x10013134] ;  (1 found)
0x1000bb2e: mov dword [esp+0x5C], edx ; mov eax, dword [eax+0x0C] ; mov dword [esp+0x60], eax ; call dword [0x1001312C] ;  (1 found)
0x1000a157: mov dword [esp+0x5C], edx ; mov eax, dword [eax+0x0C] ; mov dword [esp+0x60], eax ; call edi ;  (1 found)
0x1000bb35: mov dword [esp+0x60], eax ; call dword [0x1001312C] ;  (1 found)
0x1000a15e: mov dword [esp+0x60], eax ; call edi ;  (1 found)
0x1000c045: mov dword [esp+0x60], ebp ; call esi ;  (1 found)
0x1000c289: mov dword [esp+0x60], edx ; call dword [0x10013134] ;  (1 found)
0x1000d72a: mov dword [esp+0x60], edx ; mov dword [esp+0x64], eax ; call esi ;  (1 found)
0x1000a165: mov dword [esp+0x62], eax ; push 0x00000014 ; call edi ;  (1 found)
0x1000d72e: mov dword [esp+0x64], eax ; call esi ;  (1 found)
0x10005286: mov dword [esp+0x64], eax ; push ebp ; call ebx ;  (1 found)
0x1000a17d: mov dword [esp+0x66], eax ; push edx ; call edi ;  (1 found)
0x1000a16f: mov dword [esp+0x68], eax ; call edi ;  (1 found)
0x1000a185: mov dword [esp+0x68], eax ; mov eax, dword [esp+0x000000F0] ; push eax ; call edi ;  (1 found)
0x1000c01a: mov dword [esp+0x68], ebx ; mov dword [esp+0x6C], ebp ; push edx ; call esi ;  (1 found)
0x1000d751: mov dword [esp+0x68], ecx ; mov dword [esp+0x6C], edi ; call esi ;  (1 found)
0x100099eb: mov dword [esp+0x6C], 0x00000000 ; call dword [0x10013080] ;  (1 found)
0x1000c01e: mov dword [esp+0x6C], ebp ; push edx ; call esi ;  (1 found)
0x1000d755: mov dword [esp+0x6C], edi ; call esi ;  (1 found)
0x100052ad: mov dword [esp+0x70], eax ; call ebx ;  (1 found)
0x1000d777: mov dword [esp+0x70], edi ; mov dword [esp+0x74], ebp ; call esi ;  (1 found)
0x1000528f: mov dword [esp+0x74], eax ; call ebx ;  (1 found)
0x1000d781: mov dword [esp+0x74], eax ; mov eax, dword [esp+0x00000104] ; push eax ; call esi ;  (1 found)
0x1000d77b: mov dword [esp+0x74], ebp ; call esi ;  (1 found)
0x1000d7a3: mov dword [esp+0x78], edi ; mov eax, dword [esp+0x0000010C] ; mov dword [esp+0x7C], ebp ; push eax ; call esi ;  (1 found)
0x10005483: mov dword [esp+0x7C], eax ; call dword [0x10013130] ;  (1 found)
0x1000d7ae: mov dword [esp+0x7C], ebp ; push eax ; call esi ;  (1 found)
0x10004392: mov dx, word [eax+0x02] ; push edx ; call dword [0x10013130] ;  (1 found)
0x1000ebd2: mov dx, word [eax+0x02] ; push edx ; call dword [0x10013130] ;  (1 found)
0x1000ebd1: mov dx, word [eax+0x02] ; push edx ; call dword [0x10013130] ;  (1 found)
0x10003c22: mov dx, word [ebx] ; mov ebp, dword [0x1001312C] ; push edx ; call ebp ;  (1 found)
0x1000bd0c: mov dx, word [edi+0x24] ; push eax ; push ecx ; push edx ; call dword [0x10013130] ;  (1 found)
0x10007ba1: mov dx, word [esi+0x00000094] ; push edx ; call dword [0x10013130] ;  (1 found)
0x1000f270: mov dx, word [esi+0x000004BC] ; add esp, 0x04 ; mov dword [esi+0x000004B8], eax ; push edx ; call dword [0x1001312C] ;  (1 found)
0x10010992: mov eax, 0x00000001 ; add esp, 0x00000118 ; ret  ;  (1 found)
0x10011c43: mov eax, 0x00000001 ; add esp, 0x0C ; ret  ;  (1 found)
0x10010cd4: mov eax, 0x00000001 ; pop ebx ; add esp, 0x00000230 ; ret  ;  (1 found)
0x100106a8: mov eax, 0x00000001 ; pop ebx ; add esp, 0x00000800 ; ret  ;  (1 found)
0x10005eb7: mov eax, 0x00000001 ; pop ebx ; ret  ;  (1 found)
0x10005fe5: mov eax, 0x00000001 ; pop ebx ; ret  ;  (1 found)
0x10006060: mov eax, 0x00000001 ; pop ebx ; ret  ;  (1 found)
0x1000e554: mov eax, 0x00000001 ; pop edi ; pop esi ; ret  ;  (1 found)
0x10011b44: mov eax, 0x00000001 ; pop edi ; pop esi ; ret  ;  (1 found)
0x10010dbc: mov eax, 0x00000001 ; pop esi ; add esp, 0x0000009C ; ret  ;  (1 found)
0x1001191f: mov eax, 0x00000001 ; pop esi ; add esp, 0x00000100 ; ret  ;  (1 found)
0x100107ad: mov eax, 0x00000001 ; pop esi ; add esp, 0x00001004 ; ret  ;  (1 found)
0x10010a41: mov eax, 0x00000001 ; pop esi ; add esp, 0x0C ; ret  ;  (1 found)
0x1000ea0e: mov eax, 0x00000001 ; pop esi ; pop ebp ; ret  ;  (1 found)
0x10011413: mov eax, 0x00000001 ; pop esi ; ret  ;  (1 found)
0x1001034b: mov eax, 0x00000001 ; pop esi ; ret  ;  (1 found)
0x10010387: mov eax, 0x00000001 ; pop esi ; ret  ;  (1 found)
0x100105ed: mov eax, 0x00000001 ; pop esi ; ret  ;  (1 found)
0x1001061c: mov eax, 0x00000001 ; pop esi ; ret  ;  (1 found)
0x100109cf: mov eax, 0x00000001 ; pop esi ; ret  ;  (1 found)
0x1000e671: mov eax, 0x00000001 ; ret  ;  (1 found)
0x10011399: mov eax, 0x00000001 ; ret  ;  (1 found)
0x10011379: mov eax, 0x00000001 ; ret  ;  (1 found)
0x100114e6: mov eax, 0x00000001 ; ret  ;  (1 found)
0x10010b38: mov eax, 0x00000001 ; ret  ;  (1 found)
0x1000ca5d: mov eax, 0x33000000 ; call dword [edx-0x77] ;  (1 found)
0x100019e8: mov eax, 0x50000003 ; call edi ;  (1 found)
0x10001a0a: mov eax, 0x52000003 ; call dword [0x10013108] ;  (1 found)
0x1000f27c: mov eax, 0x52000004 ; call dword [0x1001312C] ;  (1 found)
0x10004321: mov eax, 0x681001AF ; ret  ;  (1 found)
0x1000f2c4: mov eax, 0x681002FD ; test byte [ecx], 0x00000000 ; add byte [eax+0x44], ch ; retn 0x1001 ;  (1 found)
0x1000f298: mov eax, 0x6A000004 ; adc byte [ecx+0x52], dl ; mov word [esp+0x18], 0x0002 ; mov dword [esp+0x1C], eax ; call dword [0x10013150] ;  (1 found)
0x1000f38d: mov eax, 0x6A1002FD ; add byte [eax+0x24], ch ; retn 0x1001 ;  (1 found)
0x1000f20c: mov eax, 0x6A1002FD ; add byte [eax+0x68], dl ; test byte [ecx], 0x00000000 ; add byte [eax+0x60], ch ; retn 0x1001 ;  (1 found)
0x1000f62c: mov eax, 0x6A1002FD ; add byte [eax-0x3C], ch ; retn 0x1001 ;  (1 found)
0x1001119d: mov eax, 0x85FFFFF9 ; sal byte [ebp+0x16], 0x00000068 ; push 0x6A1001F0 ; and byte [ebp-0x00066B6B], cl ; call dword [edx-0x18] ;  (1 found)
0x1000b706: mov eax, 0x89000000 ; inc esp ; and al, 0x50 ; push edi ; call ebx ;  (1 found)
0x100068cc: mov eax, 0xC4830000 ; sbb byte [edi+0x5E], bl ; ret  ;  (1 found)
0x10011eca: mov eax, 0xFFFFFFF9 ; add esp, 0x00001128 ; ret  ;  (1 found)
0x10011ef2: mov eax, 0xFFFFFFF9 ; mov dword [edx], 0x00000000 ; pop ebx ; add esp, 0x00001128 ; ret  ;  (1 found)
0x1000f162: mov eax, 0xFFFFFFF9 ; pop ebp ; ret  ;  (1 found)
0x10011cdf: mov eax, 0xFFFFFFFE ; pop ebx ; add esp, 0x00001128 ; ret  ;  (1 found)
0x100011c2: mov eax, dword [0x1001F700] ; push 0x00000000 ; push 0x00000001 ; push eax ; call dword [0x10013094] ;  (1 found)
0x10001d01: mov eax, dword [0x1001F700] ; push ebx ; push 0x00000001 ; push eax ; call dword [0x10013094] ;  (1 found)
0x1000fff1: mov eax, dword [0x1002FD8C] ; push ecx ; push edx ; push eax ; call dword [0x1002FBC8] ;  (1 found)
0x1000fece: mov eax, dword [0x1002FD8C] ; push edi ; push eax ; call dword [0x1002FB9C] ;  (1 found)
0x10007f8f: mov eax, dword [0xC4830000] ; and byte [ebx+0x5B5E5FC7], cl ; add esp, 0x10 ; ret  ;  (1 found)
0x10004abc: mov eax, dword [eax+0x02] ; push eax ; call dword [0x10013130] ;  (1 found)
0x100122ca: mov eax, dword [eax+0x04] ; push eax ; ret  ;  (1 found)
0x10003004: mov eax, dword [eax+0x0C] ; mov dword [ecx+0x0C], eax ; mov ecx, dword [esp+0x44] ; push ecx ; call edi ;  (1 found)
0x10005a48: mov eax, dword [eax+0x0C] ; mov dword [edx+0x0C], eax ; mov ecx, dword [esp+0x4C] ; push ecx ; call ebp ;  (1 found)
0x1000bb32: mov eax, dword [eax+0x0C] ; mov dword [esp+0x60], eax ; call dword [0x1001312C] ;  (1 found)
0x1000a15b: mov eax, dword [eax+0x0C] ; mov dword [esp+0x60], eax ; call edi ;  (1 found)
0x10005f75: mov eax, dword [eax+0x24] ; push ebp ; push eax ; call dword [0x10013130] ;  (1 found)
0x10011333: mov eax, dword [eax] ; add byte [eax], al ; push edi ; call dword [0x1001308C] ;  (1 found)
0x1000e33c: mov eax, dword [eax] ; mov esi, dword [0x10013130] ; push eax ; call esi ;  (1 found)
0x100047df: mov eax, dword [ebp+0x00] ; push eax ; call dword [0x1001312C] ;  (1 found)
0x100051ee: mov eax, dword [ebp+0x00] ; push eax ; call dword [0x1001312C] ;  (1 found)
0x1000d401: mov eax, dword [ebp+0x00] ; push eax ; call esi ;  (1 found)
0x1000445c: mov eax, dword [ebp+0x14] ; push eax ; call dword [0x10013128] ;  (1 found)
0x10004b9d: mov eax, dword [ebp+0x14] ; push eax ; call dword [0x10013134] ;  (1 found)
0x100035f5: mov eax, dword [ebx+0x000005D4] ; push eax ; call dword [0x10013094] ;  (1 found)
0x10003598: mov eax, dword [ebx+0x000005D4] ; push edi ; push 0xFFFFFFFF ; push eax ; call esi ;  (1 found)
0x10003c33: mov eax, dword [ebx+0x02] ; push eax ; call ebp ;  (1 found)
0x10005158: mov eax, dword [ebx+0x04] ; push edi ; mov cx, word [eax+0x02] ; push ecx ; call dword [0x10013130] ;  (1 found)
0x10006705: mov eax, dword [ebx+0x30] ; add esp, 0x18 ; push 0x00000000 ; push eax ; call dword [0x10013128] ;  (1 found)
0x100065a3: mov eax, dword [ebx+0x34] ; mov ebp, dword [0x10013128] ; push eax ; call ebp ;  (1 found)
0x100065dd: mov eax, dword [ebx+0x34] ; push 0x000001F6 ; push eax ; call ebp ;  (1 found)
0x1000a973: mov eax, dword [ebx+0x34] ; push eax ; call ebp ;  (1 found)
0x1000a9a2: mov eax, dword [ebx+0x34] ; push eax ; call ebp ;  (1 found)
0x10006afb: mov eax, dword [ebx+0x5C] ; push 0x00000000 ; push 0x00000001 ; push eax ; call dword [0x10013094] ;  (1 found)
0x10003ee4: mov eax, dword [ecx+0x02] ; push eax ; call dword [0x10013130] ;  (1 found)
0x1000a109: mov eax, dword [ecx+0x0C] ; mov ecx, dword [esp+0x000000E0] ; push ecx ; mov dword [esp+0x50], eax ; call edi ;  (1 found)
0x10005cd3: mov eax, dword [ecx+eax+0x05] ; push eax ; call dword [0x10013130] ;  (1 found)
0x10004619: mov eax, dword [edi+0x08] ; mov cx, word [eax+0x02] ; push ecx ; call dword [0x10013130] ;  (1 found)
0x100114b3: mov eax, dword [edi+0x08] ; push eax ; mov esi, dword [0x100130B4] ; call esi ;  (1 found)
0x1000b6f1: mov eax, dword [edi+0x0C] ; push ecx ; mov dword [esp+0x4C], edx ; mov dword [esp+0x50], eax ; call dword [0x10013134] ;  (1 found)
0x10006c9c: mov eax, dword [edi+0x1C] ; push eax ; call dword [0x10013134] ;  (1 found)
0x1000e1e4: mov eax, dword [edi+0x30] ; push eax ; call ebp ;  (1 found)
0x10005059: mov eax, dword [edi] ; mov cx, word [eax+0x02] ; push ecx ; call dword [0x10013130] ;  (1 found)
0x10011449: mov eax, dword [edi] ; mov dword [ebp-0x1C], eax ; mov esi, dword [edi+0x08] ; call dword [0x10013080] ;  (1 found)
0x1000e34c: mov eax, dword [edx+0x02] ; push eax ; call esi ;  (1 found)
0x100077b6: mov eax, dword [esi+0x00000088] ; push eax ; call dword [0x10013128] ;  (1 found)
0x10007b8e: mov eax, dword [esi+0x00000090] ; push eax ; call dword [0x10013128] ;  (1 found)
0x10009f66: mov eax, dword [esi+0x00000094] ; mov ebp, dword [0x10013134] ; mov edi, dword [esi+0x00000090] ; push eax ; call ebp ;  (1 found)
0x10009fa1: mov eax, dword [esi+0x00000098] ; push eax ; call dword [0x10013128] ;  (1 found)
0x10009ef2: mov eax, dword [esi+0x000000A0] ; mov edi, dword [0x10013134] ; mov ebp, dword [esi+0x0000009C] ; push eax ; call edi ;  (1 found)
0x10009f2d: mov eax, dword [esi+0x000000A8] ; mov ebp, dword [esi+0x000000A4] ; push eax ; call edi ;  (1 found)
0x10009baf: mov eax, dword [esi+0x000000C2] ; mov ebp, dword [0x10013134] ; mov ebx, dword [esi+0x000000BE] ; push eax ; call ebp ;  (1 found)
0x100068a0: mov eax, dword [esi+0x00000380] ; push 0x00000000 ; push 0x00000001 ; push eax ; call edi ;  (1 found)
0x10006dd1: mov eax, dword [esi+0x000005D0] ; push 0x00000000 ; push 0x00000001 ; push eax ; call dword [0x10013094] ;  (1 found)
0x100038fa: mov eax, dword [esi+0x000005D4] ; push 0x00000000 ; push 0x00000001 ; push eax ; call edi ;  (1 found)
0x1000f119: mov eax, dword [esi+0x000005D8] ; push ecx ; push edx ; push eax ; call edi ;  (1 found)
0x1000f148: mov eax, dword [esi+0x000005D8] ; push ecx ; push edx ; push eax ; call edi ;  (1 found)
0x1000f240: mov eax, dword [esi+0x000006DC] ; push 0x00000000 ; push 0x00000001 ; push eax ; call dword [0x10013094] ;  (1 found)
0x1000f356: mov eax, dword [esi+0x000006DC] ; push 0x00000000 ; push 0x00000001 ; push eax ; call dword [0x10013094] ;  (1 found)
0x1000e78f: mov eax, dword [esi+0x02] ; push eax ; call dword [0x10013130] ;  (1 found)
0x1000e5dd: mov eax, dword [esi+0x02] ; push eax ; call ebp ;  (1 found)
0x1000e98f: mov eax, dword [esi+0x02] ; push eax ; call ebx ;  (1 found)
0x1000ac55: mov eax, dword [esi+0x0C] ; push ecx ; mov dword [esp+0x1C], edx ; mov dword [esp+0x20], eax ; call ebx ;  (1 found)
0x1000e8a0: mov eax, dword [esi+0x24] ; push eax ; call dword [0x10013130] ;  (1 found)
0x100120ca: mov eax, dword [esi+0x2C] ; push eax ; call dword [0x10013090] ;  (1 found)
0x10007f15: mov eax, dword [esi+0x42] ; push eax ; call dword [0x10013130] ;  (1 found)
0x100120ef: mov eax, dword [esi+0x68] ; pop esi ; ret  ;  (1 found)
0x10010066: mov eax, dword [esi] ; mov ecx, dword [0x1002FD8C] ; push eax ; push ecx ; call dword [0x1002FBA4] ;  (1 found)
0x1000e7b2: mov eax, dword [esi] ; push eax ; call dword [0x10013130] ;  (1 found)
0x1000e5d5: mov eax, dword [esi] ; push eax ; call ebp ;  (1 found)
0x1000e987: mov eax, dword [esi] ; push eax ; call ebx ;  (1 found)
0x10004e7a: mov eax, dword [esp+0x00000084] ; mov dword [ecx+0x0C], eax ; mov ecx, dword [esp+0x28] ; mov dword [edi+0x20], ecx ; call dword [0x10013134] ;  (1 found)
0x1000cc83: mov eax, dword [esp+0x000000B8] ; mov dword [esp+0x10], ebp ; push eax ; xor ebp, ebp ; call esi ;  (1 found)
0x1000c49b: mov eax, dword [esp+0x000000BC] ; push eax ; xor ebp, ebp ; call edi ;  (1 found)
0x1000ce97: mov eax, dword [esp+0x000000C4] ; push eax ; call edi ;  (1 found)
0x1000c001: mov eax, dword [esp+0x000000D4] ; push eax ; xor ebp, ebp ; call esi ;  (1 found)
0x1000c027: mov eax, dword [esp+0x000000DC] ; push eax ; xor ebp, ebp ; call esi ;  (1 found)
0x1000c04d: mov eax, dword [esp+0x000000E4] ; push eax ; xor ebp, ebp ; call esi ;  (1 found)
0x1000bfdb: mov eax, dword [esp+0x000000EC] ; push eax ; xor ebp, ebp ; call esi ;  (1 found)
0x1000a189: mov eax, dword [esp+0x000000F0] ; push eax ; call edi ;  (1 found)
0x1000d75d: mov eax, dword [esp+0x000000F4] ; push eax ; xor ebp, ebp ; call esi ;  (1 found)
0x1000d785: mov eax, dword [esp+0x00000104] ; push eax ; call esi ;  (1 found)
0x1000d7a7: mov eax, dword [esp+0x0000010C] ; mov dword [esp+0x7C], ebp ; push eax ; call esi ;  (1 found)
0x100108c5: mov eax, dword [esp+0x00001018] ; push ecx ; push edx ; push eax ; call dword [0x10013120] ;  (1 found)
0x10011057: mov eax, dword [esp+0x04] ; add esp, 0x00000318 ; ret  ;  (1 found)
0x1000f6a0: mov eax, dword [esp+0x04] ; push eax ; call dword [0x10013084] ;  (1 found)
0x1000ef40: mov eax, dword [esp+0x04] ; push eax ; call dword [0x1001308C] ;  (1 found)
0x100105b0: mov eax, dword [esp+0x04] ; push eax ; call dword [0x100130D8] ;  (1 found)
0x1000f690: mov eax, dword [esp+0x04] ; push eax ; call dword [0x100131A0] ;  (1 found)
0x1000f680: mov eax, dword [esp+0x04] ; push eax ; call dword [0x100131A4] ;  (1 found)
0x10011b50: mov eax, dword [esp+0x08] ; mov ecx, dword [esp+0x04] ; push eax ; push ecx ; call dword [0x10013014] ;  (1 found)
0x10010850: mov eax, dword [esp+0x08] ; mov ecx, dword [esp+0x04] ; push eax ; push ecx ; call dword [0x1001302C] ;  (1 found)
0x10010309: mov eax, dword [esp+0x08] ; pop edi ; pop esi ; pop ecx ; ret  ;  (1 found)
0x100104bd: mov eax, dword [esp+0x08] ; push ecx ; push edx ; push eax ; call dword [0x100130E8] ;  (1 found)
0x100103cd: mov eax, dword [esp+0x08] ; push ecx ; push edx ; push eax ; call dword [0x100130F0] ;  (1 found)
0x1000f534: mov eax, dword [esp+0x0C] ; pop edi ; pop esi ; ret  ;  (1 found)
0x100030c8: mov eax, dword [esp+0x10] ; push eax ; call dword [0x1001312C] ;  (1 found)
0x10011964: mov eax, dword [esp+0x14] ; pop edi ; pop esi ; add esp, 0x28 ; ret  ;  (1 found)
0x1000167c: mov eax, dword [esp+0x14] ; push eax ; call ebx ;  (1 found)
0x10006562: mov eax, dword [esp+0x18] ; push 0x00000000 ; mov ecx, dword [eax+0x00000084] ; push ecx ; call dword [0x10013128] ;  (1 found)
0x1001010a: mov eax, dword [esp+0x34] ; add esp, 0x28 ; push edi ; push eax ; call dword [0x1001302C] ;  (1 found)
0x10010450: mov eax, ecx ; ret  ;  (1 found)
0x10001708: mov eax, edi ; pop edi ; pop esi ; add esp, 0x10 ; ret  ;  (1 found)
0x100016d6: mov eax, edi ; pop edi ; pop esi ; add esp, 0x10 ; ret  ;  (1 found)
0x1001196e: mov eax, edi ; pop edi ; pop esi ; add esp, 0x28 ; ret  ;  (1 found)
0x1000703f: mov eax, edi ; pop edi ; pop esi ; pop ebx ; ret  ;  (1 found)
0x10010702: mov eax, edi ; pop edi ; pop esi ; ret  ;  (1 found)
0x100107cb: mov eax, edi ; shr eax, 1  ; push eax ; push ebx ; call dword [0x100130D4] ;  (1 found)
0x100107f2: mov eax, esi ; pop edi ; pop esi ; pop ebx ; ret  ;  (1 found)
0x1000f048: mov eax, esi ; pop edi ; pop esi ; ret  ;  (1 found)
0x10010946: mov eax, esi ; pop edi ; pop esi ; ret  ;  (1 found)
0x1001014f: mov eax, esi ; pop edi ; pop esi ; retn 0x000C ;  (1 found)
0x10011a63: mov eax, esi ; pop esi ; add esp, 0x00000104 ; ret  ;  (1 found)
0x10012291: mov eax, esi ; pop esi ; pop ebx ; retn 0x0010 ;  (1 found)
0x10002291: mov eax, esi ; pop esi ; ret  ;  (1 found)
0x10002236: mov eax, esi ; pop esi ; ret  ;  (1 found)
0x10011550: mov eax, esi ; pop esi ; ret  ;  (1 found)
0x10006356: mov ebp, 0xC4830000 ; sbb byte [edi+0x5E], bl ; pop ebp ; pop ebx ; ret  ;  (1 found)
0x1000e8d0: mov ebp, 0xE8501001 ; imul edi, dword [eax], 0xC4830000 ; sbb byte [ebx], dh ; rcr byte [edi+0x5E], 0x0000005B ; ret  ;  (1 found)
0x1000e3ac: mov ebp, 0xE8501001 ; lea edi, dword [0xC4830000] ; cmp byte [esi+0x5D], bl ; add esp, 0x0000041C ; ret  ;  (1 found)
0x1000e695: mov ebp, 0xE8511001 ; sahf  ; cmp al, byte [eax] ; add byte [ebx-0x3FCCDF3C], al ; ret  ;  (1 found)
0x1001127a: mov ebp, 0xFFFFF9B4 ; push edi ; push 0x00000001 ; push 0x001F0FFF ; call dword [0x10013058] ;  (1 found)
0x1000edaa: mov ebp, dword [0x1001307C] ; lea ecx, dword [esp+0x14] ; push ecx ; push esi ; call ebp ;  (1 found)
0x1000e19f: mov ebp, dword [0x10013090] ; add esp, 0x28 ; push 0xFFFFFFFF ; push ecx ; call ebp ;  (1 found)
0x100065a6: mov ebp, dword [0x10013128] ; push eax ; call ebp ;  (1 found)
0x1000a95f: mov ebp, dword [0x10013128] ; push edi ; push edx ; call ebp ;  (1 found)
0x10003c25: mov ebp, dword [0x1001312C] ; push edx ; call ebp ;  (1 found)
0x1000e5ce: mov ebp, dword [0x10013130] ; mov ax, word [esi] ; push eax ; call ebp ;  (1 found)
0x10009bb5: mov ebp, dword [0x10013134] ; mov ebx, dword [esi+0x000000BE] ; push eax ; call ebp ;  (1 found)
0x10009f6c: mov ebp, dword [0x10013134] ; mov edi, dword [esi+0x00000090] ; push eax ; call ebp ;  (1 found)
0x10003e60: mov ebp, dword [0x10013134] ; push 0x80000000 ; call ebp ;  (1 found)
0x10009efe: mov ebp, dword [esi+0x0000009C] ; push eax ; call edi ;  (1 found)
0x10009f33: mov ebp, dword [esi+0x000000A4] ; push eax ; call edi ;  (1 found)
0x1000d140: mov ebp, dword [esp+0x000000C8] ; or edi, edx ; push ebp ; mov dword [esp+0x54], edi ; call esi ;  (1 found)
0x10004458: mov ebp, dword [esp+0x18] ; mov eax, dword [ebp+0x14] ; push eax ; call dword [0x10013128] ;  (1 found)
0x10010e68: mov ebp, eax ; push ebp ; push 0x00000001 ; push 0x001F0FFF ; call dword [0x10013058] ;  (1 found)
0x10003bfd: mov ebp, eax ; push ebx ; mov dword [esp+0x24], ebp ; xor ebp, ebp ; call edi ;  (1 found)
0x10001660: mov ebx, dword [0x10013128] ; push ecx ; call ebx ;  (1 found)
0x1000b697: mov ebx, dword [0x1001312C] ; mov esi, dword [esp+0x000000F8] ; add esp, 0x50 ; push 0x0000000C ; call ebx ;  (1 found)
0x1000e97f: mov ebx, dword [0x10013130] ; push edi ; mov ax, word [esi] ; push eax ; call ebx ;  (1 found)
0x10009bbb: mov ebx, dword [esi+0x000000BE] ; push eax ; call ebp ;  (1 found)
0x1000d0c5: mov ebx, dword [esp+0x000000B0] ; push 0x00000003 ; call dword [0x1001312C] ;  (1 found)
0x1000d35e: mov ebx, dword [esp+0x000000C0] ; push 0x00000004 ; call dword [0x1001312C] ;  (1 found)
0x1000d6a7: mov ebx, dword [esp+0x000001D0] ; add esp, 0x000000F0 ; push 0x00000067 ; call dword [0x1001312C] ;  (1 found)
0x100066a8: mov ebx, dword [esp+0x3C] ; add esp, 0x28 ; mov di, word [ebx+0x02] ; push 0x0000FFE2 ; call dword [0x1001312C] ;  (1 found)
0x100063ad: mov ebx, dword [esp+0x40] ; push esi ; push ebx ; push ebp ; call dword [ebx+0x34] ;  (1 found)
0x10011572: mov ebx, eax ; call esi ;  (1 found)
0x1000c499: mov ebx, eax ; mov eax, dword [esp+0x000000BC] ; push eax ; xor ebp, ebp ; call edi ;  (1 found)
0x1000bfff: mov ebx, eax ; mov eax, dword [esp+0x000000D4] ; push eax ; xor ebp, ebp ; call esi ;  (1 found)
0x1000c025: mov ebx, eax ; mov eax, dword [esp+0x000000DC] ; push eax ; xor ebp, ebp ; call esi ;  (1 found)
0x1000c04b: mov ebx, eax ; mov eax, dword [esp+0x000000E4] ; push eax ; xor ebp, ebp ; call esi ;  (1 found)
0x1000bfd9: mov ebx, eax ; mov eax, dword [esp+0x000000EC] ; push eax ; xor ebp, ebp ; call esi ;  (1 found)
0x10006a29: mov ebx, eax ; push 0x00000000 ; push ebx ; push ebp ; call dword [ebx+0x08] ;  (1 found)
0x1000cea8: mov ebx, eax ; push ecx ; xor ebp, ebp ; call edi ;  (1 found)
0x10003bf6: mov ebx, eax ; xor eax, eax ; push eax ; call edi ;  (1 found)
0x1000cece: mov ebx, eax ; xor ebp, ebp ; push ecx ; call edi ;  (1 found)
0x100067d0: mov ecx, 0xC4830000 ; sbb byte [ebp+0x00060086], cl ; add byte [edi+0x5E], bl ; pop ebx ; ret  ;  (1 found)
0x100100af: mov ecx, dword [0x1002FD8C] ; lea eax, dword [esp+0x00] ; push eax ; push ecx ; call dword [0x1002FB84] ;  (1 found)
0x10010068: mov ecx, dword [0x1002FD8C] ; push eax ; push ecx ; call dword [0x1002FBA4] ;  (1 found)
0x1000fede: mov ecx, dword [0x1002FD8C] ; push eax ; push ecx ; call dword [0x1002FBB8] ;  (1 found)
0x1000fead: mov ecx, dword [0x1002FD8C] ; push ecx ; call dword [0x1002FBA0] ;  (1 found)
0x10010013: mov ecx, dword [0x1002FD8C] ; push edx ; push eax ; push ecx ; call dword [0x1002FBCC] ;  (1 found)
0x10001752: mov ecx, dword [bp+0x000006F4] ; add byte [eax], al ; push 0xFFFFFFFF ; push ecx ; call dword [0x10013090] ;  (1 found)
0x10006568: mov ecx, dword [eax+0x00000084] ; push ecx ; call dword [0x10013128] ;  (1 found)
0x1000505c: mov ecx, dword [eax+0x02] ; push ecx ; call dword [0x10013130] ;  (1 found)
0x1000515d: mov ecx, dword [eax+0x02] ; push ecx ; call dword [0x10013130] ;  (1 found)
0x1000461d: mov ecx, dword [eax+0x02] ; push ecx ; call dword [0x10013130] ;  (1 found)
0x100122c8: mov ecx, dword [eax] ; mov eax, dword [eax+0x04] ; push eax ; ret  ;  (1 found)
0x1000a941: mov ecx, dword [eax] ; push ecx ; call dword [0x10013128] ;  (1 found)
0x10003669: mov ecx, dword [ebp+0x000005D4] ; add esp, 0x28 ; push 0xFFFFFFFF ; push ecx ; call dword [0x10013090] ;  (1 found)
0x10006c82: mov ecx, dword [ebp+0x00] ; push ecx ; call dword [0x10013134] ;  (1 found)
0x1000446b: mov ecx, dword [ebp+0x40] ; push ecx ; call dword [0x10013130] ;  (1 found)
0x10004bac: mov ecx, dword [ebp+0x40] ; push ecx ; call dword [0x10013130] ;  (1 found)
0x1000e0a7: mov ecx, dword [ebx+0x000006D0] ; add esp, 0x28 ; push 0xFFFFFFFF ; push ecx ; call dword [0x10013090] ;  (1 found)
0x10006acf: mov ecx, dword [ebx+0x5C] ; push 0xFFFFFFFF ; push ecx ; call dword [0x10013090] ;  (1 found)
0x10003ab7: mov ecx, dword [edi+0x000005D4] ; add esp, 0x28 ; push 0xFFFFFFFF ; push ecx ; call dword [0x10013090] ;  (1 found)
0x1000ed2e: mov ecx, dword [edi+0x000006DC] ; push 0xFFFFFFFF ; push ecx ; call ebx ;  (1 found)
0x1000ee1f: mov ecx, dword [edi+0x000006E0] ; push ecx ; call dword [0x1001308C] ;  (1 found)
0x10006ca6: mov ecx, dword [edi+0x20] ; mov dword [edi+0x1C], eax ; push ecx ; call dword [0x10013134] ;  (1 found)
0x1000128d: mov ecx, dword [edi] ; push 0xFFFFFFFF ; mov edx, dword [ecx+0x000005D4] ; push edx ; call dword [0x10013090] ;  (1 found)
0x10002ba5: mov ecx, dword [edx+0x0C] ; mov edx, dword [esp+0x58] ; push edx ; mov dword [esp+0x24], ecx ; call dword [0x10013134] ;  (1 found)
0x100091b1: mov ecx, dword [esi+0x00000088] ; push ecx ; call dword [0x10013128] ;  (1 found)
0x100095fb: mov ecx, dword [esi+0x000000B6] ; push ecx ; call dword [0x10013128] ;  (1 found)
0x10009b98: mov ecx, dword [esi+0x000000BA] ; push ecx ; call dword [0x10013128] ;  (1 found)
0x10003907: mov ecx, dword [esi+0x000005CC] ; push 0x00000000 ; push 0x00000001 ; push ecx ; call edi ;  (1 found)
0x10003a48: mov ecx, dword [esi+0x000005D0] ; push 0x00000000 ; push 0x00000001 ; push ecx ; call edi ;  (1 found)
0x10006e4b: mov ecx, dword [esi+0x000005D0] ; push 0x00000000 ; push 0x00000001 ; push ecx ; call edi ;  (1 found)
0x10006bd7: mov ecx, dword [esi+0x000005D0] ; push 0xFFFFFFFF ; push ecx ; call dword [0x10013090] ;  (1 found)
0x10006d83: mov ecx, dword [esi+0x000005D0] ; push 0xFFFFFFFF ; push ecx ; call dword [0x10013090] ;  (1 found)
0x100038a1: mov ecx, dword [esi+0x000005D4] ; push 0xFFFFFFFF ; push ecx ; call dword [0x10013090] ;  (1 found)
0x10006e07: mov ecx, dword [esi+0x000005D4] ; push 0xFFFFFFFF ; push ecx ; call dword [0x10013090] ;  (1 found)
0x1000d947: mov ecx, dword [esi+0x000006D0] ; add esp, 0x28 ; push 0xFFFFFFFF ; push ecx ; call dword [0x10013090] ;  (1 found)
0x1000f452: mov ecx, dword [esi+0x000006DC] ; push 0x00000000 ; push 0x00000001 ; push ecx ; call dword [0x10013094] ;  (1 found)
0x1000f1d5: mov ecx, dword [esi+0x000006DC] ; push 0xFFFFFFFF ; push ecx ; call dword [0x10013090] ;  (1 found)
0x10001753: mov ecx, dword [esi+0x000006F4] ; push 0xFFFFFFFF ; push ecx ; call dword [0x10013090] ;  (1 found)
0x1000eef0: mov ecx, dword [esi+0x2C] ; push 0x00000000 ; push 0x00000001 ; push ecx ; call dword [0x10013094] ;  (1 found)
0x10006974: mov ecx, dword [esi+0x4C] ; push ecx ; mov dword [esi+0x00000378], edx ; call edi ;  (1 found)
0x10003819: mov ecx, dword [esi+0x5C] ; push 0xFFFFFFFF ; push ecx ; call dword [0x10013090] ;  (1 found)
0x1001005c: mov ecx, dword [esi] ; push ecx ; push edx ; call dword [0x1002FBB0] ;  (1 found)
0x1000b8e2: mov ecx, dword [esp+0x000000A0] ; mov word [esp+0x10], ax ; push ecx ; call edi ;  (1 found)
0x1000cea1: mov ecx, dword [esp+0x000000C0] ; mov ebx, eax ; push ecx ; xor ebp, ebp ; call edi ;  (1 found)
0x1000cec7: mov ecx, dword [esp+0x000000C8] ; mov ebx, eax ; xor ebp, ebp ; push ecx ; call edi ;  (1 found)
0x1000d12a: mov ecx, dword [esp+0x000000CC] ; mov edi, eax ; push ecx ; xor ebp, ebp ; call esi ;  (1 found)
0x1000a10c: mov ecx, dword [esp+0x000000E0] ; push ecx ; mov dword [esp+0x50], eax ; call edi ;  (1 found)
0x1000d407: mov ecx, dword [esp+0x000000E4] ; mov dword [esp+0x30], eax ; push ecx ; call dword [0x1001312C] ;  (1 found)
0x1000d78f: mov ecx, dword [esp+0x00000100] ; mov edi, eax ; push ecx ; xor ebp, ebp ; call esi ;  (1 found)
0x1000d7b5: mov ecx, dword [esp+0x00000108] ; mov edi, eax ; push ecx ; xor ebp, ebp ; call esi ;  (1 found)
0x1000d7e1: mov ecx, dword [esp+0x00000114] ; mov dword [esp+0x00000088], eax ; push ecx ; call esi ;  (1 found)
0x10011b54: mov ecx, dword [esp+0x04] ; push eax ; push ecx ; call dword [0x10013014] ;  (1 found)
0x10010854: mov ecx, dword [esp+0x04] ; push eax ; push ecx ; call dword [0x1001302C] ;  (1 found)
0x1000165b: mov ecx, dword [esp+0x08] ; push ebx ; mov ebx, dword [0x10013128] ; push ecx ; call ebx ;  (1 found)
0x10001494: mov ecx, dword [esp+0x08] ; push ecx ; call eax ;  (1 found)
0x1000fc7a: mov ecx, dword [esp+0x0C] ; push ecx ; call dword [0x1001301C] ;  (1 found)
0x10010882: mov ecx, dword [esp+0x0C] ; push edx ; push eax ; push ecx ; call dword [0x10013048] ;  (1 found)
0x10001683: mov ecx, dword [esp+0x18] ; mov dword [esi+0x000006EC], eax ; push ecx ; call ebx ;  (1 found)
0x10003c48: mov ecx, dword [esp+0x18] ; push ecx ; call edi ;  (1 found)
0x10003c49: mov ecx, dword [esp+0x18] ; push ecx ; call edi ;  (1 found)
0x10004a84: mov ecx, dword [esp+0x1C] ; mov dword [edi+0x20], ecx ; mov edx, dword [esp+0x10] ; push edx ; call dword [0x1001312C] ;  (1 found)
0x10007b9b: mov ecx, dword [esp+0x20] ; mov dword [ecx], eax ; mov dx, word [esi+0x00000094] ; push edx ; call dword [0x10013130] ;  (1 found)
0x10004e84: mov ecx, dword [esp+0x28] ; mov dword [edi+0x20], ecx ; call dword [0x10013134] ;  (1 found)
0x1000622d: mov ecx, dword [esp+0x2C] ; push esi ; push ebx ; push ecx ; call dword [ebx+0x34] ;  (1 found)
0x1000300a: mov ecx, dword [esp+0x44] ; push ecx ; call edi ;  (1 found)
0x10005a4e: mov ecx, dword [esp+0x4C] ; push ecx ; call ebp ;  (1 found)
0x10010699: mov ecx, edx ; and ecx, 0x03 ; rep movsb  ; call dword [0x10013034] ;  (1 found)
0x1000521b: mov ecx, edx ; and ecx, 0x03 ; rep movsb  ; call dword [0x1001312C] ;  (1 found)
0x1000fc73: mov edi, 0x83000024 ; les esp,  [eax] ; mov ecx, dword [esp+0x0C] ; push ecx ; call dword [0x1001301C] ;  (1 found)
0x100111cd: mov edi, 0x83FFFFF3 ; les ecx,  [0xFFFDE08D+ecx*4] ; call dword [ecx-0x18] ;  (1 found)
0x1000614b: mov edi, 0xC4830000 ; sbb byte [ebx], dh ; rcr byte [edi+0x5E], 0x0000005B ; ret  ;  (1 found)
0x100061e6: mov edi, 0xC4830000 ; sbb byte [ebx], dh ; rcr byte [edi+0x5E], 0x0000005B ; ret  ;  (1 found)
0x10010322: mov edi, dword [0x10013070] ; call edi ;  (1 found)
0x1000397f: mov edi, dword [0x10013090] ; add esp, 0x28 ; push 0xFFFFFFFF ; push ecx ; call edi ;  (1 found)
0x1000681d: mov edi, dword [0x10013090] ; add esp, 0x28 ; push 0xFFFFFFFF ; push ecx ; call edi ;  (1 found)
0x1000691d: mov edi, dword [0x10013090] ; add esp, 0x28 ; push 0xFFFFFFFF ; push ecx ; call edi ;  (1 found)
0x1000ef69: mov edi, dword [0x10013090] ; lea eax, dword [esp+0x0C] ; push eax ; push esi ; call ebx ;  (1 found)
0x10006e3e: mov edi, dword [0x10013094] ; push 0x00000000 ; push 0x00000001 ; push eax ; call edi ;  (1 found)
0x100114f6: mov edi, dword [0x100130B4] ; call edi ;  (1 found)
0x100019da: mov edi, dword [0x10013104] ; mov edx, dword [esp+0x10] ; movsx eax, byte [esi+edx+0x000003B8] ; push eax ; call edi ;  (1 found)
0x1000303a: mov edi, dword [0x1001312C] ; call edi ;  (1 found)
0x10009ef8: mov edi, dword [0x10013134] ; mov ebp, dword [esi+0x0000009C] ; push eax ; call edi ;  (1 found)
0x10003bf0: mov edi, dword [0x10013134] ; mov ebx, eax ; xor eax, eax ; push eax ; call edi ;  (1 found)
0x1000ce82: mov edi, dword [0x10013134] ; push edx ; mov dword [esp+0x4C], eax ; mov dword [esp+0x50], ecx ; call edi ;  (1 found)
0x1001149c: mov edi, dword [ebp+0x08] ; mov dword [ebp-0x04], 0x00000001 ; mov edx, dword [edi+0x04] ; push edx ; call dword [ebp-0x1C] ;  (1 found)
0x10011446: mov edi, dword [ebp+0x08] ; mov eax, dword [edi] ; mov dword [ebp-0x1C], eax ; mov esi, dword [edi+0x08] ; call dword [0x10013080] ;  (1 found)
0x100066b0: mov edi, dword [ebx+0x02] ; push 0x0000FFE2 ; call dword [0x1001312C] ;  (1 found)
0x10009f72: mov edi, dword [esi+0x00000090] ; push eax ; call ebp ;  (1 found)
0x1000e1df: mov edi, dword [esi+0x0C] ; push 0xFFFFFFFF ; mov eax, dword [edi+0x30] ; push eax ; call ebp ;  (1 found)
0x1000b703: mov edi, dword [esp+0x000000B8] ; mov dword [esp+0x50], eax ; push edi ; call ebx ;  (1 found)
0x1000abf7: mov edi, dword [esp+0x000000F4] ; add esp, 0x50 ; push 0x00000006 ; call dword [0x1001312C] ;  (1 found)
0x1000cc07: mov edi, dword [esp+0x00000100] ; add esp, 0x50 ; push 0x00000005 ; call dword [0x1001312C] ;  (1 found)
0x1000bf71: mov edi, dword [esp+0x00000110] ; add esp, 0x50 ; push 0x0000000F ; call dword [0x1001312C] ;  (1 found)
0x100115f8: mov edi, dword [esp+0x00000114] ; lea ebx, dword [edi+0x0C] ; push ebx ; call dword [0x100130B0] ;  (1 found)
0x1000bcf7: mov edi, dword [esp+0x00000128] ; add esp, 0x50 ; push 0x0000000D ; call dword [0x1001312C] ;  (1 found)
0x1000eeda: mov edi, dword [esp+0x14] ; push edi ; push esi ; push eax ; call dword [esi+0x34] ;  (1 found)
0x10004615: mov edi, dword [esp+0x1C] ; mov eax, dword [edi+0x08] ; mov cx, word [eax+0x02] ; push ecx ; call dword [0x10013130] ;  (1 found)
0x10005055: mov edi, dword [esp+0x1C] ; mov eax, dword [edi] ; mov cx, word [eax+0x02] ; push ecx ; call dword [0x10013130] ;  (1 found)
0x100056cb: mov edi, dword [esp+0x1C] ; push edi ; call dword [0x1001312C] ;  (1 found)
0x100106fa: mov edi, eax ; call dword [0x10013034] ;  (1 found)
0x10003083: mov edi, eax ; call dword [0x1001312C] ;  (1 found)
0x1000e5da: mov edi, eax ; mov ax, word [esi+0x02] ; push eax ; call ebp ;  (1 found)
0x1000e98c: mov edi, eax ; mov ax, word [esi+0x02] ; push eax ; call ebx ;  (1 found)
0x1000d3d6: mov edi, eax ; mov dword [esp+0x10], edi ; push ecx ; xor edi, edi ; call esi ;  (1 found)
0x1000d75b: mov edi, eax ; mov eax, dword [esp+0x000000F4] ; push eax ; xor ebp, ebp ; call esi ;  (1 found)
0x1000d734: mov edi, eax ; push ebp ; mov dword [esp+0x14], edi ; xor edi, edi ; call esi ;  (1 found)
0x1000d131: mov edi, eax ; push ecx ; xor ebp, ebp ; call esi ;  (1 found)
0x1000d796: mov edi, eax ; push ecx ; xor ebp, ebp ; call esi ;  (1 found)
0x1000d7bc: mov edi, eax ; push ecx ; xor ebp, ebp ; call esi ;  (1 found)
0x100061ab: mov edi, esp ; push edx ; rep movsd  ; movsw  ; call dword [ebx+0x3E] ;  (1 found)
0x1000654a: mov edi, esp ; rep movsd  ; push ebx ; call eax ;  (1 found)
0x10006702: mov edx, 0x438B0000 ; xor byte [ebx+0x006A18C4], al ; push eax ; call dword [0x10013128] ;  (1 found)
0x10009b9a: mov edx, 0x51000000 ; call dword [0x10013128] ;  (1 found)
0x1000f912: mov edx, 0x83FFFFFD ; les edx,  [eax] ; ret  ;  (1 found)
0x1000665b: mov edx, 0xC4830000 ; sbb byte [edi+0x5E], bl ; pop ebp ; pop ebx ; ret  ;  (1 found)
0x1000c577: mov edx, 0xE8511001 ; retn 0x005B ;  (1 found)
0x1000d077: mov edx, 0xE8521001 ; retn 0x0050 ;  (1 found)
0x1000112d: mov edx, dword [0x1001F700] ; add esp, 0x28 ; push 0xFFFFFFFF ; push edx ; call dword [0x10013090] ;  (1 found)
0x10010056: mov edx, dword [0x1002FD8C] ; mov ecx, dword [esi] ; push ecx ; push edx ; call dword [0x1002FBB0] ;  (1 found)
0x1000ff93: mov edx, dword [0x1002FD8C] ; push eax ; push ecx ; push edx ; call dword [0x1002FBC4] ;  (1 found)
0x1000fec1: mov edx, dword [0x1002FD8C] ; push edx ; call dword [0x1002FBAC] ;  (1 found)
0x10001c90: mov edx, dword [eax+0x00000384] ; push 0xFFFFFFFF ; push edx ; call dword [0x10013090] ;  (1 found)
0x10004393: mov edx, dword [eax+0x02] ; push edx ; call dword [0x10013130] ;  (1 found)
0x1000ebd3: mov edx, dword [eax+0x02] ; push edx ; call dword [0x10013130] ;  (1 found)
0x1000357d: mov edx, dword [ebx+0x000005CC] ; mov esi, dword [0x10013090] ; push 0xFFFFFFFF ; push edx ; call esi ;  (1 found)
0x1000e121: mov edx, dword [ebx+0x000006D0] ; push 0x00000000 ; push 0x00000001 ; push edx ; call dword [0x10013094] ;  (1 found)
0x1000e1ff: mov edx, dword [ebx+0x000006D0] ; push 0x00000000 ; push 0x00000001 ; push edx ; call dword [0x10013094] ;  (1 found)
0x100065bc: mov edx, dword [ebx+0x34] ; mov dword [esp+0x18], ecx ; push edx ; call ebp ;  (1 found)
0x1000a997: mov edx, dword [ebx+0x38] ; push edx ; call ebp ;  (1 found)
0x10003c23: mov edx, dword [ebx] ; mov ebp, dword [0x1001312C] ; push edx ; call ebp ;  (1 found)
0x10001291: mov edx, dword [ecx+0x000005D4] ; push edx ; call dword [0x10013090] ;  (1 found)
0x100012e9: mov edx, dword [ecx+0x000005D4] ; push edx ; call dword [0x10013094] ;  (1 found)
0x10003b1c: mov edx, dword [edi+0x000005D4] ; push 0x00000000 ; push 0x00000001 ; push edx ; call dword [0x10013094] ;  (1 found)
0x100114a6: mov edx, dword [edi+0x04] ; push edx ; call dword [ebp-0x1C] ;  (1 found)
0x10006c8c: mov edx, dword [edi+0x18] ; mov dword [ebp+0x00], eax ; push edx ; call dword [0x10013134] ;  (1 found)
0x1000bd0d: mov edx, dword [edi+0x24] ; push eax ; push ecx ; push edx ; call dword [0x10013130] ;  (1 found)
0x10011fd0: mov edx, dword [edi] ; push edx ; push eax ; push esi ; call dword [0x10013154] ;  (1 found)
0x10003edd: mov edx, dword [edx+0x0C] ; mov dword [eax+0x0C], edx ; mov ax, word [ecx+0x02] ; push eax ; call dword [0x10013130] ;  (1 found)
0x10008328: mov edx, dword [esi+0x00000088] ; push edx ; call dword [0x10013128] ;  (1 found)
0x10008c32: mov edx, dword [esi+0x00000088] ; push edx ; call dword [0x10013128] ;  (1 found)
0x10008e02: mov edx, dword [esi+0x00000088] ; push edx ; call dword [0x10013128] ;  (1 found)
0x10008fd2: mov edx, dword [esi+0x00000088] ; push edx ; call dword [0x10013128] ;  (1 found)
0x10007ba2: mov edx, dword [esi+0x00000094] ; push edx ; call dword [0x10013130] ;  (1 found)
0x10006980: mov edx, dword [esi+0x00000384] ; push 0x00000000 ; push 0x00000001 ; push edx ; call edi ;  (1 found)
0x1000f271: mov edx, dword [esi+0x000004BC] ; add esp, 0x04 ; mov dword [esi+0x000004B8], eax ; push edx ; call dword [0x1001312C] ;  (1 found)
0x1000398d: mov edx, dword [esi+0x000005D4] ; push 0xFFFFFFFF ; push edx ; call edi ;  (1 found)
0x1000d9c5: mov edx, dword [esi+0x000006D0] ; push 0x00000000 ; push 0x00000001 ; push edx ; call dword [0x10013094] ;  (1 found)
0x10001697: mov edx, dword [esi+0x000006F4] ; push 0x00000000 ; push 0x00000001 ; push edx ; call dword [0x10013094] ;  (1 found)
0x10001783: mov edx, dword [esi+0x000006F4] ; push 0x00000000 ; push 0x00000001 ; push edx ; call dword [0x10013094] ;  (1 found)
0x100015d6: mov edx, dword [esi+0x000006F4] ; push 0xFFFFFFFF ; push edx ; call dword [0x10013090] ;  (1 found)
0x100114f2: mov edx, dword [esi+0x08] ; push edx ; mov edi, dword [0x100130B4] ; call edi ;  (1 found)
0x1000da53: mov edx, dword [esi+0x30] ; push 0xFFFFFFFF ; push edx ; call dword [0x10013090] ;  (1 found)
0x1000682b: mov edx, dword [esi+0x4C] ; push 0xFFFFFFFF ; push edx ; call edi ;  (1 found)
0x1000692b: mov edx, dword [esi+0x4C] ; push 0xFFFFFFFF ; push edx ; call edi ;  (1 found)
0x1000689a: mov edx, dword [esi+0x4C] ; push edx ; call edi ;  (1 found)
0x1000b8f1: mov edx, dword [esp+0x000000A8] ; mov word [esp+0x12], ax ; push edx ; call edi ;  (1 found)
0x1000cc73: mov edx, dword [esp+0x000000BC] ; mov dword [esp+0x54], eax ; push edx ; call esi ;  (1 found)
0x1000a175: mov edx, dword [esp+0x000000EC] ; mov word [esp+0x66], ax ; push edx ; call edi ;  (1 found)
0x100103e8: mov edx, dword [esp+0x04] ; push eax ; push ecx ; push edx ; call dword [0x10013100] ;  (1 found)
0x1000fb9f: mov edx, dword [esp+0x0C] ; push edx ; call dword [0x1001301C] ;  (1 found)
0x10001669: mov edx, dword [esp+0x10] ; mov dword [esi+0x000006E4], eax ; push edx ; call ebx ;  (1 found)
0x100019e0: mov edx, dword [esp+0x10] ; movsx eax, byte [esi+edx+0x000003B8] ; push eax ; call edi ;  (1 found)
0x10001a02: mov edx, dword [esp+0x10] ; push 0x0000003A ; add edx, 0x000003B8 ; push edx ; call dword [0x10013108] ;  (1 found)
0x10004a8b: mov edx, dword [esp+0x10] ; push edx ; call dword [0x1001312C] ;  (1 found)
0x10005a55: mov edx, dword [esp+0x14] ; push 0x80000000 ; mov dword [edx+0x20], eax ; call ebp ;  (1 found)
0x1000e347: mov edx, dword [esp+0x18] ; mov ax, word [edx+0x02] ; push eax ; call esi ;  (1 found)
0x10011544: mov edx, dword [esp+0x18] ; push edx ; push esi ; call dword [0x10013064] ;  (1 found)
0x10006aea: mov edx, dword [esp+0x2C] ; push edx ; push ebx ; push ebp ; call dword [ebx+0x08] ;  (1 found)
0x1000641a: mov edx, dword [esp+0x50] ; rep movsd  ; push edx ; movsw  ; call eax ;  (1 found)
0x10002ba8: mov edx, dword [esp+0x58] ; push edx ; mov dword [esp+0x24], ecx ; call dword [0x10013134] ;  (1 found)
0x10009f73: mov esi, 0x00000090 ; push eax ; call ebp ;  (1 found)
0x100019e5: mov esi, 0x03B81684 ; add byte [eax], al ; push eax ; call edi ;  (1 found)
0x10009bbd: mov esi, 0x50000000 ; call ebp ;  (1 found)
0x10003583: mov esi, dword [0x10013090] ; push 0xFFFFFFFF ; push edx ; call esi ;  (1 found)
0x10011562: mov esi, dword [0x100130B0] ; push edi ; push 0x0000000C ; call esi ;  (1 found)
0x100114b7: mov esi, dword [0x100130B4] ; call esi ;  (1 found)
0x1000e33e: mov esi, dword [0x10013130] ; push eax ; call esi ;  (1 found)
0x1000cc62: mov esi, dword [0x10013134] ; push ecx ; mov dword [esp+0x50], edx ; mov dword [esp+0x54], eax ; call esi ;  (1 found)
0x1000d723: mov esi, dword [0x10013134] ; push ecx ; mov dword [esp+0x60], edx ; mov dword [esp+0x64], eax ; call esi ;  (1 found)
0x100114ef: mov esi, dword [ebp+0x08] ; mov edx, dword [esi+0x08] ; push edx ; mov edi, dword [0x100130B4] ; call edi ;  (1 found)
0x10006511: mov esi, dword [ebx+0x06] ; push 0x0000FFE2 ; call dword [0x1001312C] ;  (1 found)
0x1001144e: mov esi, dword [edi+0x08] ; call dword [0x10013080] ;  (1 found)
0x1000af74: mov esi, dword [esp+0x000000B4] ; add esp, 0x28 ; and edi, 0x0000FFFF ; push 0x000000CA ; call dword [0x1001312C] ;  (1 found)
0x1000addf: mov esi, dword [esp+0x000000B4] ; add esp, 0x28 ; push 0x000000C9 ; call dword [0x1001312C] ;  (1 found)
0x1000b10f: mov esi, dword [esp+0x000000B4] ; add esp, 0x28 ; push 0x000000CB ; call dword [0x1001312C] ;  (1 found)
0x1000aa50: mov esi, dword [esp+0x000000BC] ; add esp, 0x28 ; push 0x00000014 ; call dword [0x1001312C] ;  (1 found)
0x1000c612: mov esi, dword [esp+0x000000BC] ; add esp, 0x28 ; push 0x00000045 ; call dword [0x1001312C] ;  (1 found)
0x1000b2aa: mov esi, dword [esp+0x000000C0] ; add esp, 0x28 ; and edi, 0x0000FFFF ; push 0x000000CC ; call dword [0x1001312C] ;  (1 found)
0x1000b498: mov esi, dword [esp+0x000000F4] ; add esp, 0x50 ; push 0x00000008 ; call dword [0x1001312C] ;  (1 found)
0x1000c7ee: mov esi, dword [esp+0x000000F8] ; add esp, 0x50 ; and ebx, 0x0000FFFF ; push 0x00000007 ; call dword [0x1001312C] ;  (1 found)
0x1000c9fe: mov esi, dword [esp+0x000000F8] ; add esp, 0x50 ; and ebx, 0x0000FFFF ; push 0x00000009 ; call dword [0x1001312C] ;  (1 found)
0x1000c431: mov esi, dword [esp+0x000000F8] ; add esp, 0x50 ; push 0x00000002 ; call dword [0x1001312C] ;  (1 found)
0x1000b69d: mov esi, dword [esp+0x000000F8] ; add esp, 0x50 ; push 0x0000000C ; call ebx ;  (1 found)
0x1000c201: mov esi, dword [esp+0x00000104] ; add esp, 0x50 ; push 0x0000000E ; call dword [0x1001312C] ;  (1 found)
0x1000ce27: mov esi, dword [esp+0x00000108] ; add esp, 0x50 ; push 0x00000010 ; call dword [0x1001312C] ;  (1 found)
0x1000baa1: mov esi, dword [esp+0x00000114] ; add esp, 0x50 ; push 0x0000000A ; call dword [0x1001312C] ;  (1 found)
0x1000bcf0: mov esi, dword [esp+0x00000114] ; mov edi, dword [esp+0x00000128] ; add esp, 0x50 ; push 0x0000000D ; call dword [0x1001312C] ;  (1 found)
0x1000a568: mov esi, dword [esp+0x0000011C] ; add esp, 0x50 ; push 0x00000066 ; call dword [0x1001312C] ;  (1 found)
0x1000f4c1: mov esi, dword [esp+0x08] ; push esi ; call dword [0x10013148] ;  (1 found)
0x100120c1: mov esi, dword [esp+0x0C] ; push 0x00007530 ; mov eax, dword [esi+0x2C] ; push eax ; call dword [0x10013090] ;  (1 found)
0x1000e89b: mov esi, dword [esp+0x10] ; mov ax, word [esi+0x24] ; push eax ; call dword [0x10013130] ;  (1 found)
0x1000a969: mov esi, dword [esp+0x18] ; mov dword [esi+0x00000080], eax ; mov eax, dword [ebx+0x34] ; push eax ; call ebp ;  (1 found)
0x10003042: mov esi, dword [esp+0x18] ; mov word [ebx], ax ; push esi ; call edi ;  (1 found)
0x10005726: mov esi, dword [esp+0x20] ; push esi ; call dword [0x1001312C] ;  (1 found)
0x10010119: mov esi, eax ; call dword [0x10013070] ;  (1 found)
0x1000d7d2: mov esp, 0x00008424 ; add byte [ecx+0x008824AC], cl ; add byte [eax], al ; call esi ;  (1 found)
0x1000b704: mov esp, 0x0000B824 ; add byte [ecx+0x57502444], cl ; call ebx ;  (1 found)
0x1000abf8: mov esp, 0x0000F424 ; add byte [ebx+0x066A50C4], al ; call dword [0x1001312C] ;  (1 found)
0x1000cc08: mov esp, 0x00010024 ; add byte [ebx+0x056A50C4], al ; call dword [0x1001312C] ;  (1 found)
0x1000bf72: mov esp, 0x00011024 ; add byte [ebx+0x0F6A50C4], al ; call dword [0x1001312C] ;  (1 found)
0x1000bcf8: mov esp, 0x00012824 ; add byte [ebx+0x0D6A50C4], al ; call dword [0x1001312C] ;  (1 found)
0x1000c49e: mov esp, 0x50000000 ; xor ebp, ebp ; call edi ;  (1 found)
0x1000c572: mov esp, 0x68681001 ; mov edx, 0xE8511001 ; retn 0x005B ;  (1 found)
0x1000d072: mov esp, 0x68681001 ; mov edx, 0xE8521001 ; retn 0x0050 ;  (1 found)
0x100122f9: mov esp, 0x751002FD ; aas  ; push 0x00000080 ; call dword [0x100130B0] ;  (1 found)
0x1000aa53: mov esp, 0x83000000 ; les ebp,  [eax] ; push 0x00000014 ; call dword [0x1001312C] ;  (1 found)
0x1000c615: mov esp, 0x83000000 ; les ebp,  [eax] ; push 0x00000045 ; call dword [0x1001312C] ;  (1 found)
0x1000f273: mov esp, 0x83000004 ; les eax,  [ecx+ecx*4] ; xchg byte [eax+0x52000004], bh ; call dword [0x1001312C] ;  (1 found)
0x1000f710: mov esp, 0x83FFFFFF ; les ebx,  [esi+ebx*2] ; ret  ;  (1 found)
0x1000cc76: mov esp, 0x89000000 ; inc esp ; and al, 0x54 ; push edx ; call esi ;  (1 found)
0x100064aa: mov esp, 0xC4830000 ; sbb byte [edi+0x5E], bl ; pop ebp ; pop ebx ; ret  ;  (1 found)
0x10011375: mov esp, ebp ; pop ebp ; ret  ;  (1 found)
0x100113de: mov esp, ebp ; pop ebp ; ret  ;  (1 found)
0x10010b73: mov esp, ebp ; pop ebp ; ret  ;  (1 found)
0x100114d4: mov esp, ebp ; pop ebp ; retn 0x0004 ;  (1 found)
0x100122c6: mov esp, ecx ; mov ecx, dword [eax] ; mov eax, dword [eax+0x04] ; push eax ; ret  ;  (1 found)
0x10009b99: mov seg?, word [edx+0x51000000] ; call dword [0x10013128] ;  (1 found)
0x100095fc: mov seg?, word [esi+0x51000000] ; call dword [0x10013128] ;  (1 found)
0x10006510: mov si, word [ebx+0x06] ; push 0x0000FFE2 ; call dword [0x1001312C] ;  (1 found)
0x10003a49: mov ss, ax ; add eax, 0x006A0000 ; push 0x00000001 ; push ecx ; call edi ;  (1 found)
0x10006e4c: mov ss, ax ; add eax, 0x006A0000 ; push 0x00000001 ; push ecx ; call edi ;  (1 found)
0x10006bd8: mov ss, ax ; add eax, 0xFF6A0000 ; push ecx ; call dword [0x10013090] ;  (1 found)
0x10006d84: mov ss, ax ; add eax, 0xFF6A0000 ; push ecx ; call dword [0x10013090] ;  (1 found)
0x100038a2: mov ss, sp ; add eax, 0xFF6A0000 ; push ecx ; call dword [0x10013090] ;  (1 found)
0x10006e08: mov ss, sp ; add eax, 0xFF6A0000 ; push ecx ; call dword [0x10013090] ;  (1 found)
0x1000cea2: mov word [eax+eax*8], fs ; add byte [eax], al ; add byte [ebx-0x12CCAE28], cl ; call edi ;  (1 found)
0x1000d790: mov word [eax+eax], fs ; add dword [eax], eax ; add byte [ebx-0x12CCAE08], cl ; call esi ;  (1 found)
0x1000cec8: mov word [eax+ecx*8], fs ; add byte [eax], al ; add byte [ebx+0x51ED33D8], cl ; call edi ;  (1 found)
0x1000d7b6: mov word [eax+ecx], fs ; add dword [eax], eax ; add byte [ebx-0x12CCAE08], cl ; call esi ;  (1 found)
0x1000b5dc: mov word [eax], es ; add byte [eax], al ; ret  ;  (1 found)
0x1000b60c: mov word [eax], es ; add byte [eax], al ; ret  ;  (1 found)
0x1000ad5c: mov word [eax], es ; add byte [eax], al ; ret  ;  (1 found)
0x1000ad8c: mov word [eax], es ; add byte [eax], al ; ret  ;  (1 found)
0x1000ef47: mov word [eax], seg? ; add dword [eax], edx ; ret  ;  (1 found)
0x1001210e: mov word [eax], seg? ; add dword [eax], edx ; ret  ;  (1 found)
0x10003046: mov word [ebx], ax ; push esi ; call edi ;  (1 found)
0x10010346: mov word [ecx], 0x0000 ; mov eax, 0x00000001 ; pop esi ; ret  ;  (1 found)
0x10012162: mov word [ecx], seg? ; add dword [eax], edx ; jmp dword [0x10013194] ;  (1 found)
0x10004a9b: mov word [edi+0x24], ax ; call dword [0x10013134] ;  (1 found)
0x1000e4f2: mov word [edi], 0x0000 ; pop edi ; xor eax, eax ; pop esi ; ret  ;  (1 found)
0x10007b8b: mov word [edx], cx ; mov eax, dword [esi+0x00000090] ; push eax ; call dword [0x10013128] ;  (1 found)
0x10003c2e: mov word [esi+0x2C], ax ; mov ax, word [ebx+0x02] ; push eax ; call ebp ;  (1 found)
0x10003c41: mov word [esi+0x2C], bp ; mov word [esi+0x2E], bp ; mov ecx, dword [esp+0x18] ; push ecx ; call edi ;  (1 found)
0x10003c45: mov word [esi+0x2E], bp ; mov ecx, dword [esp+0x18] ; push ecx ; call edi ;  (1 found)
0x1000b8e9: mov word [esp+0x10], ax ; push ecx ; call edi ;  (1 found)
0x1000b8f8: mov word [esp+0x12], ax ; push edx ; call edi ;  (1 found)
0x1000f2a0: mov word [esp+0x18], 0x0002 ; mov dword [esp+0x1C], eax ; call dword [0x10013150] ;  (1 found)
0x10011f1f: mov word [esp+0x24], 0x0002 ; call dword [0x10013128] ;  (1 found)
0x10011f43: mov word [esp+0x2E], ax ; call dword [0x10013150] ;  (1 found)
0x1000a164: mov word [esp+0x62], ax ; push 0x00000014 ; call edi ;  (1 found)
0x1000a17c: mov word [esp+0x66], ax ; push edx ; call edi ;  (1 found)
0x1000a16e: mov word [esp+0x68], ax ; call edi ;  (1 found)
0x1000a184: mov word [esp+0x68], ax ; mov eax, dword [esp+0x000000F0] ; push eax ; call edi ;  (1 found)
0x100032bc: mov word [esp+ebp], fs ; add al, byte [eax] ; add byte [edx+0x51], dl ; call esi ;  (1 found)
0x1000d12b: mov word [esp+ecx*8], fs ; add byte [eax], al ; add byte [ebx-0x12CCAE08], cl ; call esi ;  (1 found)
0x1000d408: mov word [esp], fs ; add byte [eax], al ; add byte [ecx+0x51302444], cl ; call dword [0x1001312C] ;  (1 found)
0x1001069f: movsb  ; call dword [0x10013034] ;  (1 found)
0x10005221: movsb  ; call dword [0x1001312C] ;  (1 found)
0x100032a1: movsb  ; lodsb  ; add dword [eax], edx ; push eax ; call esi ;  (1 found)
0x100030c3: movsb  ; mov dword [esp+0x10], eax ; mov eax, dword [esp+0x10] ; push eax ; call dword [0x1001312C] ;  (1 found)
0x1000f533: movsb  ; mov eax, dword [esp+0x0C] ; pop edi ; pop esi ; ret  ;  (1 found)
0x10003039: movsb  ; mov edi, dword [0x1001312C] ; call edi ;  (1 found)
0x100056ca: movsb  ; mov edi, dword [esp+0x1C] ; push edi ; call dword [0x1001312C] ;  (1 found)
0x10005725: movsb  ; mov esi, dword [esp+0x20] ; push esi ; call dword [0x1001312C] ;  (1 found)
0x10010431: movsb  ; pop edi ; pop esi ; pop ebx ; ret  ;  (1 found)
0x10010488: movsb  ; pop edi ; pop esi ; ret  ;  (1 found)
0x10011af0: movsb  ; pop esi ; pop edi ; add esp, 0x00000104 ; ret  ;  (1 found)
0x1000f56b: movsb  ; retn 0x1001 ;  (1 found)
0x10006115: movsd  ; call dword [ebx+0x3A] ;  (1 found)
0x100061b1: movsd  ; call dword [ebx+0x3E] ;  (1 found)
0x1000629c: movsd  ; call eax ;  (1 found)
0x10006422: movsd  ; call eax ;  (1 found)
0x10010698: movsd  ; mov ecx, edx ; and ecx, 0x03 ; rep movsb  ; call dword [0x10013034] ;  (1 found)
0x1000521a: movsd  ; mov ecx, edx ; and ecx, 0x03 ; rep movsb  ; call dword [0x1001312C] ;  (1 found)
0x100061af: movsd  ; movsw  ; call dword [ebx+0x3E] ;  (1 found)
0x1000654d: movsd  ; push ebx ; call eax ;  (1 found)
0x1000641f: movsd  ; push edx ; movsw  ; call eax ;  (1 found)
0x10006111: movsd  ; push edx ; push eax ; movsw  ; call dword [ebx+0x3A] ;  (1 found)
0x10006298: movsd  ; push edx ; push ebp ; movsw  ; call eax ;  (1 found)
0x10006114: movsw  ; call dword [ebx+0x3A] ;  (1 found)
0x100061b0: movsw  ; call dword [ebx+0x3E] ;  (1 found)
0x1000629b: movsw  ; call eax ;  (1 found)
0x10006421: movsw  ; call eax ;  (1 found)
0x100019e4: movsx eax, byte [esi+edx+0x000003B8] ; push eax ; call edi ;  (1 found)
0x10001129: movups xmm0,  [ecx] ; add byte [ebx+0x01F70015], cl ; adc byte [ebx-0x0095D73C], al ; push edx ; call dword [0x10013090] ;  (1 found)
0x10010c42: neg eax ; add esp, 0x00000230 ; ret  ;  (1 found)
0x1000f19c: neg eax ; dec eax ; ret  ;  (1 found)
0x10010a7d: neg eax ; sbb eax, eax ; inc eax ; ret  ;  (1 found)
0x1000f654: nop  ; add dword [eax], eax ; add bl, al ; push 0x1002FB60 ; call dword [0x10013028] ;  (1 found)
0x1000f612: nop  ; add dword [eax], eax ; add byte [ebp+0x50002444], cl ; push 0x00000101 ; call dword [0x10013144] ;  (1 found)
0x1001212f: nop  ; jmp dword [0x10013114] ;  (1 found)
0x1000f66f: nop  ; jmp dword [0x10013140] ;  (1 found)
0x1000f69f: nop  ; mov eax, dword [esp+0x04] ; push eax ; call dword [0x10013084] ;  (1 found)
0x1000ef3f: nop  ; mov eax, dword [esp+0x04] ; push eax ; call dword [0x1001308C] ;  (1 found)
0x100105af: nop  ; mov eax, dword [esp+0x04] ; push eax ; call dword [0x100130D8] ;  (1 found)
0x1000f68f: nop  ; mov eax, dword [esp+0x04] ; push eax ; call dword [0x100131A0] ;  (1 found)
0x1000f67f: nop  ; mov eax, dword [esp+0x04] ; push eax ; call dword [0x100131A4] ;  (1 found)
0x1001212e: nop  ; nop  ; jmp dword [0x10013114] ;  (1 found)
0x1000f66e: nop  ; nop  ; jmp dword [0x10013140] ;  (1 found)
0x1000f69e: nop  ; nop  ; mov eax, dword [esp+0x04] ; push eax ; call dword [0x10013084] ;  (1 found)
0x1000ef3e: nop  ; nop  ; mov eax, dword [esp+0x04] ; push eax ; call dword [0x1001308C] ;  (1 found)
0x100105ae: nop  ; nop  ; mov eax, dword [esp+0x04] ; push eax ; call dword [0x100130D8] ;  (1 found)
0x1000f68e: nop  ; nop  ; mov eax, dword [esp+0x04] ; push eax ; call dword [0x100131A0] ;  (1 found)
0x1000f67e: nop  ; nop  ; mov eax, dword [esp+0x04] ; push eax ; call dword [0x100131A4] ;  (1 found)
0x1001212d: nop  ; nop  ; nop  ; jmp dword [0x10013114] ;  (1 found)
0x1000f66d: nop  ; nop  ; nop  ; jmp dword [0x10013140] ;  (1 found)
0x1001212c: nop  ; nop  ; nop  ; nop  ; jmp dword [0x10013114] ;  (1 found)
0x1001211c: nop  ; nop  ; nop  ; nop  ; ret  ;  (1 found)
0x1001211d: nop  ; nop  ; nop  ; ret  ;  (1 found)
0x100106ce: nop  ; nop  ; push esi ; push edi ; call dword [0x10013070] ;  (1 found)
0x1001211e: nop  ; nop  ; ret  ;  (1 found)
0x100105bf: nop  ; push esi ; call dword [0x10013070] ;  (1 found)
0x1000f4bf: nop  ; push esi ; mov esi, dword [esp+0x08] ; push esi ; call dword [0x10013148] ;  (1 found)
0x100106cf: nop  ; push esi ; push edi ; call dword [0x10013070] ;  (1 found)
0x1001031f: nop  ; push esi ; push edi ; mov edi, dword [0x10013070] ; call edi ;  (1 found)
0x1001211f: nop  ; ret  ;  (1 found)
0x1001197f: nop  ; sub esp, 0x00000104 ; push edi ; push 0x1001F6D4 ; call dword [0x100130A8] ;  (1 found)
0x1000f5bf: nop  ; sub esp, 0x18 ; lea eax, dword [esp+0x08] ; push eax ; call dword [0x10013074] ;  (1 found)
0x1000ef6b: nop  ; xor byte [ecx], al ; adc byte [ebp+0x500C2444], cl ; push esi ; call ebx ;  (1 found)
0x1000e1a1: nop  ; xor byte [ecx], al ; adc byte [ebx-0x0095D73C], al ; push ecx ; call ebp ;  (1 found)
0x10003981: nop  ; xor byte [ecx], al ; adc byte [ebx-0x0095D73C], al ; push ecx ; call edi ;  (1 found)
0x1000681f: nop  ; xor byte [ecx], al ; adc byte [ebx-0x0095D73C], al ; push ecx ; call edi ;  (1 found)
0x1000691f: nop  ; xor byte [ecx], al ; adc byte [ebx-0x0095D73C], al ; push ecx ; call edi ;  (1 found)
0x10003585: nop  ; xor byte [ecx], al ; adc byte [edx-0x01], ch ; push edx ; call esi ;  (1 found)
0x10011284: nop dword [eax] ; call dword [0x10013058] ;  (1 found)
0x10010e6f: nop dword [eax] ; call dword [0x10013058] ;  (1 found)
0x1001044c: not ecx ; dec ecx ; pop edi ; mov eax, ecx ; ret  ;  (1 found)
0x1001241c: or al, 0x00 ; jmp dword [0x100130A4] ;  (1 found)
0x1000d7aa: or al, 0x01 ; add byte [eax], al ; mov dword [esp+0x7C], ebp ; push eax ; call esi ;  (1 found)
0x100100c8: or al, 0x01 ; add byte [eax], al ; ret  ;  (1 found)
0x10010733: or al, 0x50 ; push ecx ; mov dword [esp+0x10], 0x00000800 ; call dword [0x10013040] ;  (1 found)
0x1001059b: or al, 0x50 ; push ecx ; push edx ; call dword [0x100130DC] ;  (1 found)
0x1001049b: or al, 0x50 ; push ecx ; push edx ; call dword [0x100130EC] ;  (1 found)
0x1000ef72: or al, 0x50 ; push esi ; call ebx ;  (1 found)
0x1000fc7d: or al, 0x51 ; call dword [0x1001301C] ;  (1 found)
0x1000ac57: or al, 0x51 ; mov dword [esp+0x1C], edx ; mov dword [esp+0x20], eax ; call ebx ;  (1 found)
0x1000b6f3: or al, 0x51 ; mov dword [esp+0x4C], edx ; mov dword [esp+0x50], eax ; call dword [0x10013134] ;  (1 found)
0x1000fba2: or al, 0x52 ; call dword [0x1001301C] ;  (1 found)
0x10010885: or al, 0x52 ; push eax ; push ecx ; call dword [0x10013048] ;  (1 found)
0x10011601: or al, 0x53 ; call dword [0x100130B0] ;  (1 found)
0x10003d60: or al, 0x5D ; pop ebx ; add esp, 0x10 ; ret  ;  (1 found)
0x10010dba: or al, 0x5F ; mov eax, 0x00000001 ; pop esi ; add esp, 0x0000009C ; ret  ;  (1 found)
0x10012416: or al, 0x5F ; pop esi ; pop ebx ; pop ebp ; retn 0x000C ;  (1 found)
0x1000f537: or al, 0x5F ; pop esi ; ret  ;  (1 found)
0x10003ee2: or al, 0x66 ; mov eax, dword [ecx+0x02] ; push eax ; call dword [0x10013130] ;  (1 found)
0x10011189: or al, 0x6A ; and byte [ebp-0x00066B73], cl ; call dword [ecx-0x18] ;  (1 found)
0x1000bb34: or al, 0x89 ; inc esp ; and al, 0x60 ; call dword [0x1001312C] ;  (1 found)
0x1000a15d: or al, 0x89 ; inc esp ; and al, 0x60 ; call edi ;  (1 found)
0x10004e83: or al, 0x8B ; dec esp ; and al, 0x28 ; mov dword [edi+0x20], ecx ; call dword [0x10013134] ;  (1 found)
0x10003009: or al, 0x8B ; dec esp ; and al, 0x44 ; push ecx ; call edi ;  (1 found)
0x10005a4d: or al, 0x8B ; dec esp ; and al, 0x4C ; push ecx ; call ebp ;  (1 found)
0x10011412: or al, 0xB8 ; add dword [eax], eax ; add byte [eax], al ; pop esi ; ret  ;  (1 found)
0x10011c41: or al, 0xC3 ; mov eax, 0x00000001 ; add esp, 0x0C ; ret  ;  (1 found)
0x10003d0c: or al, 0xE8 ; push ds ; ret  ;  (1 found)
0x100040d7: or al, 0xE8 ; ret  ;  (1 found)
0x10011b8c: or al, 0xFF ; adc eax, 0x10013070 ; xor eax, eax ; add esp, 0x0C ; ret  ;  (1 found)
0x10011bdc: or al, 0xFF ; adc eax, 0x10013070 ; xor eax, eax ; add esp, 0x0C ; ret  ;  (1 found)
0x10011bb5: or al, 0xFF ; adc eax, 0x10013070 ; xor eax, eax ; add esp, 0x0C ; ret  ;  (1 found)
0x10011c08: or al, 0xFF ; adc eax, 0x10013070 ; xor eax, eax ; add esp, 0x0C ; ret  ;  (1 found)
0x10011c36: or al, 0xFF ; adc eax, 0x10013070 ; xor eax, eax ; add esp, 0x0C ; ret  ;  (1 found)
0x1001156a: or al, 0xFF ; salc  ; push 0x00000208 ; mov ebx, eax ; call esi ;  (1 found)
0x100104f7: or al, byte [ebx-0x3B7E0038] ; add byte [eax], dl ; add byte [eax], al ; ret  ;  (1 found)
0x10010df7: or al, byte [ebx-0x3B7E0038] ; add byte [eax], dl ; add byte [eax], al ; ret  ;  (1 found)
0x10012093: or al, dl ; out dx, al ; add byte [eax], dl ; mov dword [esi+0x34], eax ; call dword [0x10013088] ;  (1 found)
0x10005eb3: or bl, byte [edi+0x5E] ; pop ebp ; mov eax, 0x00000001 ; pop ebx ; ret  ;  (1 found)
0x10010be6: or bl, byte [edi+0x5E] ; pop ebx ; add esp, 0x00000230 ; ret  ;  (1 found)
0x10010c86: or bl, byte [edi+0x5E] ; pop ebx ; add esp, 0x00000230 ; ret  ;  (1 found)
0x10011396: or bl, ch ; das  ; mov eax, 0x00000001 ; ret  ;  (1 found)
0x100109ce: or byte [eax+0x00000001], bh ; pop esi ; ret  ;  (1 found)
0x100114b5: or byte [eax-0x75], dl ; xor eax, 0x100130B4 ; call esi ;  (1 found)
0x100106b1: or byte [eax], al ; add bl, al ; push ebx ; call dword [0x10013034] ;  (1 found)
0x10010653: or byte [eax], al ; add byte [ebx+0x56], dl ; push edi ; call dword [0x10013070] ;  (1 found)
0x100107e9: or byte [ebp+0x5F0475C0], al ; pop esi ; pop ebx ; ret  ;  (1 found)
0x1000f4d2: or byte [ebp+0x64], dh ; push esi ; call dword [0x1001314C] ;  (1 found)
0x100077b5: or byte [ebx+0x00008886], 0x00000000 ; push eax ; call dword [0x10013128] ;  (1 found)
0x1001153e: or byte [ebx+0x1074FFFE], al ; mov edx, dword [esp+0x18] ; push edx ; push esi ; call dword [0x10013064] ;  (1 found)
0x10003d09: or byte [ebx+0x1EE80C69], cl ; ret  ;  (1 found)
0x10011b53: or byte [ebx+0x5004244C], cl ; push ecx ; call dword [0x10013014] ;  (1 found)
0x10010853: or byte [ebx+0x5004244C], cl ; push ecx ; call dword [0x1001302C] ;  (1 found)
0x100103e7: or byte [ebx+0x50042454], cl ; push ecx ; push edx ; call dword [0x10013100] ;  (1 found)
0x10003edc: or byte [ebx+0x50890C52], cl ; or al, 0x66 ; mov eax, dword [ecx+0x02] ; push eax ; call dword [0x10013130] ;  (1 found)
0x10006a28: or byte [ebx+0x53006AD8], cl ; push ebp ; call dword [ebx+0x08] ;  (1 found)
0x1000fa39: or byte [ebx+0x5E5F20C4], al ; pop ebx ; add esp, 0x54 ; ret  ;  (1 found)
0x100113b6: or byte [ebx-0x00066F7B], cl ; inc dword [ebp+0x500774C0] ; call dword [0x1001308C] ;  (1 found)
0x10011448: or byte [ebx-0x1BBA76F9], cl ; mov esi, dword [edi+0x08] ; call dword [0x10013080] ;  (1 found)
0x100122c9: or byte [ebx-0x3CAFFBC0], cl ; int3  ; jmp dword [0x100130C0] ;  (1 found)
0x100114f1: or byte [ebx-0x74ADF7AA], cl ; cmp eax, 0x100130B4 ; call edi ;  (1 found)
0x1000165e: or byte [ebx-0x75], dl ; sbb eax, 0x10013128 ; push ecx ; call ebx ;  (1 found)
0x1000fda1: or byte [ebx], bh ; ret  ;  (1 found)
0x1000fdf7: or byte [ebx], bh ; ret  ;  (1 found)
0x100100c3: or byte [ebx], dh ; rol byte [ecx+0x00010CC4], 0x00000000 ; ret  ;  (1 found)
0x1000f5d5: or byte [ecx+0x52], dl ; call dword [0x10013078] ;  (1 found)
0x100104c0: or byte [ecx+0x52], dl ; push eax ; call dword [0x100130E8] ;  (1 found)
0x100103d0: or byte [ecx+0x52], dl ; push eax ; call dword [0x100130F0] ;  (1 found)
0x10003d5d: or byte [ecx+0x5B5D0C69], cl ; add esp, 0x10 ; ret  ;  (1 found)
0x1001119a: or byte [ecx-0x0006477B], cl ; inc dword [ebp+0x681675C0] ; push 0x6A1001F0 ; and byte [ebp-0x00066B6B], cl ; call dword [edx-0x18] ;  (1 found)
0x1000ce2a: or byte [ecx], al ; add byte [eax], al ; add esp, 0x50 ; push 0x00000010 ; call dword [0x1001312C] ;  (1 found)
0x10001976: or byte [ecx], al ; add byte [eax], al ; ret  ;  (1 found)
0x10001d56: or byte [ecx], al ; add byte [eax], al ; ret  ;  (1 found)
0x10001d98: or byte [ecx], al ; add byte [eax], al ; ret  ;  (1 found)
0x1001240b: or byte [edi+0x56], dl ; push ebx ; call eax ;  (1 found)
0x10010752: or byte [edi+0x5E], bl ; mov dword [edx], eax ; xor eax, eax ; add esp, 0x00001004 ; ret  ;  (1 found)
0x1001030c: or byte [edi+0x5E], bl ; pop ecx ; ret  ;  (1 found)
0x10011330: or byte [edi-0x17], dl ; mov eax, dword [eax] ; add byte [eax], al ; push edi ; call dword [0x1001308C] ;  (1 found)
0x1000f1eb: or byte [edx+0x01], ch ; push 0x00000002 ; mov dword [esi+0x3C], ecx ; call dword [0x10013168] ;  (1 found)
0x1000ac73: or byte [edx+0x06], ch ; call ebx ;  (1 found)
0x10011503: or byte [edx-0x01], ch ; call dword [0x100130B8] ;  (1 found)
0x100114f4: or byte [edx-0x75], dl ; cmp eax, 0x100130B4 ; call edi ;  (1 found)
0x1001156e: or byte [edx], al ; add byte [eax], al ; mov ebx, eax ; call esi ;  (1 found)
0x10001bdd: or ch, byte [edx+0x0A] ; push ebx ; call ebp ;  (1 found)
0x10009928: or cl, byte [eax-0x3B7D0000] ; and byte [ebx+0x5D5E5FC3], cl ; pop ebx ; pop ecx ; ret  ;  (1 found)
0x10001a23: or cl, byte [ebp+0x5150014E] ; call dword [0x1001310C] ;  (1 found)
0x100018b7: or dword [eax], 0xC4830001 ; sbb al, 0x5E ; ret  ;  (1 found)
0x10011771: or dword [eax], eax ; add byte [ebx+0x5E5F24C4], al ; pop ebx ; add esp, 0x00000100 ; ret  ;  (1 found)
0x100117ef: or dword [eax], eax ; add byte [ebx+0x5E5F28C4], al ; pop ebx ; add esp, 0x00000100 ; ret  ;  (1 found)
0x10010568: or dword [ebx], esi ; rol byte [ecx+0x002000C4], 0x00000000 ; ret  ;  (1 found)
0x100122f6: or dword [ecx+0x02FDBC0D], ecx ; adc byte [ebp+0x3F], dh ; push 0x00000080 ; call dword [0x100130B0] ;  (1 found)
0x100123af: or dword [edi+0x56], edx ; push ebx ; call eax ;  (1 found)
0x1000605d: or dword [edi+0x5E], ebx ; mov eax, 0x00000001 ; pop ebx ; ret  ;  (1 found)
0x10005fe2: or dword [edi+0x5E], ebx ; mov eax, 0x00000001 ; pop ebx ; ret  ;  (1 found)
0x10010344: or eax, 0x01C7665F ; add byte [eax], al ; mov eax, 0x00000001 ; pop esi ; ret  ;  (1 found)
0x100100b0: or eax, 0x1002FD8C ; lea eax, dword [esp+0x00] ; push eax ; push ecx ; call dword [0x1002FB84] ;  (1 found)
0x10010069: or eax, 0x1002FD8C ; push eax ; push ecx ; call dword [0x1002FBA4] ;  (1 found)
0x1000fedf: or eax, 0x1002FD8C ; push eax ; push ecx ; call dword [0x1002FBB8] ;  (1 found)
0x1000feae: or eax, 0x1002FD8C ; push ecx ; call dword [0x1002FBA0] ;  (1 found)
0x10010014: or eax, 0x1002FD8C ; push edx ; push eax ; push ecx ; call dword [0x1002FBCC] ;  (1 found)
0x10011b3b: or eax, 0x835FC01B ; fdivr st0, st7 ; pop esi ; ret  ;  (1 found)
0x100114df: or eax, 0x83FFFFFF ; les eax,  [eax+edi*4] ; add dword [eax], eax ; add byte [eax], al ; ret  ;  (1 found)
0x1000f64f: or eax, 0xFFFFFFFF ; add esp, 0x00000190 ; ret  ;  (1 found)
0x100104f8: or eax, 0xFFFFFFFF ; add esp, 0x00001000 ; ret  ;  (1 found)
0x10010df8: or eax, 0xFFFFFFFF ; add esp, 0x00001000 ; ret  ;  (1 found)
0x100108f4: or eax, 0xFFFFFFFF ; pop ebx ; add esp, 0x00001000 ; ret  ;  (1 found)
0x10011ffa: or eax, 0xFFFFFFFF ; pop ebx ; add esp, 0x00001128 ; ret  ;  (1 found)
0x10006bcf: or eax, 0xFFFFFFFF ; pop ebx ; add esp, 0x10 ; ret  ;  (1 found)
0x10006bed: or eax, 0xFFFFFFFF ; pop ebx ; add esp, 0x10 ; ret  ;  (1 found)
0x10006de5: or eax, 0xFFFFFFFF ; pop ebx ; add esp, 0x10 ; ret  ;  (1 found)
0x10009e2f: or eax, 0xFFFFFFFF ; pop ebx ; pop ecx ; ret  ;  (1 found)
0x100015cd: or eax, 0xFFFFFFFF ; pop edi ; pop esi ; add esp, 0x10 ; ret  ;  (1 found)
0x10005f6d: or eax, 0xFFFFFFFF ; pop edi ; pop esi ; pop ebx ; ret  ;  (1 found)
0x1000603e: or eax, 0xFFFFFFFF ; pop edi ; pop esi ; pop ebx ; ret  ;  (1 found)
0x100101dc: or eax, 0xFFFFFFFF ; pop edi ; pop esi ; pop ecx ; ret  ;  (1 found)
0x1000f252: or eax, 0xFFFFFFFF ; pop esi ; add esp, 0x14 ; ret  ;  (1 found)
0x1000f368: or eax, 0xFFFFFFFF ; pop esi ; add esp, 0x14 ; ret  ;  (1 found)
0x1000f464: or eax, 0xFFFFFFFF ; pop esi ; add esp, 0x14 ; ret  ;  (1 found)
0x1000728c: or eax, 0xFFFFFFFF ; pop esi ; pop ebx ; pop ecx ; ret  ;  (1 found)
0x1000741c: or eax, 0xFFFFFFFF ; pop esi ; pop ebx ; pop ecx ; ret  ;  (1 found)
0x1000759c: or eax, 0xFFFFFFFF ; pop esi ; pop ebx ; pop ecx ; ret  ;  (1 found)
0x1000772c: or eax, 0xFFFFFFFF ; pop esi ; pop ebx ; pop ecx ; ret  ;  (1 found)
0x10006fd6: or eax, 0xFFFFFFFF ; pop esi ; pop ebx ; ret  ;  (1 found)
0x100021cf: or eax, 0xFFFFFFFF ; pop esi ; ret  ;  (1 found)
0x10005ce4: or eax, 0xFFFFFFFF ; pop esi ; ret  ;  (1 found)
0x1000f503: or eax, 0xFFFFFFFF ; pop esi ; ret  ;  (1 found)
0x10011554: or eax, 0xFFFFFFFF ; pop esi ; ret  ;  (1 found)
0x1001148f: or eax, 0xFFFFFFFF ; ret  ;  (1 found)
0x1000c018: or ebp, eax ; mov dword [esp+0x68], ebx ; mov dword [esp+0x6C], ebp ; push edx ; call esi ;  (1 found)
0x1000bff2: or ebp, eax ; push edx ; mov dword [esp+0x54], ebx ; mov dword [esp+0x58], ebp ; call esi ;  (1 found)
0x1000c03e: or ebp, eax ; push edx ; mov dword [esp+0x5C], ebx ; mov dword [esp+0x60], ebp ; call esi ;  (1 found)
0x1000d774: or ebp, eax ; push edx ; mov dword [esp+0x70], edi ; mov dword [esp+0x74], ebp ; call esi ;  (1 found)
0x1000ceba: or ebx, edx ; push eax ; mov dword [esp+0x58], ebx ; mov dword [esp+0x5C], ebp ; call edi ;  (1 found)
0x1000f1e9: or ecx, 0x08 ; push 0x00000001 ; push 0x00000002 ; mov dword [esi+0x3C], ecx ; call dword [0x10013168] ;  (1 found)
0x1000d3f0: or edi, eax ; push edx ; mov dword [esp+0x2C], ecx ; mov dword [esp+0x30], edi ; call esi ;  (1 found)
0x1000d74e: or edi, eax ; push edx ; mov dword [esp+0x68], ecx ; mov dword [esp+0x6C], edi ; call esi ;  (1 found)
0x1000d7ce: or edi, edx ; push eax ; mov dword [esp+0x00000084], edi ; mov dword [esp+0x00000088], ebp ; call esi ;  (1 found)
0x1000d147: or edi, edx ; push ebp ; mov dword [esp+0x54], edi ; call esi ;  (1 found)
0x1000f47d: or edx, 0x10 ; push 0x00000001 ; push eax ; mov dword [esi+0x3C], edx ; call dword [0x10013094] ;  (1 found)
0x10003ab4: out 0x00, al ; add byte [ebx+0x0005D48F], cl ; add byte [ebx-0x0095D73C], al ; push ecx ; call dword [0x10013090] ;  (1 found)
0x10003a74: out 0x00, al ; add byte [ebx+0x5E5F18C4], al ; pop ebp ; pop ebx ; ret  ;  (1 found)
0x10003857: out 0xE8, eax ; add byte [eax], al ; add esp, 0x18 ; pop esi ; ret  ;  (1 found)
0x10012095: out dx, al ; add byte [eax], dl ; mov dword [esi+0x34], eax ; call dword [0x10013088] ;  (1 found)
0x1000547d: out dx, eax ; inc ecx ; push ecx ; call ebx ;  (1 found)
0x10003c47: outsb  ; mov ecx, dword [esp+0x18] ; push ecx ; call edi ;  (1 found)
0x10001fcf: outsd  ; add dword [ecx], eax ; add byte [ebx+0x595E18C4], al ; ret  ;  (1 found)
0x1000535d: outsd  ; retn 0x0000 ;  (1 found)
0x10010193: pop ds ; add byte [eax], al ; add esp, 0x20 ; push edi ; call dword [0x10013030] ;  (1 found)
0x10003c21: pop ds ; mov dx, word [ebx] ; mov ebp, dword [0x1001312C] ; push edx ; call ebp ;  (1 found)
0x1000c85f: pop eax ; call dword [0x10013134] ;  (1 found)
0x1000ca6f: pop eax ; call dword [0x10013134] ;  (1 found)
0x1000bffc: pop eax ; call esi ;  (1 found)
0x1000cec0: pop eax ; mov dword [esp+0x5C], ebp ; call edi ;  (1 found)
0x10002bab: pop eax ; push edx ; mov dword [esp+0x24], ecx ; call dword [0x10013134] ;  (1 found)
0x1001237d: pop eax ; retn 0x000C ;  (1 found)
0x10012440: pop eax ; retn 0x000C ;  (1 found)
0x1000d0bc: pop ebp ; add esp, 0x00000098 ; ret  ;  (1 found)
0x1000d27a: pop ebp ; add esp, 0x00000098 ; ret  ;  (1 found)
0x1000d24b: pop ebp ; add esp, 0x00000098 ; ret  ;  (1 found)
0x1000d355: pop ebp ; add esp, 0x000000A8 ; ret  ;  (1 found)
0x1000d518: pop ebp ; add esp, 0x000000A8 ; ret  ;  (1 found)
0x1000d548: pop ebp ; add esp, 0x000000A8 ; ret  ;  (1 found)
0x10001973: pop ebp ; add esp, 0x00000108 ; ret  ;  (1 found)
0x10001d53: pop ebp ; add esp, 0x00000108 ; ret  ;  (1 found)
0x10001d95: pop ebp ; add esp, 0x00000108 ; ret  ;  (1 found)
0x1000e3b9: pop ebp ; add esp, 0x0000041C ; ret  ;  (1 found)
0x1000e489: pop ebp ; add esp, 0x0000041C ; ret  ;  (1 found)
0x1000e43a: pop ebp ; add esp, 0x0000041C ; ret  ;  (1 found)
0x1000e333: pop ebp ; add esp, 0x0000041C ; ret  ;  (1 found)
0x1000b097: pop ebp ; add esp, 0x78 ; ret  ;  (1 found)
0x1000b0c3: pop ebp ; add esp, 0x78 ; ret  ;  (1 found)
0x10005eb6: pop ebp ; mov eax, 0x00000001 ; pop ebx ; ret  ;  (1 found)
0x10006bce: pop ebp ; or eax, 0xFFFFFFFF ; pop ebx ; add esp, 0x10 ; ret  ;  (1 found)
0x10006bec: pop ebp ; or eax, 0xFFFFFFFF ; pop ebx ; add esp, 0x10 ; ret  ;  (1 found)
0x10006de4: pop ebp ; or eax, 0xFFFFFFFF ; pop ebx ; add esp, 0x10 ; ret  ;  (1 found)
0x10009e2e: pop ebp ; or eax, 0xFFFFFFFF ; pop ebx ; pop ecx ; ret  ;  (1 found)
0x1000b40f: pop ebp ; pop ebx ; add esp, 0x00000080 ; ret  ;  (1 found)
0x1000b3df: pop ebp ; pop ebx ; add esp, 0x00000080 ; ret  ;  (1 found)
0x1000b9e7: pop ebp ; pop ebx ; add esp, 0x00000080 ; ret  ;  (1 found)
0x1000ba17: pop ebp ; pop ebx ; add esp, 0x00000080 ; ret  ;  (1 found)
0x1000b5d8: pop ebp ; pop ebx ; add esp, 0x0000008C ; ret  ;  (1 found)
0x1000b608: pop ebp ; pop ebx ; add esp, 0x0000008C ; ret  ;  (1 found)
0x1000ad58: pop ebp ; pop ebx ; add esp, 0x0000008C ; ret  ;  (1 found)
0x1000ad88: pop ebp ; pop ebx ; add esp, 0x0000008C ; ret  ;  (1 found)
0x1000b7f7: pop ebp ; pop ebx ; add esp, 0x00000090 ; ret  ;  (1 found)
0x1000b827: pop ebp ; pop ebx ; add esp, 0x00000090 ; ret  ;  (1 found)
0x1000c970: pop ebp ; pop ebx ; add esp, 0x00000090 ; ret  ;  (1 found)
0x1000c940: pop ebp ; pop ebx ; add esp, 0x00000090 ; ret  ;  (1 found)
0x1000cb80: pop ebp ; pop ebx ; add esp, 0x00000090 ; ret  ;  (1 found)
0x1000cb50: pop ebp ; pop ebx ; add esp, 0x00000090 ; ret  ;  (1 found)
0x1000c58a: pop ebp ; pop ebx ; add esp, 0x00000090 ; ret  ;  (1 found)
0x1000c5ba: pop ebp ; pop ebx ; add esp, 0x00000090 ; ret  ;  (1 found)
0x10005396: pop ebp ; pop ebx ; add esp, 0x00000094 ; ret  ;  (1 found)
0x10005c8b: pop ebp ; pop ebx ; add esp, 0x00000094 ; ret  ;  (1 found)
0x10005bc6: pop ebp ; pop ebx ; add esp, 0x00000094 ; ret  ;  (1 found)
0x1000cda2: pop ebp ; pop ebx ; add esp, 0x00000098 ; ret  ;  (1 found)
0x1000cd72: pop ebp ; pop ebx ; add esp, 0x00000098 ; ret  ;  (1 found)
0x1000c39e: pop ebp ; pop ebx ; add esp, 0x0000009C ; ret  ;  (1 found)
0x1000c36e: pop ebp ; pop ebx ; add esp, 0x0000009C ; ret  ;  (1 found)
0x1000cfba: pop ebp ; pop ebx ; add esp, 0x000000A0 ; ret  ;  (1 found)
0x1000cfea: pop ebp ; pop ebx ; add esp, 0x000000A0 ; ret  ;  (1 found)
0x1000c13c: pop ebp ; pop ebx ; add esp, 0x000000A8 ; ret  ;  (1 found)
0x1000c16c: pop ebp ; pop ebx ; add esp, 0x000000A8 ; ret  ;  (1 found)
0x1000bc5f: pop ebp ; pop ebx ; add esp, 0x000000AC ; ret  ;  (1 found)
0x1000bc2f: pop ebp ; pop ebx ; add esp, 0x000000AC ; ret  ;  (1 found)
0x1000beac: pop ebp ; pop ebx ; add esp, 0x000000AC ; ret  ;  (1 found)
0x1000bedc: pop ebp ; pop ebx ; add esp, 0x000000AC ; ret  ;  (1 found)
0x1000a2af: pop ebp ; pop ebx ; add esp, 0x000000B4 ; ret  ;  (1 found)
0x1000a27f: pop ebp ; pop ebx ; add esp, 0x000000B4 ; ret  ;  (1 found)
0x1000a6e7: pop ebp ; pop ebx ; add esp, 0x000000B4 ; ret  ;  (1 found)
0x1000a717: pop ebp ; pop ebx ; add esp, 0x000000B4 ; ret  ;  (1 found)
0x1000d8d6: pop ebp ; pop ebx ; add esp, 0x000000C8 ; ret  ;  (1 found)
0x1000d906: pop ebp ; pop ebx ; add esp, 0x000000C8 ; ret  ;  (1 found)
0x1001167b: pop ebp ; pop ebx ; add esp, 0x00000100 ; ret  ;  (1 found)
0x10008058: pop ebp ; pop ebx ; add esp, 0x08 ; ret  ;  (1 found)
0x1000952a: pop ebp ; pop ebx ; add esp, 0x08 ; ret  ;  (1 found)
0x100096cc: pop ebp ; pop ebx ; add esp, 0x08 ; ret  ;  (1 found)
0x10009700: pop ebp ; pop ebx ; add esp, 0x08 ; ret  ;  (1 found)
0x10009ab9: pop ebp ; pop ebx ; add esp, 0x08 ; ret  ;  (1 found)
0x100081c7: pop ebp ; pop ebx ; add esp, 0x08 ; ret  ;  (1 found)
0x10009c2b: pop ebp ; pop ebx ; add esp, 0x08 ; ret  ;  (1 found)
0x10009c5e: pop ebp ; pop ebx ; add esp, 0x08 ; ret  ;  (1 found)
0x10003d61: pop ebp ; pop ebx ; add esp, 0x10 ; ret  ;  (1 found)
0x10006e8b: pop ebp ; pop ebx ; add esp, 0x10 ; ret  ;  (1 found)
0x1000db38: pop ebp ; pop ebx ; add esp, 0x10 ; ret  ;  (1 found)
0x1000dc76: pop ebp ; pop ebx ; add esp, 0x10 ; ret  ;  (1 found)
0x1000dbdd: pop ebp ; pop ebx ; add esp, 0x10 ; ret  ;  (1 found)
0x1000db85: pop ebp ; pop ebx ; add esp, 0x10 ; ret  ;  (1 found)
0x1000dc2c: pop ebp ; pop ebx ; add esp, 0x10 ; ret  ;  (1 found)
0x1000de2b: pop ebp ; pop ebx ; add esp, 0x10 ; ret  ;  (1 found)
0x1000dd5d: pop ebp ; pop ebx ; add esp, 0x10 ; ret  ;  (1 found)
0x1000dcd7: pop ebp ; pop ebx ; add esp, 0x10 ; ret  ;  (1 found)
0x1000de9e: pop ebp ; pop ebx ; add esp, 0x10 ; ret  ;  (1 found)
0x1000dff3: pop ebp ; pop ebx ; add esp, 0x10 ; ret  ;  (1 found)
0x1000e066: pop ebp ; pop ebx ; add esp, 0x10 ; ret  ;  (1 found)
0x1000dfbf: pop ebp ; pop ebx ; add esp, 0x10 ; ret  ;  (1 found)
0x10002c72: pop ebp ; pop ebx ; add esp, 0x18 ; ret  ;  (1 found)
0x10002ca6: pop ebp ; pop ebx ; add esp, 0x18 ; ret  ;  (1 found)
0x10004843: pop ebp ; pop ebx ; add esp, 0x18 ; ret  ;  (1 found)
0x10006b5e: pop ebp ; pop ebx ; add esp, 0x18 ; ret  ;  (1 found)
0x10004160: pop ebp ; pop ebx ; add esp, 0x24 ; ret  ;  (1 found)
0x1000ecc0: pop ebp ; pop ebx ; add esp, 0x28 ; ret  ;  (1 found)
0x1000eb2e: pop ebp ; pop ebx ; add esp, 0x28 ; ret  ;  (1 found)
0x1000ecf3: pop ebp ; pop ebx ; add esp, 0x28 ; ret  ;  (1 found)
0x100025a4: pop ebp ; pop ebx ; add esp, 0x2C ; ret  ;  (1 found)
0x10002571: pop ebp ; pop ebx ; add esp, 0x2C ; ret  ;  (1 found)
0x100023eb: pop ebp ; pop ebx ; add esp, 0x2C ; ret  ;  (1 found)
0x10002f11: pop ebp ; pop ebx ; add esp, 0x38 ; ret  ;  (1 found)
0x100031b3: pop ebp ; pop ebx ; add esp, 0x38 ; ret  ;  (1 found)
0x10003180: pop ebp ; pop ebx ; add esp, 0x38 ; ret  ;  (1 found)
0x1000f994: pop ebp ; pop ebx ; add esp, 0x40 ; ret  ;  (1 found)
0x10004604: pop ebp ; pop ebx ; add esp, 0x4C ; ret  ;  (1 found)
0x10004231: pop ebp ; pop ebx ; add esp, 0x4C ; ret  ;  (1 found)
0x1000503e: pop ebp ; pop ebx ; add esp, 0x78 ; ret  ;  (1 found)
0x1000491b: pop ebp ; pop ebx ; add esp, 0x78 ; ret  ;  (1 found)
0x1000ab70: pop ebp ; pop ebx ; add esp, 0x7C ; ret  ;  (1 found)
0x1000ab43: pop ebp ; pop ebx ; add esp, 0x7C ; ret  ;  (1 found)
0x10002ad9: pop ebp ; pop ebx ; pop ecx ; ret  ;  (1 found)
0x10002b0a: pop ebp ; pop ebx ; pop ecx ; ret  ;  (1 found)
0x10005146: pop ebp ; pop ebx ; pop ecx ; ret  ;  (1 found)
0x10004707: pop ebp ; pop ebx ; pop ecx ; ret  ;  (1 found)
0x10005264: pop ebp ; pop ebx ; pop ecx ; ret  ;  (1 found)
0x100071cd: pop ebp ; pop ebx ; pop ecx ; ret  ;  (1 found)
0x100071ff: pop ebp ; pop ebx ; pop ecx ; ret  ;  (1 found)
0x10007104: pop ebp ; pop ebx ; pop ecx ; ret  ;  (1 found)
0x100078f4: pop ebp ; pop ebx ; pop ecx ; ret  ;  (1 found)
0x100079fe: pop ebp ; pop ebx ; pop ecx ; ret  ;  (1 found)
0x100079cc: pop ebp ; pop ebx ; pop ecx ; ret  ;  (1 found)
0x10007aeb: pop ebp ; pop ebx ; pop ecx ; ret  ;  (1 found)
0x10007bec: pop ebp ; pop ebx ; pop ecx ; ret  ;  (1 found)
0x10009843: pop ebp ; pop ebx ; pop ecx ; ret  ;  (1 found)
0x10009965: pop ebp ; pop ebx ; pop ecx ; ret  ;  (1 found)
0x10009933: pop ebp ; pop ebx ; pop ecx ; ret  ;  (1 found)
0x10008286: pop ebp ; pop ebx ; pop ecx ; ret  ;  (1 found)
0x10008565: pop ebp ; pop ebx ; pop ecx ; ret  ;  (1 found)
0x100083a9: pop ebp ; pop ebx ; pop ecx ; ret  ;  (1 found)
0x10008596: pop ebp ; pop ebx ; pop ecx ; ret  ;  (1 found)
0x10008466: pop ebp ; pop ebx ; pop ecx ; ret  ;  (1 found)
0x10008378: pop ebp ; pop ebx ; pop ecx ; ret  ;  (1 found)
0x10008755: pop ebp ; pop ebx ; pop ecx ; ret  ;  (1 found)
0x10008656: pop ebp ; pop ebx ; pop ecx ; ret  ;  (1 found)
0x10008786: pop ebp ; pop ebx ; pop ecx ; ret  ;  (1 found)
0x10008846: pop ebp ; pop ebx ; pop ecx ; ret  ;  (1 found)
0x10008927: pop ebp ; pop ebx ; pop ecx ; ret  ;  (1 found)
0x10008958: pop ebp ; pop ebx ; pop ecx ; ret  ;  (1 found)
0x10008cb3: pop ebp ; pop ebx ; pop ecx ; ret  ;  (1 found)
0x10008ba4: pop ebp ; pop ebx ; pop ecx ; ret  ;  (1 found)
0x10008c82: pop ebp ; pop ebx ; pop ecx ; ret  ;  (1 found)
0x10008e52: pop ebp ; pop ebx ; pop ecx ; ret  ;  (1 found)
0x10008e83: pop ebp ; pop ebx ; pop ecx ; ret  ;  (1 found)
0x10008f44: pop ebp ; pop ebx ; pop ecx ; ret  ;  (1 found)
0x10008d74: pop ebp ; pop ebx ; pop ecx ; ret  ;  (1 found)
0x10009053: pop ebp ; pop ebx ; pop ecx ; ret  ;  (1 found)
0x10009022: pop ebp ; pop ebx ; pop ecx ; ret  ;  (1 found)
0x10009ff4: pop ebp ; pop ebx ; pop ecx ; ret  ;  (1 found)
0x1000a026: pop ebp ; pop ebx ; pop ecx ; ret  ;  (1 found)
0x1000a4e0: pop ebp ; pop ebx ; pop ecx ; ret  ;  (1 found)
0x1000a375: pop ebp ; pop ebx ; pop ecx ; ret  ;  (1 found)
0x1000a4ae: pop ebp ; pop ebx ; pop ecx ; ret  ;  (1 found)
0x1000a892: pop ebp ; pop ebx ; pop ecx ; ret  ;  (1 found)
0x1000a7d4: pop ebp ; pop ebx ; pop ecx ; ret  ;  (1 found)
0x1000a8c3: pop ebp ; pop ebx ; pop ecx ; ret  ;  (1 found)
0x100013a1: pop ebp ; pop ebx ; ret  ;  (1 found)
0x10001eaf: pop ebp ; pop ebx ; ret  ;  (1 found)
0x10001ee2: pop ebp ; pop ebx ; ret  ;  (1 found)
0x10002971: pop ebp ; pop ebx ; ret  ;  (1 found)
0x100029a2: pop ebp ; pop ebx ; ret  ;  (1 found)
0x10002e06: pop ebp ; pop ebx ; ret  ;  (1 found)
0x10002dd5: pop ebp ; pop ebx ; ret  ;  (1 found)
0x1000362b: pop ebp ; pop ebx ; ret  ;  (1 found)
0x10003741: pop ebp ; pop ebx ; ret  ;  (1 found)
0x1000357a: pop ebp ; pop ebx ; ret  ;  (1 found)
0x10003a7c: pop ebp ; pop ebx ; ret  ;  (1 found)
0x10003c7c: pop ebp ; pop ebx ; ret  ;  (1 found)
0x10005dd6: pop ebp ; pop ebx ; ret  ;  (1 found)
0x10005e17: pop ebp ; pop ebx ; ret  ;  (1 found)
0x10005f0a: pop ebp ; pop ebx ; ret  ;  (1 found)
0x10005e9e: pop ebp ; pop ebx ; ret  ;  (1 found)
0x100064b2: pop ebp ; pop ebx ; ret  ;  (1 found)
0x1000635e: pop ebp ; pop ebx ; ret  ;  (1 found)
0x10006663: pop ebp ; pop ebx ; ret  ;  (1 found)
0x100093fe: pop ebp ; pop ebx ; ret  ;  (1 found)
0x1000942f: pop ebp ; pop ebx ; ret  ;  (1 found)
0x10009319: pop ebp ; pop ebx ; ret  ;  (1 found)
0x1000e238: pop ebp ; pop ebx ; ret  ;  (1 found)
0x1000f8c1: pop ebp ; pop ebx ; ret  ;  (1 found)
0x10012070: pop ebp ; pop ebx ; ret  ;  (1 found)
0x1000e83a: pop ebp ; pop ebx ; setne al ; ret  ;  (1 found)
0x10007361: pop ebp ; pop esi ; pop ebx ; pop ecx ; ret  ;  (1 found)
0x10007393: pop ebp ; pop esi ; pop ebx ; pop ecx ; ret  ;  (1 found)
0x100074e0: pop ebp ; pop esi ; pop ebx ; pop ecx ; ret  ;  (1 found)
0x10007511: pop ebp ; pop esi ; pop ebx ; pop ecx ; ret  ;  (1 found)
0x10007670: pop ebp ; pop esi ; pop ebx ; pop ecx ; ret  ;  (1 found)
0x100076a2: pop ebp ; pop esi ; pop ebx ; pop ecx ; ret  ;  (1 found)
0x10007836: pop ebp ; pop esi ; pop ebx ; pop ecx ; ret  ;  (1 found)
0x10007805: pop ebp ; pop esi ; pop ebx ; pop ecx ; ret  ;  (1 found)
0x1000ea43: pop ebp ; ret  ;  (1 found)
0x1000ea14: pop ebp ; ret  ;  (1 found)
0x1000f167: pop ebp ; ret  ;  (1 found)
0x10011377: pop ebp ; ret  ;  (1 found)
0x100113e0: pop ebp ; ret  ;  (1 found)
0x10010b75: pop ebp ; ret  ;  (1 found)
0x100114d6: pop ebp ; retn 0x0004 ;  (1 found)
0x1001241a: pop ebp ; retn 0x000C ;  (1 found)
0x100116df: pop ebp ; xor eax, eax ; pop ebx ; add esp, 0x00000100 ; ret  ;  (1 found)
0x10003593: pop ebp ; xor eax, eax ; pop ebx ; ret  ;  (1 found)
0x1000b3e0: pop ebx ; add esp, 0x00000080 ; ret  ;  (1 found)
0x1000b410: pop ebx ; add esp, 0x00000080 ; ret  ;  (1 found)
0x1000ba18: pop ebx ; add esp, 0x00000080 ; ret  ;  (1 found)
0x1000b9e8: pop ebx ; add esp, 0x00000080 ; ret  ;  (1 found)
0x1000c72f: pop ebx ; add esp, 0x00000080 ; ret  ;  (1 found)
0x1000c75e: pop ebx ; add esp, 0x00000080 ; ret  ;  (1 found)
0x1000b609: pop ebx ; add esp, 0x0000008C ; ret  ;  (1 found)
0x1000b5d9: pop ebx ; add esp, 0x0000008C ; ret  ;  (1 found)
0x1000ad59: pop ebx ; add esp, 0x0000008C ; ret  ;  (1 found)
0x1000ad89: pop ebx ; add esp, 0x0000008C ; ret  ;  (1 found)
0x1000b828: pop ebx ; add esp, 0x00000090 ; ret  ;  (1 found)
0x1000b7f8: pop ebx ; add esp, 0x00000090 ; ret  ;  (1 found)
0x1000c971: pop ebx ; add esp, 0x00000090 ; ret  ;  (1 found)
0x1000c941: pop ebx ; add esp, 0x00000090 ; ret  ;  (1 found)
0x1000cb51: pop ebx ; add esp, 0x00000090 ; ret  ;  (1 found)
0x1000cb81: pop ebx ; add esp, 0x00000090 ; ret  ;  (1 found)
0x1000c58b: pop ebx ; add esp, 0x00000090 ; ret  ;  (1 found)
0x1000c5bb: pop ebx ; add esp, 0x00000090 ; ret  ;  (1 found)
0x10005397: pop ebx ; add esp, 0x00000094 ; ret  ;  (1 found)
0x10005bc7: pop ebx ; add esp, 0x00000094 ; ret  ;  (1 found)
0x10005c8c: pop ebx ; add esp, 0x00000094 ; ret  ;  (1 found)
0x1000cda3: pop ebx ; add esp, 0x00000098 ; ret  ;  (1 found)
0x1000cd73: pop ebx ; add esp, 0x00000098 ; ret  ;  (1 found)
0x1000c39f: pop ebx ; add esp, 0x0000009C ; ret  ;  (1 found)
0x1000c36f: pop ebx ; add esp, 0x0000009C ; ret  ;  (1 found)
0x1000cfeb: pop ebx ; add esp, 0x000000A0 ; ret  ;  (1 found)
0x1000cfbb: pop ebx ; add esp, 0x000000A0 ; ret  ;  (1 found)
0x1000c13d: pop ebx ; add esp, 0x000000A8 ; ret  ;  (1 found)
0x1000c16d: pop ebx ; add esp, 0x000000A8 ; ret  ;  (1 found)
0x1000bc30: pop ebx ; add esp, 0x000000AC ; ret  ;  (1 found)
0x1000bc60: pop ebx ; add esp, 0x000000AC ; ret  ;  (1 found)
0x1000bead: pop ebx ; add esp, 0x000000AC ; ret  ;  (1 found)
0x1000bedd: pop ebx ; add esp, 0x000000AC ; ret  ;  (1 found)
0x1000a280: pop ebx ; add esp, 0x000000B4 ; ret  ;  (1 found)
0x1000a2b0: pop ebx ; add esp, 0x000000B4 ; ret  ;  (1 found)
0x1000a718: pop ebx ; add esp, 0x000000B4 ; ret  ;  (1 found)
0x1000a6e8: pop ebx ; add esp, 0x000000B4 ; ret  ;  (1 found)
0x1000d907: pop ebx ; add esp, 0x000000C8 ; ret  ;  (1 found)
0x1000d8d7: pop ebx ; add esp, 0x000000C8 ; ret  ;  (1 found)
0x1001167c: pop ebx ; add esp, 0x00000100 ; ret  ;  (1 found)
0x100116e2: pop ebx ; add esp, 0x00000100 ; ret  ;  (1 found)
0x10011779: pop ebx ; add esp, 0x00000100 ; ret  ;  (1 found)
0x100117f7: pop ebx ; add esp, 0x00000100 ; ret  ;  (1 found)
0x10010be9: pop ebx ; add esp, 0x00000230 ; ret  ;  (1 found)
0x10010cd9: pop ebx ; add esp, 0x00000230 ; ret  ;  (1 found)
0x10010c89: pop ebx ; add esp, 0x00000230 ; ret  ;  (1 found)
0x100106ad: pop ebx ; add esp, 0x00000800 ; ret  ;  (1 found)
0x100106c0: pop ebx ; add esp, 0x00000800 ; ret  ;  (1 found)
0x1000fe77: pop ebx ; add esp, 0x00000918 ; ret  ;  (1 found)
0x1000fbdb: pop ebx ; add esp, 0x00000918 ; ret  ;  (1 found)
0x1000fd84: pop ebx ; add esp, 0x00000918 ; ret  ;  (1 found)
0x1000fe3c: pop ebx ; add esp, 0x00000918 ; ret  ;  (1 found)
0x1000fddd: pop ebx ; add esp, 0x00000918 ; ret  ;  (1 found)
0x100108f7: pop ebx ; add esp, 0x00001000 ; ret  ;  (1 found)
0x10010903: pop ebx ; add esp, 0x00001000 ; ret  ;  (1 found)
0x10011ffd: pop ebx ; add esp, 0x00001128 ; ret  ;  (1 found)
0x1001201b: pop ebx ; add esp, 0x00001128 ; ret  ;  (1 found)
0x10011ce4: pop ebx ; add esp, 0x00001128 ; ret  ;  (1 found)
0x10011efd: pop ebx ; add esp, 0x00001128 ; ret  ;  (1 found)
0x10007c70: pop ebx ; add esp, 0x08 ; ret  ;  (1 found)
0x10007de4: pop ebx ; add esp, 0x08 ; ret  ;  (1 found)
0x10008059: pop ebx ; add esp, 0x08 ; ret  ;  (1 found)
0x10007e17: pop ebx ; add esp, 0x08 ; ret  ;  (1 found)
0x1000952b: pop ebx ; add esp, 0x08 ; ret  ;  (1 found)
0x100096cd: pop ebx ; add esp, 0x08 ; ret  ;  (1 found)
0x10009701: pop ebx ; add esp, 0x08 ; ret  ;  (1 found)
0x10009aba: pop ebx ; add esp, 0x08 ; ret  ;  (1 found)
0x100081c8: pop ebx ; add esp, 0x08 ; ret  ;  (1 found)
0x100089f8: pop ebx ; add esp, 0x08 ; ret  ;  (1 found)
0x10008ab5: pop ebx ; add esp, 0x08 ; ret  ;  (1 found)
0x10008ae8: pop ebx ; add esp, 0x08 ; ret  ;  (1 found)
0x10009c5f: pop ebx ; add esp, 0x08 ; ret  ;  (1 found)
0x10009c2c: pop ebx ; add esp, 0x08 ; ret  ;  (1 found)
0x1000283d: pop ebx ; add esp, 0x10 ; ret  ;  (1 found)
0x1000277b: pop ebx ; add esp, 0x10 ; ret  ;  (1 found)
0x10002748: pop ebx ; add esp, 0x10 ; ret  ;  (1 found)
0x1000280a: pop ebx ; add esp, 0x10 ; ret  ;  (1 found)
0x10003d62: pop ebx ; add esp, 0x10 ; ret  ;  (1 found)
0x10006bd2: pop ebx ; add esp, 0x10 ; ret  ;  (1 found)
0x10006bf0: pop ebx ; add esp, 0x10 ; ret  ;  (1 found)
0x10006e8c: pop ebx ; add esp, 0x10 ; ret  ;  (1 found)
0x10007f99: pop ebx ; add esp, 0x10 ; ret  ;  (1 found)
0x10006de8: pop ebx ; add esp, 0x10 ; ret  ;  (1 found)
0x1000db39: pop ebx ; add esp, 0x10 ; ret  ;  (1 found)
0x1000db86: pop ebx ; add esp, 0x10 ; ret  ;  (1 found)
0x1000dc77: pop ebx ; add esp, 0x10 ; ret  ;  (1 found)
0x1000dcd8: pop ebx ; add esp, 0x10 ; ret  ;  (1 found)
0x1000dc2d: pop ebx ; add esp, 0x10 ; ret  ;  (1 found)
0x1000dbde: pop ebx ; add esp, 0x10 ; ret  ;  (1 found)
0x1000de2c: pop ebx ; add esp, 0x10 ; ret  ;  (1 found)
0x1000dd5e: pop ebx ; add esp, 0x10 ; ret  ;  (1 found)
0x1000de9f: pop ebx ; add esp, 0x10 ; ret  ;  (1 found)
0x1000dfc0: pop ebx ; add esp, 0x10 ; ret  ;  (1 found)
0x1000dff4: pop ebx ; add esp, 0x10 ; ret  ;  (1 found)
0x1000e067: pop ebx ; add esp, 0x10 ; ret  ;  (1 found)
0x10002c73: pop ebx ; add esp, 0x18 ; ret  ;  (1 found)
0x10002ca7: pop ebx ; add esp, 0x18 ; ret  ;  (1 found)
0x10004844: pop ebx ; add esp, 0x18 ; ret  ;  (1 found)
0x10006b5f: pop ebx ; add esp, 0x18 ; ret  ;  (1 found)
0x10004161: pop ebx ; add esp, 0x24 ; ret  ;  (1 found)
0x1000eb2f: pop ebx ; add esp, 0x28 ; ret  ;  (1 found)
0x1000ecc1: pop ebx ; add esp, 0x28 ; ret  ;  (1 found)
0x1000ecf4: pop ebx ; add esp, 0x28 ; ret  ;  (1 found)
0x100023ec: pop ebx ; add esp, 0x2C ; ret  ;  (1 found)
0x100025a5: pop ebx ; add esp, 0x2C ; ret  ;  (1 found)
0x10002572: pop ebx ; add esp, 0x2C ; ret  ;  (1 found)
0x10002f12: pop ebx ; add esp, 0x38 ; ret  ;  (1 found)
0x10003181: pop ebx ; add esp, 0x38 ; ret  ;  (1 found)
0x100031b4: pop ebx ; add esp, 0x38 ; ret  ;  (1 found)
0x1000f995: pop ebx ; add esp, 0x40 ; ret  ;  (1 found)
0x10004605: pop ebx ; add esp, 0x4C ; ret  ;  (1 found)
0x10004232: pop ebx ; add esp, 0x4C ; ret  ;  (1 found)
0x1000fa3f: pop ebx ; add esp, 0x54 ; ret  ;  (1 found)
0x1000503f: pop ebx ; add esp, 0x78 ; ret  ;  (1 found)
0x1000491c: pop ebx ; add esp, 0x78 ; ret  ;  (1 found)
0x1000aef7: pop ebx ; add esp, 0x78 ; ret  ;  (1 found)
0x1000af23: pop ebx ; add esp, 0x78 ; ret  ;  (1 found)
0x1000b24f: pop ebx ; add esp, 0x78 ; ret  ;  (1 found)
0x1000b223: pop ebx ; add esp, 0x78 ; ret  ;  (1 found)
0x1000ab44: pop ebx ; add esp, 0x7C ; ret  ;  (1 found)
0x1000ab71: pop ebx ; add esp, 0x7C ; ret  ;  (1 found)
0x10011ec7: pop ebx ; mov dword [ecx], eax ; mov eax, 0xFFFFFFF9 ; add esp, 0x00001128 ; ret  ;  (1 found)
0x10011374: pop ebx ; mov esp, ebp ; pop ebp ; ret  ;  (1 found)
0x100113dd: pop ebx ; mov esp, ebp ; pop ebp ; ret  ;  (1 found)
0x10010b72: pop ebx ; mov esp, ebp ; pop ebp ; ret  ;  (1 found)
0x100114d3: pop ebx ; mov esp, ebp ; pop ebp ; retn 0x0004 ;  (1 found)
0x10010c41: pop ebx ; neg eax ; add esp, 0x00000230 ; ret  ;  (1 found)
0x10012419: pop ebx ; pop ebp ; retn 0x000C ;  (1 found)
0x10002b0b: pop ebx ; pop ecx ; ret  ;  (1 found)
0x10002ada: pop ebx ; pop ecx ; ret  ;  (1 found)
0x10005147: pop ebx ; pop ecx ; ret  ;  (1 found)
0x10004708: pop ebx ; pop ecx ; ret  ;  (1 found)
0x10005265: pop ebx ; pop ecx ; ret  ;  (1 found)
0x10007105: pop ebx ; pop ecx ; ret  ;  (1 found)
0x10007200: pop ebx ; pop ecx ; ret  ;  (1 found)
0x100071ce: pop ebx ; pop ecx ; ret  ;  (1 found)
0x10007290: pop ebx ; pop ecx ; ret  ;  (1 found)
0x10007420: pop ebx ; pop ecx ; ret  ;  (1 found)
0x100074e2: pop ebx ; pop ecx ; ret  ;  (1 found)
0x10007395: pop ebx ; pop ecx ; ret  ;  (1 found)
0x10007363: pop ebx ; pop ecx ; ret  ;  (1 found)
0x10007513: pop ebx ; pop ecx ; ret  ;  (1 found)
0x10007672: pop ebx ; pop ecx ; ret  ;  (1 found)
0x100076a4: pop ebx ; pop ecx ; ret  ;  (1 found)
0x100075a0: pop ebx ; pop ecx ; ret  ;  (1 found)
0x10007730: pop ebx ; pop ecx ; ret  ;  (1 found)
0x100078f5: pop ebx ; pop ecx ; ret  ;  (1 found)
0x10007838: pop ebx ; pop ecx ; ret  ;  (1 found)
0x100079cd: pop ebx ; pop ecx ; ret  ;  (1 found)
0x10007807: pop ebx ; pop ecx ; ret  ;  (1 found)
0x100079ff: pop ebx ; pop ecx ; ret  ;  (1 found)
0x10007aec: pop ebx ; pop ecx ; ret  ;  (1 found)
0x10007bed: pop ebx ; pop ecx ; ret  ;  (1 found)
0x10009201: pop ebx ; pop ecx ; ret  ;  (1 found)
0x10009114: pop ebx ; pop ecx ; ret  ;  (1 found)
0x10009232: pop ebx ; pop ecx ; ret  ;  (1 found)
0x10009934: pop ebx ; pop ecx ; ret  ;  (1 found)
0x10009844: pop ebx ; pop ecx ; ret  ;  (1 found)
0x10009966: pop ebx ; pop ecx ; ret  ;  (1 found)
0x10008379: pop ebx ; pop ecx ; ret  ;  (1 found)
0x10008287: pop ebx ; pop ecx ; ret  ;  (1 found)
0x100083aa: pop ebx ; pop ecx ; ret  ;  (1 found)
0x10008597: pop ebx ; pop ecx ; ret  ;  (1 found)
0x10008566: pop ebx ; pop ecx ; ret  ;  (1 found)
0x10008467: pop ebx ; pop ecx ; ret  ;  (1 found)
0x10008657: pop ebx ; pop ecx ; ret  ;  (1 found)
0x10008756: pop ebx ; pop ecx ; ret  ;  (1 found)
0x10008787: pop ebx ; pop ecx ; ret  ;  (1 found)
0x10008847: pop ebx ; pop ecx ; ret  ;  (1 found)
0x10008928: pop ebx ; pop ecx ; ret  ;  (1 found)
0x10008959: pop ebx ; pop ecx ; ret  ;  (1 found)
0x10008ba5: pop ebx ; pop ecx ; ret  ;  (1 found)
0x10008c83: pop ebx ; pop ecx ; ret  ;  (1 found)
0x10008cb4: pop ebx ; pop ecx ; ret  ;  (1 found)
0x10008e53: pop ebx ; pop ecx ; ret  ;  (1 found)
0x10008d75: pop ebx ; pop ecx ; ret  ;  (1 found)
0x10008e84: pop ebx ; pop ecx ; ret  ;  (1 found)
0x10008f45: pop ebx ; pop ecx ; ret  ;  (1 found)
0x10009054: pop ebx ; pop ecx ; ret  ;  (1 found)
0x10009023: pop ebx ; pop ecx ; ret  ;  (1 found)
0x10009e32: pop ebx ; pop ecx ; ret  ;  (1 found)
0x10009ff5: pop ebx ; pop ecx ; ret  ;  (1 found)
0x1000a027: pop ebx ; pop ecx ; ret  ;  (1 found)
0x1000a376: pop ebx ; pop ecx ; ret  ;  (1 found)
0x1000a4e1: pop ebx ; pop ecx ; ret  ;  (1 found)
0x1000a4af: pop ebx ; pop ecx ; ret  ;  (1 found)
0x1000a893: pop ebx ; pop ecx ; ret  ;  (1 found)
0x1000a7d5: pop ebx ; pop ecx ; ret  ;  (1 found)
0x1000a8c4: pop ebx ; pop ecx ; ret  ;  (1 found)
0x1000ef8f: pop ebx ; pop ecx ; ret  ;  (1 found)
0x10001d93: pop ebx ; pop edi ; pop ebp ; add esp, 0x00000108 ; ret  ;  (1 found)
0x10001d51: pop ebx ; pop edi ; pop ebp ; add esp, 0x00000108 ; ret  ;  (1 found)
0x10012224: pop ebx ; pop esi ; pop edi ; retn 0x0010 ;  (1 found)
0x100013a2: pop ebx ; ret  ;  (1 found)
0x10001ee3: pop ebx ; ret  ;  (1 found)
0x10001eb0: pop ebx ; ret  ;  (1 found)
0x1000208e: pop ebx ; ret  ;  (1 found)
0x100020c2: pop ebx ; ret  ;  (1 found)
0x10002972: pop ebx ; ret  ;  (1 found)
0x100029a3: pop ebx ; ret  ;  (1 found)
0x10002dd6: pop ebx ; ret  ;  (1 found)
0x10002e07: pop ebx ; ret  ;  (1 found)
0x1000362c: pop ebx ; ret  ;  (1 found)
0x10003742: pop ebx ; ret  ;  (1 found)
0x1000357b: pop ebx ; ret  ;  (1 found)
0x10003596: pop ebx ; ret  ;  (1 found)
0x10003a7d: pop ebx ; ret  ;  (1 found)
0x10003b6e: pop ebx ; ret  ;  (1 found)
0x10003c7d: pop ebx ; ret  ;  (1 found)
0x10005e18: pop ebx ; ret  ;  (1 found)
0x10005dd7: pop ebx ; ret  ;  (1 found)
0x10005f72: pop ebx ; ret  ;  (1 found)
0x10005ebc: pop ebx ; ret  ;  (1 found)
0x10005e9f: pop ebx ; ret  ;  (1 found)
0x10005f0b: pop ebx ; ret  ;  (1 found)
0x10006065: pop ebx ; ret  ;  (1 found)
0x10006043: pop ebx ; ret  ;  (1 found)
0x10005fea: pop ebx ; ret  ;  (1 found)
0x10006155: pop ebx ; ret  ;  (1 found)
0x100060b8: pop ebx ; ret  ;  (1 found)
0x100061f0: pop ebx ; ret  ;  (1 found)
0x100067de: pop ebx ; ret  ;  (1 found)
0x1000635f: pop ebx ; ret  ;  (1 found)
0x100064b3: pop ebx ; ret  ;  (1 found)
0x10006664: pop ebx ; ret  ;  (1 found)
0x10007043: pop ebx ; ret  ;  (1 found)
0x10006f6f: pop ebx ; ret  ;  (1 found)
0x10006fda: pop ebx ; ret  ;  (1 found)
0x1000931a: pop ebx ; ret  ;  (1 found)
0x10009430: pop ebx ; ret  ;  (1 found)
0x100093ff: pop ebx ; ret  ;  (1 found)
0x1000aa00: pop ebx ; ret  ;  (1 found)
0x1000e91c: pop ebx ; ret  ;  (1 found)
0x1000e8e0: pop ebx ; ret  ;  (1 found)
0x1000e899: pop ebx ; ret  ;  (1 found)
0x1000e157: pop ebx ; ret  ;  (1 found)
0x1000e239: pop ebx ; ret  ;  (1 found)
0x1000ee6a: pop ebx ; ret  ;  (1 found)
0x1000f8c2: pop ebx ; ret  ;  (1 found)
0x100115c9: pop ebx ; ret  ;  (1 found)
0x10010434: pop ebx ; ret  ;  (1 found)
0x100107f0: pop ebx ; ret  ;  (1 found)
0x100107f6: pop ebx ; ret  ;  (1 found)
0x10012071: pop ebx ; ret  ;  (1 found)
0x10012294: pop ebx ; retn 0x0010 ;  (1 found)
0x1000e83b: pop ebx ; setne al ; ret  ;  (1 found)
0x10007dd9: pop ecx ; mov dword [0xC4830000], eax ; and byte [ebx+0x5B5E5FC7], cl ; add esp, 0x08 ; ret  ;  (1 found)
0x100061e5: pop ecx ; mov edi, 0xC4830000 ; sbb byte [ebx], dh ; rcr byte [edi+0x5E], 0x0000005B ; ret  ;  (1 found)
0x10003d08: pop ecx ; or byte [ebx+0x1EE80C69], cl ; ret  ;  (1 found)
0x10003d5c: pop ecx ; or byte [ecx+0x5B5D0C69], cl ; add esp, 0x10 ; ret  ;  (1 found)
0x10012379: pop ecx ; pop esi ; push 0x00000001 ; pop eax ; retn 0x000C ;  (1 found)
0x10001fd7: pop ecx ; ret  ;  (1 found)
0x10002b0c: pop ecx ; ret  ;  (1 found)
0x10002adb: pop ecx ; ret  ;  (1 found)
0x10005148: pop ecx ; ret  ;  (1 found)
0x10004709: pop ecx ; ret  ;  (1 found)
0x10005266: pop ecx ; ret  ;  (1 found)
0x10007106: pop ecx ; ret  ;  (1 found)
0x10007201: pop ecx ; ret  ;  (1 found)
0x100071cf: pop ecx ; ret  ;  (1 found)
0x10007291: pop ecx ; ret  ;  (1 found)
0x10007396: pop ecx ; ret  ;  (1 found)
0x10007421: pop ecx ; ret  ;  (1 found)
0x100074e3: pop ecx ; ret  ;  (1 found)
0x10007364: pop ecx ; ret  ;  (1 found)
0x10007514: pop ecx ; ret  ;  (1 found)
0x100075a1: pop ecx ; ret  ;  (1 found)
0x10007673: pop ecx ; ret  ;  (1 found)
0x10007731: pop ecx ; ret  ;  (1 found)
0x100076a5: pop ecx ; ret  ;  (1 found)
0x100078f6: pop ecx ; ret  ;  (1 found)
0x100079ce: pop ecx ; ret  ;  (1 found)
0x10007839: pop ecx ; ret  ;  (1 found)
0x10007808: pop ecx ; ret  ;  (1 found)
0x10007aed: pop ecx ; ret  ;  (1 found)
0x10007a00: pop ecx ; ret  ;  (1 found)
0x10007bee: pop ecx ; ret  ;  (1 found)
0x10009115: pop ecx ; ret  ;  (1 found)
0x10009202: pop ecx ; ret  ;  (1 found)
0x10009233: pop ecx ; ret  ;  (1 found)
0x10009935: pop ecx ; ret  ;  (1 found)
0x10009845: pop ecx ; ret  ;  (1 found)
0x10009967: pop ecx ; ret  ;  (1 found)
0x1000837a: pop ecx ; ret  ;  (1 found)
0x10008288: pop ecx ; ret  ;  (1 found)
0x10008468: pop ecx ; ret  ;  (1 found)
0x10008567: pop ecx ; ret  ;  (1 found)
0x10008598: pop ecx ; ret  ;  (1 found)
0x100083ab: pop ecx ; ret  ;  (1 found)
0x10008788: pop ecx ; ret  ;  (1 found)
0x10008658: pop ecx ; ret  ;  (1 found)
0x10008757: pop ecx ; ret  ;  (1 found)
0x10008848: pop ecx ; ret  ;  (1 found)
0x10008929: pop ecx ; ret  ;  (1 found)
0x1000895a: pop ecx ; ret  ;  (1 found)
0x10008c84: pop ecx ; ret  ;  (1 found)
0x10008ba6: pop ecx ; ret  ;  (1 found)
0x10008cb5: pop ecx ; ret  ;  (1 found)
0x10008e54: pop ecx ; ret  ;  (1 found)
0x10008f46: pop ecx ; ret  ;  (1 found)
0x10008d76: pop ecx ; ret  ;  (1 found)
0x10008e85: pop ecx ; ret  ;  (1 found)
0x10009024: pop ecx ; ret  ;  (1 found)
0x10009055: pop ecx ; ret  ;  (1 found)
0x10009e33: pop ecx ; ret  ;  (1 found)
0x10009ff6: pop ecx ; ret  ;  (1 found)
0x1000a028: pop ecx ; ret  ;  (1 found)
0x1000a377: pop ecx ; ret  ;  (1 found)
0x1000a4b0: pop ecx ; ret  ;  (1 found)
0x1000a4e2: pop ecx ; ret  ;  (1 found)
0x1000a7d6: pop ecx ; ret  ;  (1 found)
0x1000a894: pop ecx ; ret  ;  (1 found)
0x1000a8c5: pop ecx ; ret  ;  (1 found)
0x1000ef90: pop ecx ; ret  ;  (1 found)
0x10010028: pop ecx ; ret  ;  (1 found)
0x100101e1: pop ecx ; ret  ;  (1 found)
0x1001030f: pop ecx ; ret  ;  (1 found)
0x10011af2: pop edi ; add esp, 0x00000104 ; ret  ;  (1 found)
0x10011afc: pop edi ; add esp, 0x00000104 ; ret  ;  (1 found)
0x1000e7b0: pop edi ; mov ax, word [esi] ; push eax ; call dword [0x10013130] ;  (1 found)
0x10010dbb: pop edi ; mov eax, 0x00000001 ; pop esi ; add esp, 0x0000009C ; ret  ;  (1 found)
0x1001191e: pop edi ; mov eax, 0x00000001 ; pop esi ; add esp, 0x00000100 ; ret  ;  (1 found)
0x100107ac: pop edi ; mov eax, 0x00000001 ; pop esi ; add esp, 0x00001004 ; ret  ;  (1 found)
0x10010386: pop edi ; mov eax, 0x00000001 ; pop esi ; ret  ;  (1 found)
0x1001044f: pop edi ; mov eax, ecx ; ret  ;  (1 found)
0x10006d82: pop edi ; mov ecx, dword [esi+0x000005D0] ; push 0xFFFFFFFF ; push ecx ; call dword [0x10013090] ;  (1 found)
0x10010345: pop edi ; mov word [ecx], 0x0000 ; mov eax, 0x00000001 ; pop esi ; ret  ;  (1 found)
0x10011600: pop edi ; or al, 0x53 ; call dword [0x100130B0] ;  (1 found)
0x1000f251: pop edi ; or eax, 0xFFFFFFFF ; pop esi ; add esp, 0x14 ; ret  ;  (1 found)
0x1000f367: pop edi ; or eax, 0xFFFFFFFF ; pop esi ; add esp, 0x14 ; ret  ;  (1 found)
0x1000f463: pop edi ; or eax, 0xFFFFFFFF ; pop esi ; add esp, 0x14 ; ret  ;  (1 found)
0x10001972: pop edi ; pop ebp ; add esp, 0x00000108 ; ret  ;  (1 found)
0x10001d52: pop edi ; pop ebp ; add esp, 0x00000108 ; ret  ;  (1 found)
0x10001d94: pop edi ; pop ebp ; add esp, 0x00000108 ; ret  ;  (1 found)
0x10003b6d: pop edi ; pop ebx ; ret  ;  (1 found)
0x1001189b: pop edi ; pop esi ; add esp, 0x00000100 ; ret  ;  (1 found)
0x10010798: pop edi ; pop esi ; add esp, 0x00001004 ; ret  ;  (1 found)
0x100015d0: pop edi ; pop esi ; add esp, 0x10 ; ret  ;  (1 found)
0x1000170a: pop edi ; pop esi ; add esp, 0x10 ; ret  ;  (1 found)
0x100016d8: pop edi ; pop esi ; add esp, 0x10 ; ret  ;  (1 found)
0x1000f4b3: pop edi ; pop esi ; add esp, 0x14 ; ret  ;  (1 found)
0x10011970: pop edi ; pop esi ; add esp, 0x28 ; ret  ;  (1 found)
0x10011968: pop edi ; pop esi ; add esp, 0x28 ; ret  ;  (1 found)
0x1000fafe: pop edi ; pop esi ; add esp, 0x3C ; ret  ;  (1 found)
0x10005fe3: pop edi ; pop esi ; mov eax, 0x00000001 ; pop ebx ; ret  ;  (1 found)
0x1000605e: pop edi ; pop esi ; mov eax, 0x00000001 ; pop ebx ; ret  ;  (1 found)
0x1000f160: pop edi ; pop esi ; mov eax, 0xFFFFFFF9 ; pop ebp ; ret  ;  (1 found)
0x1000d0ba: pop edi ; pop esi ; pop ebp ; add esp, 0x00000098 ; ret  ;  (1 found)
0x1000d278: pop edi ; pop esi ; pop ebp ; add esp, 0x00000098 ; ret  ;  (1 found)
0x1000d249: pop edi ; pop esi ; pop ebp ; add esp, 0x00000098 ; ret  ;  (1 found)
0x1000d353: pop edi ; pop esi ; pop ebp ; add esp, 0x000000A8 ; ret  ;  (1 found)
0x1000d516: pop edi ; pop esi ; pop ebp ; add esp, 0x000000A8 ; ret  ;  (1 found)
0x1000d546: pop edi ; pop esi ; pop ebp ; add esp, 0x000000A8 ; ret  ;  (1 found)
0x1000e438: pop edi ; pop esi ; pop ebp ; add esp, 0x0000041C ; ret  ;  (1 found)
0x1000b095: pop edi ; pop esi ; pop ebp ; add esp, 0x78 ; ret  ;  (1 found)
0x1000b0c1: pop edi ; pop esi ; pop ebp ; add esp, 0x78 ; ret  ;  (1 found)
0x1000139f: pop edi ; pop esi ; pop ebp ; pop ebx ; ret  ;  (1 found)
0x10001ee0: pop edi ; pop esi ; pop ebp ; pop ebx ; ret  ;  (1 found)
0x10001ead: pop edi ; pop esi ; pop ebp ; pop ebx ; ret  ;  (1 found)
0x1000296f: pop edi ; pop esi ; pop ebp ; pop ebx ; ret  ;  (1 found)
0x100029a0: pop edi ; pop esi ; pop ebp ; pop ebx ; ret  ;  (1 found)
0x10002dd3: pop edi ; pop esi ; pop ebp ; pop ebx ; ret  ;  (1 found)
0x10002e04: pop edi ; pop esi ; pop ebp ; pop ebx ; ret  ;  (1 found)
0x10003629: pop edi ; pop esi ; pop ebp ; pop ebx ; ret  ;  (1 found)
0x1000373f: pop edi ; pop esi ; pop ebp ; pop ebx ; ret  ;  (1 found)
0x10003a7a: pop edi ; pop esi ; pop ebp ; pop ebx ; ret  ;  (1 found)
0x10003c7a: pop edi ; pop esi ; pop ebp ; pop ebx ; ret  ;  (1 found)
0x10005e15: pop edi ; pop esi ; pop ebp ; pop ebx ; ret  ;  (1 found)
0x10005dd4: pop edi ; pop esi ; pop ebp ; pop ebx ; ret  ;  (1 found)
0x10005e9c: pop edi ; pop esi ; pop ebp ; pop ebx ; ret  ;  (1 found)
0x10005f08: pop edi ; pop esi ; pop ebp ; pop ebx ; ret  ;  (1 found)
0x1000635c: pop edi ; pop esi ; pop ebp ; pop ebx ; ret  ;  (1 found)
0x100064b0: pop edi ; pop esi ; pop ebp ; pop ebx ; ret  ;  (1 found)
0x10006661: pop edi ; pop esi ; pop ebp ; pop ebx ; ret  ;  (1 found)
0x10009317: pop edi ; pop esi ; pop ebp ; pop ebx ; ret  ;  (1 found)
0x100093fc: pop edi ; pop esi ; pop ebp ; pop ebx ; ret  ;  (1 found)
0x1000942d: pop edi ; pop esi ; pop ebp ; pop ebx ; ret  ;  (1 found)
0x1000e236: pop edi ; pop esi ; pop ebp ; pop ebx ; ret  ;  (1 found)
0x1000f8bf: pop edi ; pop esi ; pop ebp ; pop ebx ; ret  ;  (1 found)
0x1001206e: pop edi ; pop esi ; pop ebp ; pop ebx ; ret  ;  (1 found)
0x1000c72d: pop edi ; pop esi ; pop ebx ; add esp, 0x00000080 ; ret  ;  (1 found)
0x1000c75c: pop edi ; pop esi ; pop ebx ; add esp, 0x00000080 ; ret  ;  (1 found)
0x10011777: pop edi ; pop esi ; pop ebx ; add esp, 0x00000100 ; ret  ;  (1 found)
0x100117f5: pop edi ; pop esi ; pop ebx ; add esp, 0x00000100 ; ret  ;  (1 found)
0x10010be7: pop edi ; pop esi ; pop ebx ; add esp, 0x00000230 ; ret  ;  (1 found)
0x10010c87: pop edi ; pop esi ; pop ebx ; add esp, 0x00000230 ; ret  ;  (1 found)
0x1000fe75: pop edi ; pop esi ; pop ebx ; add esp, 0x00000918 ; ret  ;  (1 found)
0x1000fbd9: pop edi ; pop esi ; pop ebx ; add esp, 0x00000918 ; ret  ;  (1 found)
0x1000fd82: pop edi ; pop esi ; pop ebx ; add esp, 0x00000918 ; ret  ;  (1 found)
0x1000fddb: pop edi ; pop esi ; pop ebx ; add esp, 0x00000918 ; ret  ;  (1 found)
0x1000fe3a: pop edi ; pop esi ; pop ebx ; add esp, 0x00000918 ; ret  ;  (1 found)
0x10010901: pop edi ; pop esi ; pop ebx ; add esp, 0x00001000 ; ret  ;  (1 found)
0x10007de2: pop edi ; pop esi ; pop ebx ; add esp, 0x08 ; ret  ;  (1 found)
0x10007c6e: pop edi ; pop esi ; pop ebx ; add esp, 0x08 ; ret  ;  (1 found)
0x10007e15: pop edi ; pop esi ; pop ebx ; add esp, 0x08 ; ret  ;  (1 found)
0x10008ab3: pop edi ; pop esi ; pop ebx ; add esp, 0x08 ; ret  ;  (1 found)
0x100089f6: pop edi ; pop esi ; pop ebx ; add esp, 0x08 ; ret  ;  (1 found)
0x10008ae6: pop edi ; pop esi ; pop ebx ; add esp, 0x08 ; ret  ;  (1 found)
0x10002808: pop edi ; pop esi ; pop ebx ; add esp, 0x10 ; ret  ;  (1 found)
0x1000283b: pop edi ; pop esi ; pop ebx ; add esp, 0x10 ; ret  ;  (1 found)
0x10002779: pop edi ; pop esi ; pop ebx ; add esp, 0x10 ; ret  ;  (1 found)
0x10002746: pop edi ; pop esi ; pop ebx ; add esp, 0x10 ; ret  ;  (1 found)
0x10007f97: pop edi ; pop esi ; pop ebx ; add esp, 0x10 ; ret  ;  (1 found)
0x1000fa3d: pop edi ; pop esi ; pop ebx ; add esp, 0x54 ; ret  ;  (1 found)
0x1000aef5: pop edi ; pop esi ; pop ebx ; add esp, 0x78 ; ret  ;  (1 found)
0x1000af21: pop edi ; pop esi ; pop ebx ; add esp, 0x78 ; ret  ;  (1 found)
0x1000b24d: pop edi ; pop esi ; pop ebx ; add esp, 0x78 ; ret  ;  (1 found)
0x1000b221: pop edi ; pop esi ; pop ebx ; add esp, 0x78 ; ret  ;  (1 found)
0x10012417: pop edi ; pop esi ; pop ebx ; pop ebp ; retn 0x000C ;  (1 found)
0x10009230: pop edi ; pop esi ; pop ebx ; pop ecx ; ret  ;  (1 found)
0x100091ff: pop edi ; pop esi ; pop ebx ; pop ecx ; ret  ;  (1 found)
0x10009112: pop edi ; pop esi ; pop ebx ; pop ecx ; ret  ;  (1 found)
0x1000ef8d: pop edi ; pop esi ; pop ebx ; pop ecx ; ret  ;  (1 found)
0x100020c0: pop edi ; pop esi ; pop ebx ; ret  ;  (1 found)
0x1000208c: pop edi ; pop esi ; pop ebx ; ret  ;  (1 found)
0x10005f70: pop edi ; pop esi ; pop ebx ; ret  ;  (1 found)
0x10006041: pop edi ; pop esi ; pop ebx ; ret  ;  (1 found)
0x100060b6: pop edi ; pop esi ; pop ebx ; ret  ;  (1 found)
0x10006153: pop edi ; pop esi ; pop ebx ; ret  ;  (1 found)
0x100061ee: pop edi ; pop esi ; pop ebx ; ret  ;  (1 found)
0x100067dc: pop edi ; pop esi ; pop ebx ; ret  ;  (1 found)
0x10006f6d: pop edi ; pop esi ; pop ebx ; ret  ;  (1 found)
0x10007041: pop edi ; pop esi ; pop ebx ; ret  ;  (1 found)
0x1000e8de: pop edi ; pop esi ; pop ebx ; ret  ;  (1 found)
0x1000e897: pop edi ; pop esi ; pop ebx ; ret  ;  (1 found)
0x1000e91a: pop edi ; pop esi ; pop ebx ; ret  ;  (1 found)
0x1000ee68: pop edi ; pop esi ; pop ebx ; ret  ;  (1 found)
0x100115c7: pop edi ; pop esi ; pop ebx ; ret  ;  (1 found)
0x10010432: pop edi ; pop esi ; pop ebx ; ret  ;  (1 found)
0x100107ee: pop edi ; pop esi ; pop ebx ; ret  ;  (1 found)
0x100107f4: pop edi ; pop esi ; pop ebx ; ret  ;  (1 found)
0x1001030d: pop edi ; pop esi ; pop ecx ; ret  ;  (1 found)
0x100101df: pop edi ; pop esi ; pop ecx ; ret  ;  (1 found)
0x10003939: pop edi ; pop esi ; ret  ;  (1 found)
0x100068d2: pop edi ; pop esi ; ret  ;  (1 found)
0x100069b1: pop edi ; pop esi ; ret  ;  (1 found)
0x1000e559: pop edi ; pop esi ; ret  ;  (1 found)
0x1000d9fa: pop edi ; pop esi ; ret  ;  (1 found)
0x1000eefe: pop edi ; pop esi ; ret  ;  (1 found)
0x1000f04a: pop edi ; pop esi ; ret  ;  (1 found)
0x1000f538: pop edi ; pop esi ; ret  ;  (1 found)
0x1000ff3c: pop edi ; pop esi ; ret  ;  (1 found)
0x1000ffa7: pop edi ; pop esi ; ret  ;  (1 found)
0x10010489: pop edi ; pop esi ; ret  ;  (1 found)
0x10010704: pop edi ; pop esi ; ret  ;  (1 found)
0x10010948: pop edi ; pop esi ; ret  ;  (1 found)
0x10011b49: pop edi ; pop esi ; ret  ;  (1 found)
0x10010151: pop edi ; pop esi ; retn 0x000C ;  (1 found)
0x10012226: pop edi ; retn 0x0010 ;  (1 found)
0x10011b3e: pop edi ; sbb eax, 0xFFFFFFFF ; pop esi ; ret  ;  (1 found)
0x10011913: pop edi ; xor eax, eax ; pop esi ; add esp, 0x00000100 ; ret  ;  (1 found)
0x1000e4d5: pop edi ; xor eax, eax ; pop esi ; ret  ;  (1 found)
0x1000e4f7: pop edi ; xor eax, eax ; pop esi ; ret  ;  (1 found)
0x1000f04d: pop edi ; xor eax, eax ; pop esi ; ret  ;  (1 found)
0x1000f5b1: pop edi ; xor eax, eax ; pop esi ; ret  ;  (1 found)
0x1001037a: pop edi ; xor eax, eax ; pop esi ; ret  ;  (1 found)
0x10010395: pop edi ; xor eax, eax ; pop esi ; ret  ;  (1 found)
0x1001195a: pop es ; add byte [eax], al ; push esi ; call dword [0x1001308C] ;  (1 found)
0x10010827: pop es ; add esp, 0x00001000 ; ret  ;  (1 found)
0x1000c7ff: pop es ; call dword [0x1001312C] ;  (1 found)
0x1001235e: pop es ; call ecx ;  (1 found)
0x1000505a: pop es ; mov cx, word [eax+0x02] ; push ecx ; call dword [0x10013130] ;  (1 found)
0x1001144a: pop es ; mov dword [ebp-0x1C], eax ; mov esi, dword [edi+0x08] ; call dword [0x10013080] ;  (1 found)
0x1000edc6: pop es ; push 0xFFFFFFFF ; push esi ; call ebx ;  (1 found)
0x1000ef85: pop es ; push 0xFFFFFFFF ; push esi ; call edi ;  (1 found)
0x1001104f: pop es ; push eax ; call dword [0x10013054] ;  (1 found)
0x10006c1f: pop es ; push eax ; call dword [0x10013084] ;  (1 found)
0x10001f7d: pop es ; push eax ; call dword [0x1001308C] ;  (1 found)
0x1000d9aa: pop es ; push eax ; call dword [0x1001308C] ;  (1 found)
0x1000ee9e: pop es ; push eax ; call dword [0x1001308C] ;  (1 found)
0x100113c0: pop es ; push eax ; call dword [0x1001308C] ;  (1 found)
0x1001210a: pop es ; push eax ; call dword [0x1001308C] ;  (1 found)
0x10010d04: pop esi ; add esp, 0x0000009C ; ret  ;  (1 found)
0x10010d1d: pop esi ; add esp, 0x0000009C ; ret  ;  (1 found)
0x10010dc1: pop esi ; add esp, 0x0000009C ; ret  ;  (1 found)
0x1001189c: pop esi ; add esp, 0x00000100 ; ret  ;  (1 found)
0x10011916: pop esi ; add esp, 0x00000100 ; ret  ;  (1 found)
0x10011924: pop esi ; add esp, 0x00000100 ; ret  ;  (1 found)
0x10011a65: pop esi ; add esp, 0x00000104 ; ret  ;  (1 found)
0x100107b2: pop esi ; add esp, 0x00001004 ; ret  ;  (1 found)
0x10010799: pop esi ; add esp, 0x00001004 ; ret  ;  (1 found)
0x100014b8: pop esi ; add esp, 0x08 ; ret  ;  (1 found)
0x10010a46: pop esi ; add esp, 0x0C ; ret  ;  (1 found)
0x10010a60: pop esi ; add esp, 0x0C ; ret  ;  (1 found)
0x1000170b: pop esi ; add esp, 0x10 ; ret  ;  (1 found)
0x100015d1: pop esi ; add esp, 0x10 ; ret  ;  (1 found)
0x100016d9: pop esi ; add esp, 0x10 ; ret  ;  (1 found)
0x1000f255: pop esi ; add esp, 0x14 ; ret  ;  (1 found)
0x1000f36b: pop esi ; add esp, 0x14 ; ret  ;  (1 found)
0x1000f4b4: pop esi ; add esp, 0x14 ; ret  ;  (1 found)
0x1000f467: pop esi ; add esp, 0x14 ; ret  ;  (1 found)
0x10011969: pop esi ; add esp, 0x28 ; ret  ;  (1 found)
0x10011971: pop esi ; add esp, 0x28 ; ret  ;  (1 found)
0x1000faff: pop esi ; add esp, 0x3C ; ret  ;  (1 found)
0x1000b037: pop esi ; cmp byte [ecx-0x7D], dl ; ret  ;  (1 found)
0x10001baa: pop esi ; insb  ; call ebp ;  (1 found)
0x10010754: pop esi ; mov dword [edx], eax ; xor eax, eax ; add esp, 0x00001004 ; ret  ;  (1 found)
0x10010cd3: pop esi ; mov eax, 0x00000001 ; pop ebx ; add esp, 0x00000230 ; ret  ;  (1 found)
0x100106a7: pop esi ; mov eax, 0x00000001 ; pop ebx ; add esp, 0x00000800 ; ret  ;  (1 found)
0x1000605f: pop esi ; mov eax, 0x00000001 ; pop ebx ; ret  ;  (1 found)
0x10005fe4: pop esi ; mov eax, 0x00000001 ; pop ebx ; ret  ;  (1 found)
0x1000f161: pop esi ; mov eax, 0xFFFFFFF9 ; pop ebp ; ret  ;  (1 found)
0x10011cde: pop esi ; mov eax, 0xFFFFFFFE ; pop ebx ; add esp, 0x00001128 ; ret  ;  (1 found)
0x1000f19b: pop esi ; neg eax ; dec eax ; ret  ;  (1 found)
0x100108f3: pop esi ; or eax, 0xFFFFFFFF ; pop ebx ; add esp, 0x00001000 ; ret  ;  (1 found)
0x10011ff9: pop esi ; or eax, 0xFFFFFFFF ; pop ebx ; add esp, 0x00001128 ; ret  ;  (1 found)
0x1000d0bb: pop esi ; pop ebp ; add esp, 0x00000098 ; ret  ;  (1 found)
0x1000d279: pop esi ; pop ebp ; add esp, 0x00000098 ; ret  ;  (1 found)
0x1000d24a: pop esi ; pop ebp ; add esp, 0x00000098 ; ret  ;  (1 found)
0x1000d354: pop esi ; pop ebp ; add esp, 0x000000A8 ; ret  ;  (1 found)
0x1000d517: pop esi ; pop ebp ; add esp, 0x000000A8 ; ret  ;  (1 found)
0x1000d547: pop esi ; pop ebp ; add esp, 0x000000A8 ; ret  ;  (1 found)
0x1000e332: pop esi ; pop ebp ; add esp, 0x0000041C ; ret  ;  (1 found)
0x1000e3b8: pop esi ; pop ebp ; add esp, 0x0000041C ; ret  ;  (1 found)
0x1000e488: pop esi ; pop ebp ; add esp, 0x0000041C ; ret  ;  (1 found)
0x1000e439: pop esi ; pop ebp ; add esp, 0x0000041C ; ret  ;  (1 found)
0x1000b096: pop esi ; pop ebp ; add esp, 0x78 ; ret  ;  (1 found)
0x1000b0c2: pop esi ; pop ebp ; add esp, 0x78 ; ret  ;  (1 found)
0x10005eb5: pop esi ; pop ebp ; mov eax, 0x00000001 ; pop ebx ; ret  ;  (1 found)
0x1000b40e: pop esi ; pop ebp ; pop ebx ; add esp, 0x00000080 ; ret  ;  (1 found)
0x1000b3de: pop esi ; pop ebp ; pop ebx ; add esp, 0x00000080 ; ret  ;  (1 found)
0x1000b9e6: pop esi ; pop ebp ; pop ebx ; add esp, 0x00000080 ; ret  ;  (1 found)
0x1000ba16: pop esi ; pop ebp ; pop ebx ; add esp, 0x00000080 ; ret  ;  (1 found)
0x1000b607: pop esi ; pop ebp ; pop ebx ; add esp, 0x0000008C ; ret  ;  (1 found)
0x1000b5d7: pop esi ; pop ebp ; pop ebx ; add esp, 0x0000008C ; ret  ;  (1 found)
0x1000ad57: pop esi ; pop ebp ; pop ebx ; add esp, 0x0000008C ; ret  ;  (1 found)
0x1000ad87: pop esi ; pop ebp ; pop ebx ; add esp, 0x0000008C ; ret  ;  (1 found)
0x1000b7f6: pop esi ; pop ebp ; pop ebx ; add esp, 0x00000090 ; ret  ;  (1 found)
0x1000b826: pop esi ; pop ebp ; pop ebx ; add esp, 0x00000090 ; ret  ;  (1 found)
0x1000c93f: pop esi ; pop ebp ; pop ebx ; add esp, 0x00000090 ; ret  ;  (1 found)
0x1000c96f: pop esi ; pop ebp ; pop ebx ; add esp, 0x00000090 ; ret  ;  (1 found)
0x1000cb7f: pop esi ; pop ebp ; pop ebx ; add esp, 0x00000090 ; ret  ;  (1 found)
0x1000cb4f: pop esi ; pop ebp ; pop ebx ; add esp, 0x00000090 ; ret  ;  (1 found)
0x1000c589: pop esi ; pop ebp ; pop ebx ; add esp, 0x00000090 ; ret  ;  (1 found)
0x1000c5b9: pop esi ; pop ebp ; pop ebx ; add esp, 0x00000090 ; ret  ;  (1 found)
0x10005395: pop esi ; pop ebp ; pop ebx ; add esp, 0x00000094 ; ret  ;  (1 found)
0x10005bc5: pop esi ; pop ebp ; pop ebx ; add esp, 0x00000094 ; ret  ;  (1 found)
0x10005c8a: pop esi ; pop ebp ; pop ebx ; add esp, 0x00000094 ; ret  ;  (1 found)
0x1000cda1: pop esi ; pop ebp ; pop ebx ; add esp, 0x00000098 ; ret  ;  (1 found)
0x1000cd71: pop esi ; pop ebp ; pop ebx ; add esp, 0x00000098 ; ret  ;  (1 found)
0x1000c36d: pop esi ; pop ebp ; pop ebx ; add esp, 0x0000009C ; ret  ;  (1 found)
0x1000c39d: pop esi ; pop ebp ; pop ebx ; add esp, 0x0000009C ; ret  ;  (1 found)
0x1000cfe9: pop esi ; pop ebp ; pop ebx ; add esp, 0x000000A0 ; ret  ;  (1 found)
0x1000cfb9: pop esi ; pop ebp ; pop ebx ; add esp, 0x000000A0 ; ret  ;  (1 found)
0x1000c13b: pop esi ; pop ebp ; pop ebx ; add esp, 0x000000A8 ; ret  ;  (1 found)
0x1000c16b: pop esi ; pop ebp ; pop ebx ; add esp, 0x000000A8 ; ret  ;  (1 found)
0x1000bc5e: pop esi ; pop ebp ; pop ebx ; add esp, 0x000000AC ; ret  ;  (1 found)
0x1000bc2e: pop esi ; pop ebp ; pop ebx ; add esp, 0x000000AC ; ret  ;  (1 found)
0x1000beab: pop esi ; pop ebp ; pop ebx ; add esp, 0x000000AC ; ret  ;  (1 found)
0x1000bedb: pop esi ; pop ebp ; pop ebx ; add esp, 0x000000AC ; ret  ;  (1 found)
0x1000a27e: pop esi ; pop ebp ; pop ebx ; add esp, 0x000000B4 ; ret  ;  (1 found)
0x1000a2ae: pop esi ; pop ebp ; pop ebx ; add esp, 0x000000B4 ; ret  ;  (1 found)
0x1000a6e6: pop esi ; pop ebp ; pop ebx ; add esp, 0x000000B4 ; ret  ;  (1 found)
0x1000a716: pop esi ; pop ebp ; pop ebx ; add esp, 0x000000B4 ; ret  ;  (1 found)
0x1000d8d5: pop esi ; pop ebp ; pop ebx ; add esp, 0x000000C8 ; ret  ;  (1 found)
0x1000d905: pop esi ; pop ebp ; pop ebx ; add esp, 0x000000C8 ; ret  ;  (1 found)
0x1001167a: pop esi ; pop ebp ; pop ebx ; add esp, 0x00000100 ; ret  ;  (1 found)
0x10008057: pop esi ; pop ebp ; pop ebx ; add esp, 0x08 ; ret  ;  (1 found)
0x10009529: pop esi ; pop ebp ; pop ebx ; add esp, 0x08 ; ret  ;  (1 found)
0x100096cb: pop esi ; pop ebp ; pop ebx ; add esp, 0x08 ; ret  ;  (1 found)
0x100096ff: pop esi ; pop ebp ; pop ebx ; add esp, 0x08 ; ret  ;  (1 found)
0x10009ab8: pop esi ; pop ebp ; pop ebx ; add esp, 0x08 ; ret  ;  (1 found)
0x100081c6: pop esi ; pop ebp ; pop ebx ; add esp, 0x08 ; ret  ;  (1 found)
0x10009c5d: pop esi ; pop ebp ; pop ebx ; add esp, 0x08 ; ret  ;  (1 found)
0x10009c2a: pop esi ; pop ebp ; pop ebx ; add esp, 0x08 ; ret  ;  (1 found)
0x10006e8a: pop esi ; pop ebp ; pop ebx ; add esp, 0x10 ; ret  ;  (1 found)
0x1000dc75: pop esi ; pop ebp ; pop ebx ; add esp, 0x10 ; ret  ;  (1 found)
0x1000db84: pop esi ; pop ebp ; pop ebx ; add esp, 0x10 ; ret  ;  (1 found)
0x1000dbdc: pop esi ; pop ebp ; pop ebx ; add esp, 0x10 ; ret  ;  (1 found)
0x1000db37: pop esi ; pop ebp ; pop ebx ; add esp, 0x10 ; ret  ;  (1 found)
0x1000dc2b: pop esi ; pop ebp ; pop ebx ; add esp, 0x10 ; ret  ;  (1 found)
0x1000dd5c: pop esi ; pop ebp ; pop ebx ; add esp, 0x10 ; ret  ;  (1 found)
0x1000de2a: pop esi ; pop ebp ; pop ebx ; add esp, 0x10 ; ret  ;  (1 found)
0x1000de9d: pop esi ; pop ebp ; pop ebx ; add esp, 0x10 ; ret  ;  (1 found)
0x1000dcd6: pop esi ; pop ebp ; pop ebx ; add esp, 0x10 ; ret  ;  (1 found)
0x1000dfbe: pop esi ; pop ebp ; pop ebx ; add esp, 0x10 ; ret  ;  (1 found)
0x1000dff2: pop esi ; pop ebp ; pop ebx ; add esp, 0x10 ; ret  ;  (1 found)
0x1000e065: pop esi ; pop ebp ; pop ebx ; add esp, 0x10 ; ret  ;  (1 found)
0x10002c71: pop esi ; pop ebp ; pop ebx ; add esp, 0x18 ; ret  ;  (1 found)
0x10002ca5: pop esi ; pop ebp ; pop ebx ; add esp, 0x18 ; ret  ;  (1 found)
0x10004842: pop esi ; pop ebp ; pop ebx ; add esp, 0x18 ; ret  ;  (1 found)
0x10006b5d: pop esi ; pop ebp ; pop ebx ; add esp, 0x18 ; ret  ;  (1 found)
0x1000415f: pop esi ; pop ebp ; pop ebx ; add esp, 0x24 ; ret  ;  (1 found)
0x1000ecbf: pop esi ; pop ebp ; pop ebx ; add esp, 0x28 ; ret  ;  (1 found)
0x1000eb2d: pop esi ; pop ebp ; pop ebx ; add esp, 0x28 ; ret  ;  (1 found)
0x1000ecf2: pop esi ; pop ebp ; pop ebx ; add esp, 0x28 ; ret  ;  (1 found)
0x100023ea: pop esi ; pop ebp ; pop ebx ; add esp, 0x2C ; ret  ;  (1 found)
0x10002570: pop esi ; pop ebp ; pop ebx ; add esp, 0x2C ; ret  ;  (1 found)
0x100025a3: pop esi ; pop ebp ; pop ebx ; add esp, 0x2C ; ret  ;  (1 found)
0x10002f10: pop esi ; pop ebp ; pop ebx ; add esp, 0x38 ; ret  ;  (1 found)
0x1000317f: pop esi ; pop ebp ; pop ebx ; add esp, 0x38 ; ret  ;  (1 found)
0x100031b2: pop esi ; pop ebp ; pop ebx ; add esp, 0x38 ; ret  ;  (1 found)
0x1000f993: pop esi ; pop ebp ; pop ebx ; add esp, 0x40 ; ret  ;  (1 found)
0x10004230: pop esi ; pop ebp ; pop ebx ; add esp, 0x4C ; ret  ;  (1 found)
0x10004603: pop esi ; pop ebp ; pop ebx ; add esp, 0x4C ; ret  ;  (1 found)
0x1000503d: pop esi ; pop ebp ; pop ebx ; add esp, 0x78 ; ret  ;  (1 found)
0x1000491a: pop esi ; pop ebp ; pop ebx ; add esp, 0x78 ; ret  ;  (1 found)
0x1000ab42: pop esi ; pop ebp ; pop ebx ; add esp, 0x7C ; ret  ;  (1 found)
0x1000ab6f: pop esi ; pop ebp ; pop ebx ; add esp, 0x7C ; ret  ;  (1 found)
0x10002b09: pop esi ; pop ebp ; pop ebx ; pop ecx ; ret  ;  (1 found)
0x10002ad8: pop esi ; pop ebp ; pop ebx ; pop ecx ; ret  ;  (1 found)
0x10005145: pop esi ; pop ebp ; pop ebx ; pop ecx ; ret  ;  (1 found)
0x10004706: pop esi ; pop ebp ; pop ebx ; pop ecx ; ret  ;  (1 found)
0x10005263: pop esi ; pop ebp ; pop ebx ; pop ecx ; ret  ;  (1 found)
0x10007103: pop esi ; pop ebp ; pop ebx ; pop ecx ; ret  ;  (1 found)
0x100071cc: pop esi ; pop ebp ; pop ebx ; pop ecx ; ret  ;  (1 found)
0x100071fe: pop esi ; pop ebp ; pop ebx ; pop ecx ; ret  ;  (1 found)
0x100078f3: pop esi ; pop ebp ; pop ebx ; pop ecx ; ret  ;  (1 found)
0x100079cb: pop esi ; pop ebp ; pop ebx ; pop ecx ; ret  ;  (1 found)
0x100079fd: pop esi ; pop ebp ; pop ebx ; pop ecx ; ret  ;  (1 found)
0x10007aea: pop esi ; pop ebp ; pop ebx ; pop ecx ; ret  ;  (1 found)
0x10007beb: pop esi ; pop ebp ; pop ebx ; pop ecx ; ret  ;  (1 found)
0x10009052: pop esi ; pop ebp ; pop ebx ; pop ecx ; ret  ;  (1 found)
0x10009842: pop esi ; pop ebp ; pop ebx ; pop ecx ; ret  ;  (1 found)
0x10009964: pop esi ; pop ebp ; pop ebx ; pop ecx ; ret  ;  (1 found)
0x10009932: pop esi ; pop ebp ; pop ebx ; pop ecx ; ret  ;  (1 found)
0x10008285: pop esi ; pop ebp ; pop ebx ; pop ecx ; ret  ;  (1 found)
0x100083a8: pop esi ; pop ebp ; pop ebx ; pop ecx ; ret  ;  (1 found)
0x10008377: pop esi ; pop ebp ; pop ebx ; pop ecx ; ret  ;  (1 found)
0x10008465: pop esi ; pop ebp ; pop ebx ; pop ecx ; ret  ;  (1 found)
0x10008564: pop esi ; pop ebp ; pop ebx ; pop ecx ; ret  ;  (1 found)
0x10008655: pop esi ; pop ebp ; pop ebx ; pop ecx ; ret  ;  (1 found)
0x10008785: pop esi ; pop ebp ; pop ebx ; pop ecx ; ret  ;  (1 found)
0x10008595: pop esi ; pop ebp ; pop ebx ; pop ecx ; ret  ;  (1 found)
0x10008845: pop esi ; pop ebp ; pop ebx ; pop ecx ; ret  ;  (1 found)
0x10008754: pop esi ; pop ebp ; pop ebx ; pop ecx ; ret  ;  (1 found)
0x10008957: pop esi ; pop ebp ; pop ebx ; pop ecx ; ret  ;  (1 found)
0x10008926: pop esi ; pop ebp ; pop ebx ; pop ecx ; ret  ;  (1 found)
0x10008cb2: pop esi ; pop ebp ; pop ebx ; pop ecx ; ret  ;  (1 found)
0x10008c81: pop esi ; pop ebp ; pop ebx ; pop ecx ; ret  ;  (1 found)
0x10008ba3: pop esi ; pop ebp ; pop ebx ; pop ecx ; ret  ;  (1 found)
0x10008d73: pop esi ; pop ebp ; pop ebx ; pop ecx ; ret  ;  (1 found)
0x10008e82: pop esi ; pop ebp ; pop ebx ; pop ecx ; ret  ;  (1 found)
0x10008f43: pop esi ; pop ebp ; pop ebx ; pop ecx ; ret  ;  (1 found)
0x10008e51: pop esi ; pop ebp ; pop ebx ; pop ecx ; ret  ;  (1 found)
0x10009021: pop esi ; pop ebp ; pop ebx ; pop ecx ; ret  ;  (1 found)
0x10009ff3: pop esi ; pop ebp ; pop ebx ; pop ecx ; ret  ;  (1 found)
0x1000a025: pop esi ; pop ebp ; pop ebx ; pop ecx ; ret  ;  (1 found)
0x1000a374: pop esi ; pop ebp ; pop ebx ; pop ecx ; ret  ;  (1 found)
0x1000a4df: pop esi ; pop ebp ; pop ebx ; pop ecx ; ret  ;  (1 found)
0x1000a4ad: pop esi ; pop ebp ; pop ebx ; pop ecx ; ret  ;  (1 found)
0x1000a891: pop esi ; pop ebp ; pop ebx ; pop ecx ; ret  ;  (1 found)
0x1000a7d3: pop esi ; pop ebp ; pop ebx ; pop ecx ; ret  ;  (1 found)
0x1000a8c2: pop esi ; pop ebp ; pop ebx ; pop ecx ; ret  ;  (1 found)
0x100013a0: pop esi ; pop ebp ; pop ebx ; ret  ;  (1 found)
0x10001ee1: pop esi ; pop ebp ; pop ebx ; ret  ;  (1 found)
0x10001eae: pop esi ; pop ebp ; pop ebx ; ret  ;  (1 found)
0x10002970: pop esi ; pop ebp ; pop ebx ; ret  ;  (1 found)
0x100029a1: pop esi ; pop ebp ; pop ebx ; ret  ;  (1 found)
0x10002e05: pop esi ; pop ebp ; pop ebx ; ret  ;  (1 found)
0x10002dd4: pop esi ; pop ebp ; pop ebx ; ret  ;  (1 found)
0x1000362a: pop esi ; pop ebp ; pop ebx ; ret  ;  (1 found)
0x10003740: pop esi ; pop ebp ; pop ebx ; ret  ;  (1 found)
0x10003579: pop esi ; pop ebp ; pop ebx ; ret  ;  (1 found)
0x10003a7b: pop esi ; pop ebp ; pop ebx ; ret  ;  (1 found)
0x10003c7b: pop esi ; pop ebp ; pop ebx ; ret  ;  (1 found)
0x10005dd5: pop esi ; pop ebp ; pop ebx ; ret  ;  (1 found)
0x10005e16: pop esi ; pop ebp ; pop ebx ; ret  ;  (1 found)
0x10005e9d: pop esi ; pop ebp ; pop ebx ; ret  ;  (1 found)
0x10005f09: pop esi ; pop ebp ; pop ebx ; ret  ;  (1 found)
0x1000635d: pop esi ; pop ebp ; pop ebx ; ret  ;  (1 found)
0x100064b1: pop esi ; pop ebp ; pop ebx ; ret  ;  (1 found)
0x10006662: pop esi ; pop ebp ; pop ebx ; ret  ;  (1 found)
0x1000942e: pop esi ; pop ebp ; pop ebx ; ret  ;  (1 found)
0x10009318: pop esi ; pop ebp ; pop ebx ; ret  ;  (1 found)
0x100093fd: pop esi ; pop ebp ; pop ebx ; ret  ;  (1 found)
0x1000e237: pop esi ; pop ebp ; pop ebx ; ret  ;  (1 found)
0x1000f8c0: pop esi ; pop ebp ; pop ebx ; ret  ;  (1 found)
0x1001206f: pop esi ; pop ebp ; pop ebx ; ret  ;  (1 found)
0x1000e839: pop esi ; pop ebp ; pop ebx ; setne al ; ret  ;  (1 found)
0x1000ea13: pop esi ; pop ebp ; ret  ;  (1 found)
0x10003592: pop esi ; pop ebp ; xor eax, eax ; pop ebx ; ret  ;  (1 found)
0x1000c75d: pop esi ; pop ebx ; add esp, 0x00000080 ; ret  ;  (1 found)
0x1000c72e: pop esi ; pop ebx ; add esp, 0x00000080 ; ret  ;  (1 found)
0x10011778: pop esi ; pop ebx ; add esp, 0x00000100 ; ret  ;  (1 found)
0x100117f6: pop esi ; pop ebx ; add esp, 0x00000100 ; ret  ;  (1 found)
0x10010c88: pop esi ; pop ebx ; add esp, 0x00000230 ; ret  ;  (1 found)
0x10010be8: pop esi ; pop ebx ; add esp, 0x00000230 ; ret  ;  (1 found)
0x1000fbda: pop esi ; pop ebx ; add esp, 0x00000918 ; ret  ;  (1 found)
0x1000fd83: pop esi ; pop ebx ; add esp, 0x00000918 ; ret  ;  (1 found)
0x1000fddc: pop esi ; pop ebx ; add esp, 0x00000918 ; ret  ;  (1 found)
0x1000fe3b: pop esi ; pop ebx ; add esp, 0x00000918 ; ret  ;  (1 found)
0x1000fe76: pop esi ; pop ebx ; add esp, 0x00000918 ; ret  ;  (1 found)
0x10010902: pop esi ; pop ebx ; add esp, 0x00001000 ; ret  ;  (1 found)
0x10007c6f: pop esi ; pop ebx ; add esp, 0x08 ; ret  ;  (1 found)
0x10007de3: pop esi ; pop ebx ; add esp, 0x08 ; ret  ;  (1 found)
0x10007e16: pop esi ; pop ebx ; add esp, 0x08 ; ret  ;  (1 found)
0x100089f7: pop esi ; pop ebx ; add esp, 0x08 ; ret  ;  (1 found)
0x10008ab4: pop esi ; pop ebx ; add esp, 0x08 ; ret  ;  (1 found)
0x10008ae7: pop esi ; pop ebx ; add esp, 0x08 ; ret  ;  (1 found)
0x1000283c: pop esi ; pop ebx ; add esp, 0x10 ; ret  ;  (1 found)
0x10002809: pop esi ; pop ebx ; add esp, 0x10 ; ret  ;  (1 found)
0x1000277a: pop esi ; pop ebx ; add esp, 0x10 ; ret  ;  (1 found)
0x10002747: pop esi ; pop ebx ; add esp, 0x10 ; ret  ;  (1 found)
0x10007f98: pop esi ; pop ebx ; add esp, 0x10 ; ret  ;  (1 found)
0x1000fa3e: pop esi ; pop ebx ; add esp, 0x54 ; ret  ;  (1 found)
0x1000af22: pop esi ; pop ebx ; add esp, 0x78 ; ret  ;  (1 found)
0x1000aef6: pop esi ; pop ebx ; add esp, 0x78 ; ret  ;  (1 found)
0x1000b222: pop esi ; pop ebx ; add esp, 0x78 ; ret  ;  (1 found)
0x1000b24e: pop esi ; pop ebx ; add esp, 0x78 ; ret  ;  (1 found)
0x10011373: pop esi ; pop ebx ; mov esp, ebp ; pop ebp ; ret  ;  (1 found)
0x100113dc: pop esi ; pop ebx ; mov esp, ebp ; pop ebp ; ret  ;  (1 found)
0x10010b71: pop esi ; pop ebx ; mov esp, ebp ; pop ebp ; ret  ;  (1 found)
0x100114d2: pop esi ; pop ebx ; mov esp, ebp ; pop ebp ; retn 0x0004 ;  (1 found)
0x10010c40: pop esi ; pop ebx ; neg eax ; add esp, 0x00000230 ; ret  ;  (1 found)
0x10012418: pop esi ; pop ebx ; pop ebp ; retn 0x000C ;  (1 found)
0x1000728f: pop esi ; pop ebx ; pop ecx ; ret  ;  (1 found)
0x10007362: pop esi ; pop ebx ; pop ecx ; ret  ;  (1 found)
0x1000741f: pop esi ; pop ebx ; pop ecx ; ret  ;  (1 found)
0x10007394: pop esi ; pop ebx ; pop ecx ; ret  ;  (1 found)
0x100074e1: pop esi ; pop ebx ; pop ecx ; ret  ;  (1 found)
0x1000759f: pop esi ; pop ebx ; pop ecx ; ret  ;  (1 found)
0x1000772f: pop esi ; pop ebx ; pop ecx ; ret  ;  (1 found)
0x100076a3: pop esi ; pop ebx ; pop ecx ; ret  ;  (1 found)
0x10007671: pop esi ; pop ebx ; pop ecx ; ret  ;  (1 found)
0x10007512: pop esi ; pop ebx ; pop ecx ; ret  ;  (1 found)
0x10007806: pop esi ; pop ebx ; pop ecx ; ret  ;  (1 found)
0x10007837: pop esi ; pop ebx ; pop ecx ; ret  ;  (1 found)
0x10009200: pop esi ; pop ebx ; pop ecx ; ret  ;  (1 found)
0x10009231: pop esi ; pop ebx ; pop ecx ; ret  ;  (1 found)
0x10009113: pop esi ; pop ebx ; pop ecx ; ret  ;  (1 found)
0x1000ef8e: pop esi ; pop ebx ; pop ecx ; ret  ;  (1 found)
0x1000208d: pop esi ; pop ebx ; ret  ;  (1 found)
0x100020c1: pop esi ; pop ebx ; ret  ;  (1 found)
0x10005f71: pop esi ; pop ebx ; ret  ;  (1 found)
0x10006042: pop esi ; pop ebx ; ret  ;  (1 found)
0x10006154: pop esi ; pop ebx ; ret  ;  (1 found)
0x100060b7: pop esi ; pop ebx ; ret  ;  (1 found)
0x100061ef: pop esi ; pop ebx ; ret  ;  (1 found)
0x100067dd: pop esi ; pop ebx ; ret  ;  (1 found)
0x10006fd9: pop esi ; pop ebx ; ret  ;  (1 found)
0x10007042: pop esi ; pop ebx ; ret  ;  (1 found)
0x10006f6e: pop esi ; pop ebx ; ret  ;  (1 found)
0x1000a9ff: pop esi ; pop ebx ; ret  ;  (1 found)
0x1000e898: pop esi ; pop ebx ; ret  ;  (1 found)
0x1000e8df: pop esi ; pop ebx ; ret  ;  (1 found)
0x1000e91b: pop esi ; pop ebx ; ret  ;  (1 found)
0x1000e156: pop esi ; pop ebx ; ret  ;  (1 found)
0x1000ee69: pop esi ; pop ebx ; ret  ;  (1 found)
0x100115c8: pop esi ; pop ebx ; ret  ;  (1 found)
0x10010433: pop esi ; pop ebx ; ret  ;  (1 found)
0x100107ef: pop esi ; pop ebx ; ret  ;  (1 found)
0x100107f5: pop esi ; pop ebx ; ret  ;  (1 found)
0x10012293: pop esi ; pop ebx ; retn 0x0010 ;  (1 found)
0x10001fd6: pop esi ; pop ecx ; ret  ;  (1 found)
0x10010027: pop esi ; pop ecx ; ret  ;  (1 found)
0x1001030e: pop esi ; pop ecx ; ret  ;  (1 found)
0x100101e0: pop esi ; pop ecx ; ret  ;  (1 found)
0x10011af1: pop esi ; pop edi ; add esp, 0x00000104 ; ret  ;  (1 found)
0x10012225: pop esi ; pop edi ; retn 0x0010 ;  (1 found)
0x1001237a: pop esi ; push 0x00000001 ; pop eax ; retn 0x000C ;  (1 found)
0x10001082: pop esi ; ret  ;  (1 found)
0x100011a8: pop esi ; ret  ;  (1 found)
0x100011f7: pop esi ; ret  ;  (1 found)
0x1000123f: pop esi ; ret  ;  (1 found)
0x100010af: pop esi ; ret  ;  (1 found)
0x1000144b: pop esi ; ret  ;  (1 found)
0x10001413: pop esi ; ret  ;  (1 found)
0x10001556: pop esi ; ret  ;  (1 found)
0x100018be: pop esi ; ret  ;  (1 found)
0x10001892: pop esi ; ret  ;  (1 found)
0x100017b8: pop esi ; ret  ;  (1 found)
0x10001801: pop esi ; ret  ;  (1 found)
0x10002168: pop esi ; ret  ;  (1 found)
0x100021d2: pop esi ; ret  ;  (1 found)
0x10002238: pop esi ; ret  ;  (1 found)
0x10002293: pop esi ; ret  ;  (1 found)
0x100037ee: pop esi ; ret  ;  (1 found)
0x1000385e: pop esi ; ret  ;  (1 found)
0x1000393a: pop esi ; ret  ;  (1 found)
0x10005d2d: pop esi ; ret  ;  (1 found)
0x10005ce7: pop esi ; ret  ;  (1 found)
0x100068d3: pop esi ; ret  ;  (1 found)
0x100069b2: pop esi ; ret  ;  (1 found)
0x1000e4d8: pop esi ; ret  ;  (1 found)
0x1000e55a: pop esi ; ret  ;  (1 found)
0x1000e4fa: pop esi ; ret  ;  (1 found)
0x1000d9fb: pop esi ; ret  ;  (1 found)
0x1000da99: pop esi ; ret  ;  (1 found)
0x1000da51: pop esi ; ret  ;  (1 found)
0x1000eeff: pop esi ; ret  ;  (1 found)
0x1000f04b: pop esi ; ret  ;  (1 found)
0x1000f050: pop esi ; ret  ;  (1 found)
0x1000f506: pop esi ; ret  ;  (1 found)
0x1000f539: pop esi ; ret  ;  (1 found)
0x1000f5b4: pop esi ; ret  ;  (1 found)
0x1000f717: pop esi ; ret  ;  (1 found)
0x100113fc: pop esi ; ret  ;  (1 found)
0x10011418: pop esi ; ret  ;  (1 found)
0x10011552: pop esi ; ret  ;  (1 found)
0x10011557: pop esi ; ret  ;  (1 found)
0x1000ff3d: pop esi ; ret  ;  (1 found)
0x1000ffa8: pop esi ; ret  ;  (1 found)
0x10010095: pop esi ; ret  ;  (1 found)
0x10010350: pop esi ; ret  ;  (1 found)
0x1001037d: pop esi ; ret  ;  (1 found)
0x10010398: pop esi ; ret  ;  (1 found)
0x1001038c: pop esi ; ret  ;  (1 found)
0x1001048a: pop esi ; ret  ;  (1 found)
0x100105f2: pop esi ; ret  ;  (1 found)
0x1001062c: pop esi ; ret  ;  (1 found)
0x10010621: pop esi ; ret  ;  (1 found)
0x10010705: pop esi ; ret  ;  (1 found)
0x10010949: pop esi ; ret  ;  (1 found)
0x100109b2: pop esi ; ret  ;  (1 found)
0x100109d4: pop esi ; ret  ;  (1 found)
0x100120f2: pop esi ; ret  ;  (1 found)
0x100120b2: pop esi ; ret  ;  (1 found)
0x10011b4a: pop esi ; ret  ;  (1 found)
0x10011b42: pop esi ; ret  ;  (1 found)
0x10010152: pop esi ; retn 0x000C ;  (1 found)
0x10005fb5: pop esi ; xor al, 0x83 ; retn 0x2B26 ;  (1 found)
0x1000ea40: pop esi ; xor eax, eax ; pop ebp ; ret  ;  (1 found)
0x100106bd: pop esi ; xor eax, eax ; pop ebx ; add esp, 0x00000800 ; ret  ;  (1 found)
0x10012018: pop esi ; xor eax, eax ; pop ebx ; add esp, 0x00001128 ; ret  ;  (1 found)
0x10003035: pop esp ; add eax, dword [0x3D8BA4F3] ; sub al, 0x31 ; add dword [eax], edx ; call edi ;  (1 found)
0x1000b2ff: pop esp ; and al, 0x18 ; call dword [0x10013134] ;  (1 found)
0x1000c494: pop esp ; and al, 0x4C ; call edi ;  (1 found)
0x1000bfd4: pop esp ; and al, 0x4C ; call esi ;  (1 found)
0x1000bff6: pop esp ; and al, 0x54 ; mov dword [esp+0x58], ebp ; call esi ;  (1 found)
0x1000cebe: pop esp ; and al, 0x58 ; mov dword [esp+0x5C], ebp ; call edi ;  (1 found)
0x1000c042: pop esp ; and al, 0x5C ; mov dword [esp+0x60], ebp ; call esi ;  (1 found)
0x1000c01b: pop esp ; and al, 0x68 ; mov dword [esp+0x6C], ebp ; push edx ; call esi ;  (1 found)
0x1000529d: pop esp ; call ebx ;  (1 found)
0x1000cec4: pop esp ; call edi ;  (1 found)
0x1000c044: pop esp ; mov dword [esp+0x60], ebp ; call esi ;  (1 found)
0x1000c288: pop esp ; mov dword [esp+0x60], edx ; call dword [0x10013134] ;  (1 found)
0x1000bb31: pop esp ; mov eax, dword [eax+0x0C] ; mov dword [esp+0x60], eax ; call dword [0x1001312C] ;  (1 found)
0x1000a15a: pop esp ; mov eax, dword [eax+0x0C] ; mov dword [esp+0x60], eax ; call edi ;  (1 found)
0x10006afd: pop esp ; push 0x00000000 ; push 0x00000001 ; push eax ; call dword [0x10013094] ;  (1 found)
0x1000381b: pop esp ; push 0xFFFFFFFF ; push ecx ; call dword [0x10013090] ;  (1 found)
0x10006ad1: pop esp ; push 0xFFFFFFFF ; push ecx ; call dword [0x10013090] ;  (1 found)
0x10011939: pop esp ; xor byte [ecx], al ; adc byte [eax+0x57], dl ; push 0x00000410 ; call dword [0x10013058] ;  (1 found)
0x10010e64: pop esp ; xor byte [ecx], al ; adc byte [ebx+0x016A55E8], cl ; push 0x001F0FFF ; call dword [0x10013058] ;  (1 found)
0x10011fd1: pop ss ; push edx ; push eax ; push esi ; call dword [0x10013154] ;  (1 found)
0x100012e4: punpckhdq mm0, qword [eax] ; push 0x00000001 ; mov edx, dword [ecx+0x000005D4] ; push edx ; call dword [0x10013094] ;  (1 found)
0x1000128e: punpckhdq mm7, mm7 ; mov edx, dword [ecx+0x000005D4] ; push edx ; call dword [0x10013090] ;  (1 found)
0x10011527: push 0x00000000 ; call dword [0x10013068] ;  (1 found)
0x10001f1a: push 0x00000000 ; call dword [0x10013088] ;  (1 found)
0x1000deaa: push 0x00000000 ; call dword [0x10013088] ;  (1 found)
0x100119db: push 0x00000000 ; call dword [0x1001311C] ;  (1 found)
0x10010964: push 0x00000000 ; call dword [0x1001311C] ;  (1 found)
0x1000f2ba: push 0x00000000 ; call dword [0x10013164] ;  (1 found)
0x1001208f: push 0x00000000 ; mov dword [esi+0x08], 0x1000EED0 ; mov dword [esi+0x34], eax ; call dword [0x10013088] ;  (1 found)
0x10006566: push 0x00000000 ; mov ecx, dword [eax+0x00000084] ; push ecx ; call dword [0x10013128] ;  (1 found)
0x1001208d: push 0x00000000 ; push 0x00000000 ; mov dword [esi+0x08], 0x1000EED0 ; mov dword [esi+0x34], eax ; call dword [0x10013088] ;  (1 found)
0x10011ba2: push 0x00000000 ; push 0x00000000 ; push 0x00008003 ; push edx ; call dword [0x10013004] ;  (1 found)
0x100119d2: push 0x00000000 ; push 0x00000000 ; push 0x00008023 ; push 0x00000000 ; call dword [0x1001311C] ;  (1 found)
0x1001095b: push 0x00000000 ; push 0x00000000 ; push 0x00008023 ; push 0x00000000 ; call dword [0x1001311C] ;  (1 found)
0x10011b7e: push 0x00000000 ; push 0x00000000 ; push eax ; call dword [0x10013000] ;  (1 found)
0x100012e5: push 0x00000000 ; push 0x00000001 ; mov edx, dword [ecx+0x000005D4] ; push edx ; call dword [0x10013094] ;  (1 found)
0x10011c26: push 0x00000000 ; push 0x00000001 ; push 0x00000000 ; push eax ; call dword [0x10013010] ;  (1 found)
0x10001f14: push 0x00000000 ; push 0x00000001 ; push 0x00000001 ; push 0x00000000 ; call dword [0x10013088] ;  (1 found)
0x1000dea4: push 0x00000000 ; push 0x00000001 ; push 0x00000001 ; push 0x00000000 ; call dword [0x10013088] ;  (1 found)
0x10011ed6: push 0x00000000 ; push 0x00000001 ; push 0x00000002 ; call dword [0x10013168] ;  (1 found)
0x100011c7: push 0x00000000 ; push 0x00000001 ; push eax ; call dword [0x10013094] ;  (1 found)
0x10006afe: push 0x00000000 ; push 0x00000001 ; push eax ; call dword [0x10013094] ;  (1 found)
0x10006dd7: push 0x00000000 ; push 0x00000001 ; push eax ; call dword [0x10013094] ;  (1 found)
0x1000f246: push 0x00000000 ; push 0x00000001 ; push eax ; call dword [0x10013094] ;  (1 found)
0x1000f35c: push 0x00000000 ; push 0x00000001 ; push eax ; call dword [0x10013094] ;  (1 found)
0x10003900: push 0x00000000 ; push 0x00000001 ; push eax ; call edi ;  (1 found)
0x100068a6: push 0x00000000 ; push 0x00000001 ; push eax ; call edi ;  (1 found)
0x10006e44: push 0x00000000 ; push 0x00000001 ; push eax ; call edi ;  (1 found)
0x10003707: push 0x00000000 ; push 0x00000001 ; push eax ; mov dword [ebp+0x000003A4], ebx ; call dword [0x10013094] ;  (1 found)
0x10006d40: push 0x00000000 ; push 0x00000001 ; push eax ; mov dword [esi+0x000003A8], 0x00000000 ; call dword [0x10013094] ;  (1 found)
0x10003a3a: push 0x00000000 ; push 0x00000001 ; push eax ; mov dword [esi+0x40], 0x00000000 ; call edi ;  (1 found)
0x1000eef3: push 0x00000000 ; push 0x00000001 ; push ecx ; call dword [0x10013094] ;  (1 found)
0x1000f458: push 0x00000000 ; push 0x00000001 ; push ecx ; call dword [0x10013094] ;  (1 found)
0x10003a4e: push 0x00000000 ; push 0x00000001 ; push ecx ; call edi ;  (1 found)
0x1000390d: push 0x00000000 ; push 0x00000001 ; push ecx ; call edi ;  (1 found)
0x10006e51: push 0x00000000 ; push 0x00000001 ; push ecx ; call edi ;  (1 found)
0x1000119d: push 0x00000000 ; push 0x00000001 ; push edx ; call dword [0x10013094] ;  (1 found)
0x1000169d: push 0x00000000 ; push 0x00000001 ; push edx ; call dword [0x10013094] ;  (1 found)
0x10001789: push 0x00000000 ; push 0x00000001 ; push edx ; call dword [0x10013094] ;  (1 found)
0x10003b22: push 0x00000000 ; push 0x00000001 ; push edx ; call dword [0x10013094] ;  (1 found)
0x1000d9cb: push 0x00000000 ; push 0x00000001 ; push edx ; call dword [0x10013094] ;  (1 found)
0x1000e127: push 0x00000000 ; push 0x00000001 ; push edx ; call dword [0x10013094] ;  (1 found)
0x1000e205: push 0x00000000 ; push 0x00000001 ; push edx ; call dword [0x10013094] ;  (1 found)
0x10006986: push 0x00000000 ; push 0x00000001 ; push edx ; call edi ;  (1 found)
0x1000ee32: push 0x00000000 ; push 0x00000001 ; push edx ; mov dword [edi+0x000006E0], 0x00000000 ; call dword [0x10013094] ;  (1 found)
0x10003828: push 0x00000000 ; push 0x00000001 ; push edx ; mov dword [esi+0x60], 0x00000001 ; call dword [0x10013094] ;  (1 found)
0x10011ba4: push 0x00000000 ; push 0x00008003 ; push edx ; call dword [0x10013004] ;  (1 found)
0x100119d4: push 0x00000000 ; push 0x00008023 ; push 0x00000000 ; call dword [0x1001311C] ;  (1 found)
0x1001095d: push 0x00000000 ; push 0x00008023 ; push 0x00000000 ; call dword [0x1001311C] ;  (1 found)
0x10010360: push 0x00000000 ; push 0x0000FDE9 ; call dword [0x10013038] ;  (1 found)
0x10010604: push 0x00000000 ; push 0x0000FDE9 ; call dword [0x1001303C] ;  (1 found)
0x100106ec: push 0x00000000 ; push 0x0000FDE9 ; call dword [0x1001303C] ;  (1 found)
0x10011b80: push 0x00000000 ; push eax ; call dword [0x10013000] ;  (1 found)
0x10011c2a: push 0x00000000 ; push eax ; call dword [0x10013010] ;  (1 found)
0x1000670b: push 0x00000000 ; push eax ; call dword [0x10013128] ;  (1 found)
0x10011bce: push 0x00000000 ; push eax ; push ecx ; push edx ; call dword [0x10013008] ;  (1 found)
0x10006a2b: push 0x00000000 ; push ebx ; push ebp ; call dword [ebx+0x08] ;  (1 found)
0x10011bf6: push 0x00000000 ; push ecx ; push 0x00006801 ; push edx ; call dword [0x1001300C] ;  (1 found)
0x1000efdf: push 0x00000000 ; push edi ; push edx ; push esi ; call dword [0x10013158] ;  (1 found)
0x10011a9c: push 0x00000000 ; stosb  ; call dword [0x1001306C] ;  (1 found)
0x10003b98: push 0x00000001 ; call dword [0x1001312C] ;  (1 found)
0x10005646: push 0x00000001 ; call dword [0x10013134] ;  (1 found)
0x10003e79: push 0x00000001 ; call ebp ;  (1 found)
0x1000b8a7: push 0x00000001 ; lea ebx, dword [eax+ecx] ; call edi ;  (1 found)
0x100052a0: push 0x00000001 ; mov dword [esp+0x00000080], eax ; call ebx ;  (1 found)
0x10011f98: push 0x00000001 ; mov dword [esp+0x48], esi ; mov dword [esp+0x44], 0x00000001 ; call dword [0x10013160] ;  (1 found)
0x1000528d: push 0x00000001 ; mov dword [esp+0x74], eax ; call ebx ;  (1 found)
0x100012e7: push 0x00000001 ; mov edx, dword [ecx+0x000005D4] ; push edx ; call dword [0x10013094] ;  (1 found)
0x1001237b: push 0x00000001 ; pop eax ; retn 0x000C ;  (1 found)
0x1001243e: push 0x00000001 ; pop eax ; retn 0x000C ;  (1 found)
0x10001f18: push 0x00000001 ; push 0x00000000 ; call dword [0x10013088] ;  (1 found)
0x1000dea8: push 0x00000001 ; push 0x00000000 ; call dword [0x10013088] ;  (1 found)
0x10011b7c: push 0x00000001 ; push 0x00000000 ; push 0x00000000 ; push eax ; call dword [0x10013000] ;  (1 found)
0x10011b7b: push 0x00000001 ; push 0x00000000 ; push 0x00000000 ; push eax ; call dword [0x10013000] ;  (1 found)
0x10011c28: push 0x00000001 ; push 0x00000000 ; push eax ; call dword [0x10013010] ;  (1 found)
0x10001f16: push 0x00000001 ; push 0x00000001 ; push 0x00000000 ; call dword [0x10013088] ;  (1 found)
0x1000dea6: push 0x00000001 ; push 0x00000001 ; push 0x00000000 ; call dword [0x10013088] ;  (1 found)
0x10001b2a: push 0x00000001 ; push 0x00000001 ; push ebx ; call ebp ;  (1 found)
0x10001cad: push 0x00000001 ; push 0x00000001 ; push ebx ; call ebp ;  (1 found)
0x10006eef: push 0x00000001 ; push 0x00000001 ; push ebx ; call edi ;  (1 found)
0x10001be8: push 0x00000001 ; push 0x00000001 ; push ebx ; mov dword [ecx+0x000005CC], eax ; call ebp ;  (1 found)
0x10006ef7: push 0x00000001 ; push 0x00000001 ; push ebx ; mov dword [esi+0x000005D0], eax ; call edi ;  (1 found)
0x10001ba4: push 0x00000001 ; push 0x00000001 ; push ebx ; mov dword [esi+0x6C], ebx ; call ebp ;  (1 found)
0x1000f59a: push 0x00000001 ; push 0x00000001 ; push edi ; call dword [0x10013088] ;  (1 found)
0x10011ed8: push 0x00000001 ; push 0x00000002 ; call dword [0x10013168] ;  (1 found)
0x1000f1ec: push 0x00000001 ; push 0x00000002 ; mov dword [esi+0x3C], ecx ; call dword [0x10013168] ;  (1 found)
0x1000f37d: push 0x00000001 ; push 0x00000006 ; push edx ; call dword [0x1001315C] ;  (1 found)
0x10011280: push 0x00000001 ; push 0x001F0FFF ; call dword [0x10013058] ;  (1 found)
0x10010e6b: push 0x00000001 ; push 0x001F0FFF ; call dword [0x10013058] ;  (1 found)
0x100011c9: push 0x00000001 ; push eax ; call dword [0x10013094] ;  (1 found)
0x10001d07: push 0x00000001 ; push eax ; call dword [0x10013094] ;  (1 found)
0x10006b00: push 0x00000001 ; push eax ; call dword [0x10013094] ;  (1 found)
0x10006dd9: push 0x00000001 ; push eax ; call dword [0x10013094] ;  (1 found)
0x1000f248: push 0x00000001 ; push eax ; call dword [0x10013094] ;  (1 found)
0x1000f35e: push 0x00000001 ; push eax ; call dword [0x10013094] ;  (1 found)
0x10003902: push 0x00000001 ; push eax ; call edi ;  (1 found)
0x100068a8: push 0x00000001 ; push eax ; call edi ;  (1 found)
0x10006e46: push 0x00000001 ; push eax ; call edi ;  (1 found)
0x10003709: push 0x00000001 ; push eax ; mov dword [ebp+0x000003A4], ebx ; call dword [0x10013094] ;  (1 found)
0x10006d42: push 0x00000001 ; push eax ; mov dword [esi+0x000003A8], 0x00000000 ; call dword [0x10013094] ;  (1 found)
0x1000da68: push 0x00000001 ; push eax ; mov dword [esi+0x2C], ecx ; call dword [0x10013094] ;  (1 found)
0x1000f480: push 0x00000001 ; push eax ; mov dword [esi+0x3C], edx ; call dword [0x10013094] ;  (1 found)
0x10003a3c: push 0x00000001 ; push eax ; mov dword [esi+0x40], 0x00000000 ; call edi ;  (1 found)
0x10001b2c: push 0x00000001 ; push ebx ; call ebp ;  (1 found)
0x10001caf: push 0x00000001 ; push ebx ; call ebp ;  (1 found)
0x10006ef1: push 0x00000001 ; push ebx ; call edi ;  (1 found)
0x10001bea: push 0x00000001 ; push ebx ; mov dword [ecx+0x000005CC], eax ; call ebp ;  (1 found)
0x10006ef9: push 0x00000001 ; push ebx ; mov dword [esi+0x000005D0], eax ; call edi ;  (1 found)
0x10001ba6: push 0x00000001 ; push ebx ; mov dword [esi+0x6C], ebx ; call ebp ;  (1 found)
0x1000fc12: push 0x00000001 ; push ebx ; push 0x1001EBF0 ; push 0x80000002 ; call esi ;  (1 found)
0x1000fb8c: push 0x00000001 ; push ebx ; push 0x1001EC84 ; push 0x80000002 ; call esi ;  (1 found)
0x1000eef5: push 0x00000001 ; push ecx ; call dword [0x10013094] ;  (1 found)
0x1000f45a: push 0x00000001 ; push ecx ; call dword [0x10013094] ;  (1 found)
0x10003a50: push 0x00000001 ; push ecx ; call edi ;  (1 found)
0x1000390f: push 0x00000001 ; push ecx ; call edi ;  (1 found)
0x10006e53: push 0x00000001 ; push ecx ; call edi ;  (1 found)
0x1000e1f3: push 0x00000001 ; push ecx ; mov dword [edi+0x2C], esi ; call dword [0x10013094] ;  (1 found)
0x1000f59c: push 0x00000001 ; push edi ; call dword [0x10013088] ;  (1 found)
0x1000119f: push 0x00000001 ; push edx ; call dword [0x10013094] ;  (1 found)
0x1000169f: push 0x00000001 ; push edx ; call dword [0x10013094] ;  (1 found)
0x1000178b: push 0x00000001 ; push edx ; call dword [0x10013094] ;  (1 found)
0x10003b24: push 0x00000001 ; push edx ; call dword [0x10013094] ;  (1 found)
0x1000d9cd: push 0x00000001 ; push edx ; call dword [0x10013094] ;  (1 found)
0x1000e129: push 0x00000001 ; push edx ; call dword [0x10013094] ;  (1 found)
0x1000e207: push 0x00000001 ; push edx ; call dword [0x10013094] ;  (1 found)
0x10006988: push 0x00000001 ; push edx ; call edi ;  (1 found)
0x1000ee34: push 0x00000001 ; push edx ; mov dword [edi+0x000006E0], 0x00000000 ; call dword [0x10013094] ;  (1 found)
0x1000382a: push 0x00000001 ; push edx ; mov dword [esi+0x60], 0x00000001 ; call dword [0x10013094] ;  (1 found)
0x1000c43b: push 0x00000002 ; call dword [0x1001312C] ;  (1 found)
0x1000565a: push 0x00000002 ; call dword [0x10013134] ;  (1 found)
0x10011eda: push 0x00000002 ; call dword [0x10013168] ;  (1 found)
0x10003e89: push 0x00000002 ; call ebp ;  (1 found)
0x10003297: push 0x00000002 ; lea eax, dword [esp+0x00000220] ; push 0x1001ACA4 ; push eax ; call esi ;  (1 found)
0x1000f1ee: push 0x00000002 ; mov dword [esi+0x3C], ecx ; call dword [0x10013168] ;  (1 found)
0x1000f321: push 0x00000002 ; push edi ; call dword [0x1001313C] ;  (1 found)
0x1000f41e: push 0x00000002 ; push edi ; call dword [0x1001313C] ;  (1 found)
0x1000ed64: push 0x00000002 ; push esi ; call dword [0x1001313C] ;  (1 found)
0x10012005: push 0x00000002 ; push esi ; call dword [0x1001313C] ;  (1 found)
0x10011fe8: push 0x00000002 ; push esi ; call dword [0x1001313C] ;  (1 found)
0x1000d0cc: push 0x00000003 ; call dword [0x1001312C] ;  (1 found)
0x100052ab: push 0x00000003 ; mov dword [esp+0x70], eax ; call ebx ;  (1 found)
0x10003081: push 0x00000003 ; mov edi, eax ; call dword [0x1001312C] ;  (1 found)
0x10003a0e: push 0x00000003 ; push eax ; push esi ; call ecx ;  (1 found)
0x100039d2: push 0x00000003 ; push ebx ; push esi ; call eax ;  (1 found)
0x1000d365: push 0x00000004 ; call dword [0x1001312C] ;  (1 found)
0x10003011: push 0x00000004 ; mov dword [ebp+0x20], eax ; call edi ;  (1 found)
0x10011f0c: push 0x00000004 ; push 0x0000FFFF ; push esi ; call dword [0x1001315C] ;  (1 found)
0x10011479: push 0x00000004 ; push eax ; push 0x406D1388 ; call dword [0x10013060] ;  (1 found)
0x1000cc11: push 0x00000005 ; call dword [0x1001312C] ;  (1 found)
0x100120ad: push 0x00000005 ; pop esi ; ret  ;  (1 found)
0x1000ac01: push 0x00000006 ; call dword [0x1001312C] ;  (1 found)
0x1000ac74: push 0x00000006 ; call ebx ;  (1 found)
0x10010f69: push 0x00000006 ; push ebx ; push ebp ; push eax ; call edi ;  (1 found)
0x1000f37f: push 0x00000006 ; push edx ; call dword [0x1001315C] ;  (1 found)
0x1000c7fe: push 0x00000007 ; call dword [0x1001312C] ;  (1 found)
0x1000b4a2: push 0x00000008 ; call dword [0x1001312C] ;  (1 found)
0x1000ca0e: push 0x00000009 ; call dword [0x1001312C] ;  (1 found)
0x1000baab: push 0x0000000A ; call dword [0x1001312C] ;  (1 found)
0x10001a22: push 0x0000000A ; lea ecx, dword [esi+0x01] ; push eax ; push ecx ; call dword [0x1001310C] ;  (1 found)
0x10001bdc: push 0x0000000A ; push 0x0000000A ; push ebx ; call ebp ;  (1 found)
0x10001bde: push 0x0000000A ; push ebx ; call ebp ;  (1 found)
0x10005280: push 0x0000000C ; call ebx ;  (1 found)
0x1000b6a7: push 0x0000000C ; call ebx ;  (1 found)
0x10011569: push 0x0000000C ; call esi ;  (1 found)
0x1000bd01: push 0x0000000D ; call dword [0x1001312C] ;  (1 found)
0x1000c20b: push 0x0000000E ; call dword [0x1001312C] ;  (1 found)
0x1000bf7b: push 0x0000000F ; call dword [0x1001312C] ;  (1 found)
0x1000ce31: push 0x00000010 ; call dword [0x1001312C] ;  (1 found)
0x10011f3f: push 0x00000010 ; push ecx ; push esi ; mov word [esp+0x2E], ax ; call dword [0x10013150] ;  (1 found)
0x1000aa5a: push 0x00000014 ; call dword [0x1001312C] ;  (1 found)
0x1000a169: push 0x00000014 ; call edi ;  (1 found)
0x10003079: push 0x0000001C ; call dword [0x1001312C] ;  (1 found)
0x100056e5: push 0x0000001C ; call dword [0x1001312C] ;  (1 found)
0x10005458: push 0x00000020 ; call ebx ;  (1 found)
0x10001a06: push 0x0000003A ; add edx, 0x000003B8 ; push edx ; call dword [0x10013108] ;  (1 found)
0x1000c61c: push 0x00000045 ; call dword [0x1001312C] ;  (1 found)
0x1000a0b6: push 0x00000065 ; lea ebx, dword [ecx+eax] ; call edi ;  (1 found)
0x1000a572: push 0x00000066 ; call dword [0x1001312C] ;  (1 found)
0x1000d6b4: push 0x00000067 ; call dword [0x1001312C] ;  (1 found)
0x100122ff: push 0x00000080 ; call dword [0x100130B0] ;  (1 found)
0x1000ade9: push 0x000000C9 ; call dword [0x1001312C] ;  (1 found)
0x1000af84: push 0x000000CA ; call dword [0x1001312C] ;  (1 found)
0x1000b119: push 0x000000CB ; call dword [0x1001312C] ;  (1 found)
0x1000b2ba: push 0x000000CC ; call dword [0x1001312C] ;  (1 found)
0x100117d3: push 0x000000FF ; push eax ; call dword [0x100130AC] ;  (1 found)
0x10011656: push 0x000000FF ; push ecx ; call dword [0x100130AC] ;  (1 found)
0x100116bc: push 0x000000FF ; push ecx ; call dword [0x100130AC] ;  (1 found)
0x10011757: push 0x000000FF ; push ecx ; call dword [0x100130AC] ;  (1 found)
0x100118f2: push 0x000000FF ; push ecx ; call dword [0x100130AC] ;  (1 found)
0x10011877: push 0x000000FF ; push edx ; call dword [0x100130AC] ;  (1 found)
0x10005295: push 0x00000100 ; mov dword [esp+0x5C], eax ; call ebx ;  (1 found)
0x1000f61b: push 0x00000101 ; call dword [0x10013144] ;  (1 found)
0x100119e8: push 0x00000104 ; lea eax, dword [esp+0x04] ; push 0x1001F650 ; push eax ; call dword [0x100130FC] ;  (1 found)
0x100065e0: push 0x000001F6 ; push eax ; call ebp ;  (1 found)
0x1000d66d: push 0x000001F7 ; push 0x1001AAF4 ; push 0x000001FB ; call dword [0x10013080] ;  (1 found)
0x10009d79: push 0x000001F7 ; push 0x1001AAF4 ; push 0x000001FB ; mov dword [esp+0x000000E4], 0x00000000 ; call dword [0x10013080] ;  (1 found)
0x100099dc: push 0x000001F7 ; push 0x1001AAF4 ; push 0x000001FB ; mov dword [esp+0x6C], 0x00000000 ; call dword [0x10013080] ;  (1 found)
0x1000d677: push 0x000001FB ; call dword [0x10013080] ;  (1 found)
0x10009d83: push 0x000001FB ; mov dword [esp+0x000000E4], 0x00000000 ; call dword [0x10013080] ;  (1 found)
0x100099e6: push 0x000001FB ; mov dword [esp+0x6C], 0x00000000 ; call dword [0x10013080] ;  (1 found)
0x1001156d: push 0x00000208 ; mov ebx, eax ; call esi ;  (1 found)
0x1001193f: push 0x00000410 ; call dword [0x10013058] ;  (1 found)
0x10011bf9: push 0x00006801 ; push edx ; call dword [0x1001300C] ;  (1 found)
0x100120c5: push 0x00007530 ; mov eax, dword [esi+0x2C] ; push eax ; call dword [0x10013090] ;  (1 found)
0x10011ba6: push 0x00008003 ; push edx ; call dword [0x10013004] ;  (1 found)
0x100119d6: push 0x00008023 ; push 0x00000000 ; call dword [0x1001311C] ;  (1 found)
0x1001095f: push 0x00008023 ; push 0x00000000 ; call dword [0x1001311C] ;  (1 found)
0x10010362: push 0x0000FDE9 ; call dword [0x10013038] ;  (1 found)
0x10010606: push 0x0000FDE9 ; call dword [0x1001303C] ;  (1 found)
0x100106ee: push 0x0000FDE9 ; call dword [0x1001303C] ;  (1 found)
0x10011f2c: push 0x0000FEED ; mov dword [esp+0x28], eax ; call dword [0x1001312C] ;  (1 found)
0x10006514: push 0x0000FFE2 ; call dword [0x1001312C] ;  (1 found)
0x100066b3: push 0x0000FFE2 ; call dword [0x1001312C] ;  (1 found)
0x10011f0e: push 0x0000FFFF ; push esi ; call dword [0x1001315C] ;  (1 found)
0x10011282: push 0x001F0FFF ; call dword [0x10013058] ;  (1 found)
0x10010e6d: push 0x001F0FFF ; call dword [0x10013058] ;  (1 found)
0x1000d672: push 0x1001AAF4 ; push 0x000001FB ; call dword [0x10013080] ;  (1 found)
0x10009d7e: push 0x1001AAF4 ; push 0x000001FB ; mov dword [esp+0x000000E4], 0x00000000 ; call dword [0x10013080] ;  (1 found)
0x100099e1: push 0x1001AAF4 ; push 0x000001FB ; mov dword [esp+0x6C], 0x00000000 ; call dword [0x10013080] ;  (1 found)
0x100032a0: push 0x1001ACA4 ; push eax ; call esi ;  (1 found)
0x10003283: push 0x1001ACA8 ; call dword [0x100130F8] ;  (1 found)
0x1000fc3e: push 0x1001EBE8 ; push edx ; call dword [0x10013020] ;  (1 found)
0x1000fc15: push 0x1001EBF0 ; push 0x80000002 ; call esi ;  (1 found)
0x1000fb8f: push 0x1001EC84 ; push 0x80000002 ; call esi ;  (1 found)
0x100116b3: push 0x1001F43C ; lea ecx, dword [esp+0x24] ; push 0x000000FF ; push ecx ; call dword [0x100130AC] ;  (1 found)
0x1001164d: push 0x1001F484 ; lea ecx, dword [esp+0x28] ; push 0x000000FF ; push ecx ; call dword [0x100130AC] ;  (1 found)
0x100117ca: push 0x1001F4BC ; lea eax, dword [esp+0x20] ; push 0x000000FF ; push eax ; call dword [0x100130AC] ;  (1 found)
0x1001174e: push 0x1001F4F0 ; lea ecx, dword [esp+0x1C] ; push 0x000000FF ; push ecx ; call dword [0x100130AC] ;  (1 found)
0x100118e9: push 0x1001F53C ; lea ecx, dword [esp+0x1C] ; push 0x000000FF ; push ecx ; call dword [0x100130AC] ;  (1 found)
0x10011872: push 0x1001F59C ; push 0x000000FF ; push edx ; call dword [0x100130AC] ;  (1 found)
0x100119f1: push 0x1001F650 ; push eax ; call dword [0x100130FC] ;  (1 found)
0x10011987: push 0x1001F6D4 ; call dword [0x100130A8] ;  (1 found)
0x1000f659: push 0x1002FB60 ; call dword [0x10013028] ;  (1 found)
0x1001147c: push 0x406D1388 ; call dword [0x10013060] ;  (1 found)
0x100111a6: push 0x6A1001F0 ; and byte [ebp-0x00066B6B], cl ; call dword [edx-0x18] ;  (1 found)
0x1000c01d: push 0x6C246C89 ; push edx ; call esi ;  (1 found)
0x1000d754: push 0x6C247C89 ; call esi ;  (1 found)
0x10011f1a: push 0x7F000001 ; mov word [esp+0x24], 0x0002 ; call dword [0x10013128] ;  (1 found)
0x1000587e: push 0x80000000 ; call dword [0x10013134] ;  (1 found)
0x10007eb1: push 0x80000000 ; call dword [0x10013134] ;  (1 found)
0x10003e66: push 0x80000000 ; call ebp ;  (1 found)
0x10003f73: push 0x80000000 ; call ebp ;  (1 found)
0x10004048: push 0x80000000 ; call ebp ;  (1 found)
0x10005a59: push 0x80000000 ; mov dword [edx+0x20], eax ; call ebp ;  (1 found)
0x10004a96: push 0x80000000 ; mov word [edi+0x24], ax ; call dword [0x10013134] ;  (1 found)
0x1000fb94: push 0x80000002 ; call esi ;  (1 found)
0x1000fc1a: push 0x80000002 ; call esi ;  (1 found)
0x1000f1f5: push 0x83100131 ; clc  ; dec dword [ecx+0x0005D886] ; add byte [ebp+0x56], dh ; call dword [0x10013164] ;  (1 found)
0x10011504: push 0xFFFFFFFF ; call dword [0x100130B8] ;  (1 found)
0x1000e1e2: push 0xFFFFFFFF ; mov eax, dword [edi+0x30] ; push eax ; call ebp ;  (1 found)
0x1000128f: push 0xFFFFFFFF ; mov edx, dword [ecx+0x000005D4] ; push edx ; call dword [0x10013090] ;  (1 found)
0x10001982: push 0xFFFFFFFF ; push eax ; call dword [0x10013090] ;  (1 found)
0x1000359f: push 0xFFFFFFFF ; push eax ; call esi ;  (1 found)
0x10001759: push 0xFFFFFFFF ; push ecx ; call dword [0x10013090] ;  (1 found)
0x10003672: push 0xFFFFFFFF ; push ecx ; call dword [0x10013090] ;  (1 found)
0x1000381c: push 0xFFFFFFFF ; push ecx ; call dword [0x10013090] ;  (1 found)
0x10003ac0: push 0xFFFFFFFF ; push ecx ; call dword [0x10013090] ;  (1 found)
0x100038a7: push 0xFFFFFFFF ; push ecx ; call dword [0x10013090] ;  (1 found)
0x10006ad2: push 0xFFFFFFFF ; push ecx ; call dword [0x10013090] ;  (1 found)
0x10006bdd: push 0xFFFFFFFF ; push ecx ; call dword [0x10013090] ;  (1 found)
0x10006d89: push 0xFFFFFFFF ; push ecx ; call dword [0x10013090] ;  (1 found)
0x10006e0d: push 0xFFFFFFFF ; push ecx ; call dword [0x10013090] ;  (1 found)
0x1000d950: push 0xFFFFFFFF ; push ecx ; call dword [0x10013090] ;  (1 found)
0x1000e0b0: push 0xFFFFFFFF ; push ecx ; call dword [0x10013090] ;  (1 found)
0x1000f1db: push 0xFFFFFFFF ; push ecx ; call dword [0x10013090] ;  (1 found)
0x1000e1a8: push 0xFFFFFFFF ; push ecx ; call ebp ;  (1 found)
0x1000ed34: push 0xFFFFFFFF ; push ecx ; call ebx ;  (1 found)
0x10003988: push 0xFFFFFFFF ; push ecx ; call edi ;  (1 found)
0x10006826: push 0xFFFFFFFF ; push ecx ; call edi ;  (1 found)
0x10006926: push 0xFFFFFFFF ; push ecx ; call edi ;  (1 found)
0x10001136: push 0xFFFFFFFF ; push edx ; call dword [0x10013090] ;  (1 found)
0x100015dc: push 0xFFFFFFFF ; push edx ; call dword [0x10013090] ;  (1 found)
0x10001c96: push 0xFFFFFFFF ; push edx ; call dword [0x10013090] ;  (1 found)
0x1000da56: push 0xFFFFFFFF ; push edx ; call dword [0x10013090] ;  (1 found)
0x10003993: push 0xFFFFFFFF ; push edx ; call edi ;  (1 found)
0x1000682e: push 0xFFFFFFFF ; push edx ; call edi ;  (1 found)
0x1000692e: push 0xFFFFFFFF ; push edx ; call edi ;  (1 found)
0x10003589: push 0xFFFFFFFF ; push edx ; call esi ;  (1 found)
0x1000edc7: push 0xFFFFFFFF ; push esi ; call ebx ;  (1 found)
0x1000ef86: push 0xFFFFFFFF ; push esi ; call edi ;  (1 found)
0x10001239: push cs ; add dword [eax], eax ; add esp, 0x30 ; pop esi ; ret  ;  (1 found)
0x10010615: push cs ; call dword [0x10013034] ;  (1 found)
0x1000c20c: push cs ; call dword [0x1001312C] ;  (1 found)
0x10010370: push cs ; call edi ;  (1 found)
0x10005645: push cs ; push 0x00000001 ; call dword [0x10013134] ;  (1 found)
0x10005659: push cs ; push 0x00000002 ; call dword [0x10013134] ;  (1 found)
0x10003282: push cs ; push 0x1001ACA8 ; call dword [0x100130F8] ;  (1 found)
0x1001005d: push cs ; push ecx ; push edx ; call dword [0x1002FBB0] ;  (1 found)
0x10003d0e: push ds ; ret  ;  (1 found)
0x10011fdf: push dword [ebp+0x23] ; mov dword [edi], 0x00000000 ; push 0x00000002 ; push esi ; call dword [0x1001313C] ;  (1 found)
0x1000f126: push dword [ebp+0x2F] ; call ebp ;  (1 found)
0x1000f012: push dword [ebp+0x38] ; call dword [0x10013164] ;  (1 found)
0x10007f11: push dword [ebp+0x40] ; mov ax, word [esi+0x42] ; push eax ; call dword [0x10013130] ;  (1 found)
0x10012434: push dword [esp+0x04] ; call dword [0x10013098] ;  (1 found)
0x1000a180: push dx ; call edi ;  (1 found)
0x10009f9f: push eax ; add al, 0x8B ; xchg byte [eax+0x50000000], bl ; call dword [0x10013128] ;  (1 found)
0x1000c7f7: push eax ; and ebx, 0x0000FFFF ; push 0x00000007 ; call dword [0x1001312C] ;  (1 found)
0x1000ca07: push eax ; and ebx, 0x0000FFFF ; push 0x00000009 ; call dword [0x1001312C] ;  (1 found)
0x10011b82: push eax ; call dword [0x10013000] ;  (1 found)
0x10011c2c: push eax ; call dword [0x10013010] ;  (1 found)
0x10010112: push eax ; call dword [0x1001302C] ;  (1 found)
0x10010373: push eax ; call dword [0x10013034] ;  (1 found)
0x10011050: push eax ; call dword [0x10013054] ;  (1 found)
0x1000f5c7: push eax ; call dword [0x10013074] ;  (1 found)
0x10006c20: push eax ; call dword [0x10013084] ;  (1 found)
0x1000f6a4: push eax ; call dword [0x10013084] ;  (1 found)
0x10001f7e: push eax ; call dword [0x1001308C] ;  (1 found)
0x1000d9ab: push eax ; call dword [0x1001308C] ;  (1 found)
0x1000ee9f: push eax ; call dword [0x1001308C] ;  (1 found)
0x1000ef44: push eax ; call dword [0x1001308C] ;  (1 found)
0x100113c1: push eax ; call dword [0x1001308C] ;  (1 found)
0x1001210b: push eax ; call dword [0x1001308C] ;  (1 found)
0x10001984: push eax ; call dword [0x10013090] ;  (1 found)
0x100120cd: push eax ; call dword [0x10013090] ;  (1 found)
0x100011cb: push eax ; call dword [0x10013094] ;  (1 found)
0x10001d09: push eax ; call dword [0x10013094] ;  (1 found)
0x100035fb: push eax ; call dword [0x10013094] ;  (1 found)
0x10006b02: push eax ; call dword [0x10013094] ;  (1 found)
0x10006ddb: push eax ; call dword [0x10013094] ;  (1 found)
0x1000f24a: push eax ; call dword [0x10013094] ;  (1 found)
0x1000f360: push eax ; call dword [0x10013094] ;  (1 found)
0x100117d8: push eax ; call dword [0x100130AC] ;  (1 found)
0x1001236b: push eax ; call dword [0x100130B4] ;  (1 found)
0x100109e8: push eax ; call dword [0x100130CC] ;  (1 found)
0x100105b4: push eax ; call dword [0x100130D8] ;  (1 found)
0x100104c3: push eax ; call dword [0x100130E8] ;  (1 found)
0x100103d3: push eax ; call dword [0x100130F0] ;  (1 found)
0x100051d9: push eax ; call dword [0x100130F4] ;  (1 found)
0x100047c3: push eax ; call dword [0x100130F4] ;  (1 found)
0x100119f6: push eax ; call dword [0x100130FC] ;  (1 found)
0x10003231: push eax ; call dword [0x10013100] ;  (1 found)
0x100108ce: push eax ; call dword [0x10013120] ;  (1 found)
0x1000445f: push eax ; call dword [0x10013128] ;  (1 found)
0x1000670d: push eax ; call dword [0x10013128] ;  (1 found)
0x100077bc: push eax ; call dword [0x10013128] ;  (1 found)
0x10007b94: push eax ; call dword [0x10013128] ;  (1 found)
0x10009fa7: push eax ; call dword [0x10013128] ;  (1 found)
0x100030cc: push eax ; call dword [0x1001312C] ;  (1 found)
0x100047e2: push eax ; call dword [0x1001312C] ;  (1 found)
0x100051f1: push eax ; call dword [0x1001312C] ;  (1 found)
0x10003ee7: push eax ; call dword [0x10013130] ;  (1 found)
0x10004abf: push eax ; call dword [0x10013130] ;  (1 found)
0x10005cd7: push eax ; call dword [0x10013130] ;  (1 found)
0x10005f79: push eax ; call dword [0x10013130] ;  (1 found)
0x10007f18: push eax ; call dword [0x10013130] ;  (1 found)
0x1000e792: push eax ; call dword [0x10013130] ;  (1 found)
0x1000e7b4: push eax ; call dword [0x10013130] ;  (1 found)
0x1000e8a3: push eax ; call dword [0x10013130] ;  (1 found)
0x10004ba0: push eax ; call dword [0x10013134] ;  (1 found)
0x10006c9f: push eax ; call dword [0x10013134] ;  (1 found)
0x1000b6fc: push eax ; call dword [0x10013134] ;  (1 found)
0x1000f694: push eax ; call dword [0x100131A0] ;  (1 found)
0x1000f684: push eax ; call dword [0x100131A4] ;  (1 found)
0x1000fdea: push eax ; call dword [0x1002FB80] ;  (1 found)
0x1000fed4: push eax ; call dword [0x1002FB9C] ;  (1 found)
0x1000fff8: push eax ; call dword [0x1002FBC8] ;  (1 found)
0x1000eee0: push eax ; call dword [esi+0x34] ;  (1 found)
0x10003c36: push eax ; call ebp ;  (1 found)
0x100065e5: push eax ; call ebp ;  (1 found)
0x100065ac: push eax ; call ebp ;  (1 found)
0x10009bc1: push eax ; call ebp ;  (1 found)
0x10009f78: push eax ; call ebp ;  (1 found)
0x1000a976: push eax ; call ebp ;  (1 found)
0x1000a9a5: push eax ; call ebp ;  (1 found)
0x1000e5d7: push eax ; call ebp ;  (1 found)
0x1000e5e0: push eax ; call ebp ;  (1 found)
0x1000e1e7: push eax ; call ebp ;  (1 found)
0x1000131d: push eax ; call ebx ;  (1 found)
0x100012d4: push eax ; call ebx ;  (1 found)
0x1000130e: push eax ; call ebx ;  (1 found)
0x100012ff: push eax ; call ebx ;  (1 found)
0x10001359: push eax ; call ebx ;  (1 found)
0x1000132c: push eax ; call ebx ;  (1 found)
0x1000134a: push eax ; call ebx ;  (1 found)
0x1000133b: push eax ; call ebx ;  (1 found)
0x10001680: push eax ; call ebx ;  (1 found)
0x1000e989: push eax ; call ebx ;  (1 found)
0x1000e992: push eax ; call ebx ;  (1 found)
0x100019ec: push eax ; call edi ;  (1 found)
0x10003904: push eax ; call edi ;  (1 found)
0x10003bfa: push eax ; call edi ;  (1 found)
0x100068aa: push eax ; call edi ;  (1 found)
0x10006e48: push eax ; call edi ;  (1 found)
0x10009f04: push eax ; call edi ;  (1 found)
0x10009f39: push eax ; call edi ;  (1 found)
0x1000a117: push eax ; call edi ;  (1 found)
0x1000a190: push eax ; call edi ;  (1 found)
0x1000ce9e: push eax ; call edi ;  (1 found)
0x1000ce90: push eax ; call edi ;  (1 found)
0x1000f150: push eax ; call edi ;  (1 found)
0x1000f121: push eax ; call edi ;  (1 found)
0x10010f6d: push eax ; call edi ;  (1 found)
0x100032a5: push eax ; call esi ;  (1 found)
0x100035a1: push eax ; call esi ;  (1 found)
0x1000d404: push eax ; call esi ;  (1 found)
0x1000e34f: push eax ; call esi ;  (1 found)
0x1000e344: push eax ; call esi ;  (1 found)
0x1000d78c: push eax ; call esi ;  (1 found)
0x1000d7b2: push eax ; call esi ;  (1 found)
0x10003229: push eax ; lea eax, dword [esp+0x00000224] ; push eax ; call dword [0x10013100] ;  (1 found)
0x10010e30: push eax ; lea edx, dword [esp+0x14] ; push ecx ; push edx ; call dword [0x10013050] ;  (1 found)
0x1000370b: push eax ; mov dword [ebp+0x000003A4], ebx ; call dword [0x10013094] ;  (1 found)
0x10006d44: push eax ; mov dword [esi+0x000003A8], 0x00000000 ; call dword [0x10013094] ;  (1 found)
0x1000b2f6: push eax ; mov dword [esi+0x28], 0x00000002 ; mov dword [esp+0x18], ebx ; call dword [0x10013134] ;  (1 found)
0x1000da6a: push eax ; mov dword [esi+0x2C], ecx ; call dword [0x10013094] ;  (1 found)
0x1000f482: push eax ; mov dword [esi+0x3C], edx ; call dword [0x10013094] ;  (1 found)
0x10003a3e: push eax ; mov dword [esi+0x40], 0x00000000 ; call edi ;  (1 found)
0x1000febe: push eax ; mov dword [esi], eax ; mov edx, dword [0x1002FD8C] ; push edx ; call dword [0x1002FBAC] ;  (1 found)
0x1000d7d0: push eax ; mov dword [esp+0x00000084], edi ; mov dword [esp+0x00000088], ebp ; call esi ;  (1 found)
0x10010bad: push eax ; mov dword [esp+0x10], 0x0000011C ; call ebx ;  (1 found)
0x1000545c: push eax ; mov dword [esp+0x14], eax ; call dword [0x10013130] ;  (1 found)
0x1000cc6c: push eax ; mov dword [esp+0x54], eax ; call esi ;  (1 found)
0x1000cebc: push eax ; mov dword [esp+0x58], ebx ; mov dword [esp+0x5C], ebp ; call edi ;  (1 found)
0x1000c85b: push eax ; mov dword [esp+0x58], edi ; call dword [0x10013134] ;  (1 found)
0x1000ca6b: push eax ; mov dword [esp+0x58], edi ; call dword [0x10013134] ;  (1 found)
0x1000c284: push eax ; mov dword [esp+0x5C], ecx ; mov dword [esp+0x60], edx ; call dword [0x10013134] ;  (1 found)
0x10005482: push eax ; mov dword [esp+0x7C], eax ; call dword [0x10013130] ;  (1 found)
0x100065dc: push eax ; mov eax, dword [ebx+0x34] ; push 0x000001F6 ; push eax ; call ebp ;  (1 found)
0x1000ce96: push eax ; mov eax, dword [esp+0x000000C4] ; push eax ; call edi ;  (1 found)
0x100114b6: push eax ; mov esi, dword [0x100130B4] ; call esi ;  (1 found)
0x10006113: push eax ; movsw  ; call dword [ebx+0x3A] ;  (1 found)
0x10003ee1: push eax ; or al, 0x66 ; mov eax, dword [ecx+0x02] ; push eax ; call dword [0x10013130] ;  (1 found)
0x100040d6: push eax ; or al, 0xE8 ; ret  ;  (1 found)
0x10011526: push eax ; push 0x00000000 ; call dword [0x10013068] ;  (1 found)
0x1001035f: push eax ; push 0x00000000 ; push 0x0000FDE9 ; call dword [0x10013038] ;  (1 found)
0x10010603: push eax ; push 0x00000000 ; push 0x0000FDE9 ; call dword [0x1001303C] ;  (1 found)
0x10011f97: push eax ; push 0x00000001 ; mov dword [esp+0x48], esi ; mov dword [esp+0x44], 0x00000001 ; call dword [0x10013160] ;  (1 found)
0x1000c43a: push eax ; push 0x00000002 ; call dword [0x1001312C] ;  (1 found)
0x10011f0b: push eax ; push 0x00000004 ; push 0x0000FFFF ; push esi ; call dword [0x1001315C] ;  (1 found)
0x1000cc10: push eax ; push 0x00000005 ; call dword [0x1001312C] ;  (1 found)
0x1000ac00: push eax ; push 0x00000006 ; call dword [0x1001312C] ;  (1 found)
0x1000b4a1: push eax ; push 0x00000008 ; call dword [0x1001312C] ;  (1 found)
0x1000baaa: push eax ; push 0x0000000A ; call dword [0x1001312C] ;  (1 found)
0x1000b6a6: push eax ; push 0x0000000C ; call ebx ;  (1 found)
0x1000bd00: push eax ; push 0x0000000D ; call dword [0x1001312C] ;  (1 found)
0x1000c20a: push eax ; push 0x0000000E ; call dword [0x1001312C] ;  (1 found)
0x1000bf7a: push eax ; push 0x0000000F ; call dword [0x1001312C] ;  (1 found)
0x1000ce30: push eax ; push 0x00000010 ; call dword [0x1001312C] ;  (1 found)
0x1000a571: push eax ; push 0x00000066 ; call dword [0x1001312C] ;  (1 found)
0x1000f61a: push eax ; push 0x00000101 ; call dword [0x10013144] ;  (1 found)
0x1001147b: push eax ; push 0x406D1388 ; call dword [0x10013060] ;  (1 found)
0x100107cf: push eax ; push ebx ; call dword [0x100130D4] ;  (1 found)
0x10001c74: push eax ; push ebx ; call ebp ;  (1 found)
0x10001c4f: push eax ; push ebx ; call ebp ;  (1 found)
0x10011b58: push eax ; push ecx ; call dword [0x10013014] ;  (1 found)
0x10010858: push eax ; push ecx ; call dword [0x1001302C] ;  (1 found)
0x10010887: push eax ; push ecx ; call dword [0x10013048] ;  (1 found)
0x10001a27: push eax ; push ecx ; call dword [0x1001310C] ;  (1 found)
0x1000fd97: push eax ; push ecx ; call dword [0x1002FB6C] ;  (1 found)
0x100100b9: push eax ; push ecx ; call dword [0x1002FB84] ;  (1 found)
0x1001006e: push eax ; push ecx ; call dword [0x1002FBA4] ;  (1 found)
0x1000fee4: push eax ; push ecx ; call dword [0x1002FBB8] ;  (1 found)
0x1001001a: push eax ; push ecx ; call dword [0x1002FBCC] ;  (1 found)
0x10010734: push eax ; push ecx ; mov dword [esp+0x10], 0x00000800 ; call dword [0x10013040] ;  (1 found)
0x100106ea: push eax ; push ecx ; push 0x00000000 ; push 0x0000FDE9 ; call dword [0x1001303C] ;  (1 found)
0x10011bd0: push eax ; push ecx ; push edx ; call dword [0x10013008] ;  (1 found)
0x1001059c: push eax ; push ecx ; push edx ; call dword [0x100130DC] ;  (1 found)
0x1001049c: push eax ; push ecx ; push edx ; call dword [0x100130EC] ;  (1 found)
0x100103ec: push eax ; push ecx ; push edx ; call dword [0x10013100] ;  (1 found)
0x10004cd1: push eax ; push ecx ; push edx ; call dword [0x10013130] ;  (1 found)
0x1000bd10: push eax ; push ecx ; push edx ; call dword [0x10013130] ;  (1 found)
0x1000ff99: push eax ; push ecx ; push edx ; call dword [0x1002FBC4] ;  (1 found)
0x1000b70d: push eax ; push edi ; call ebx ;  (1 found)
0x1001193d: push eax ; push edi ; push 0x00000410 ; call dword [0x10013058] ;  (1 found)
0x10011fd3: push eax ; push esi ; call dword [0x10013154] ;  (1 found)
0x10011f6f: push eax ; push esi ; call dword [0x10013158] ;  (1 found)
0x1000ef73: push eax ; push esi ; call ebx ;  (1 found)
0x10003a10: push eax ; push esi ; call ecx ;  (1 found)
0x1000641d: push eax ; rep movsd  ; push edx ; movsw  ; call eax ;  (1 found)
0x100122cd: push eax ; ret  ;  (1 found)
0x100119f2: push eax ; test byte [ecx], 0x00000010 ; push eax ; call dword [0x100130FC] ;  (1 found)
0x1000c4a2: push eax ; xor ebp, ebp ; call edi ;  (1 found)
0x1000cc8e: push eax ; xor ebp, ebp ; call esi ;  (1 found)
0x1000bfe2: push eax ; xor ebp, ebp ; call esi ;  (1 found)
0x1000c02e: push eax ; xor ebp, ebp ; call esi ;  (1 found)
0x1000c008: push eax ; xor ebp, ebp ; call esi ;  (1 found)
0x1000c054: push eax ; xor ebp, ebp ; call esi ;  (1 found)
0x1000d764: push eax ; xor ebp, ebp ; call esi ;  (1 found)
0x10006a2e: push ebp ; call dword [ebx+0x08] ;  (1 found)
0x10006af0: push ebp ; call dword [ebx+0x08] ;  (1 found)
0x100063b3: push ebp ; call dword [ebx+0x34] ;  (1 found)
0x10005289: push ebp ; call ebx ;  (1 found)
0x1000528a: push ebp ; call ebx ;  (1 found)
0x1000b8df: push ebp ; call edi ;  (1 found)
0x1000d736: push ebp ; mov dword [esp+0x14], edi ; xor edi, edi ; call esi ;  (1 found)
0x10009f40: push ebp ; mov dword [esp+0x38], edx ; mov dword [esp+0x44], ecx ; call edi ;  (1 found)
0x10009f0b: push ebp ; mov dword [esp+0x44], edx ; mov dword [esp+0x40], ecx ; call edi ;  (1 found)
0x1000d149: push ebp ; mov dword [esp+0x54], edi ; call esi ;  (1 found)
0x1000a95e: push ebp ; mov ebp, dword [0x10013128] ; push edi ; push edx ; call ebp ;  (1 found)
0x1000e5cd: push ebp ; mov ebp, dword [0x10013130] ; mov ax, word [esi] ; push eax ; call ebp ;  (1 found)
0x1000a16d: push ebp ; mov word [esp+0x68], ax ; call edi ;  (1 found)
0x1000629a: push ebp ; movsw  ; call eax ;  (1 found)
0x10010e6a: push ebp ; push 0x00000001 ; push 0x001F0FFF ; call dword [0x10013058] ;  (1 found)
0x10005f78: push ebp ; push eax ; call dword [0x10013130] ;  (1 found)
0x10010f6c: push ebp ; push eax ; call edi ;  (1 found)
0x10010e57: push ebp ; push esi ; push edi ; mov dword [esp+0x14], 0x00000000 ; call dword [0x1001305C] ;  (1 found)
0x1000527d: push ebp ; push esi ; push edi ; push 0x0000000C ; call ebx ;  (1 found)
0x100050ca: push ebx ; add edx, edi ; push ecx ; push edx ; call dword [0x100130F4] ;  (1 found)
0x1000468a: push ebx ; add edx, edi ; push ecx ; push edx ; call dword [0x100130F4] ;  (1 found)
0x100106b5: push ebx ; call dword [0x10013034] ;  (1 found)
0x10011602: push ebx ; call dword [0x100130B0] ;  (1 found)
0x100107d0: push ebx ; call dword [0x100130D4] ;  (1 found)
0x1000654e: push ebx ; call eax ;  (1 found)
0x100123b2: push ebx ; call eax ;  (1 found)
0x1001240e: push ebx ; call eax ;  (1 found)
0x10001be0: push ebx ; call ebp ;  (1 found)
0x10001b2e: push ebx ; call ebp ;  (1 found)
0x10001cb1: push ebx ; call ebp ;  (1 found)
0x10001c50: push ebx ; call ebp ;  (1 found)
0x10001c75: push ebx ; call ebp ;  (1 found)
0x10006ef3: push ebx ; call edi ;  (1 found)
0x10001bec: push ebx ; mov dword [ecx+0x000005CC], eax ; call ebp ;  (1 found)
0x10006efb: push ebx ; mov dword [esi+0x000005D0], eax ; call edi ;  (1 found)
0x10001ba8: push ebx ; mov dword [esi+0x6C], ebx ; call ebp ;  (1 found)
0x10003bff: push ebx ; mov dword [esp+0x24], ebp ; xor ebp, ebp ; call edi ;  (1 found)
0x10009bc8: push ebx ; mov dword [esp+0x40], edx ; mov dword [esp+0x38], ecx ; call ebp ;  (1 found)
0x1000165f: push ebx ; mov ebx, dword [0x10013128] ; push ecx ; call ebx ;  (1 found)
0x1000d0c4: push ebx ; mov ebx, dword [esp+0x000000B0] ; push 0x00000003 ; call dword [0x1001312C] ;  (1 found)
0x1000d35d: push ebx ; mov ebx, dword [esp+0x000000C0] ; push 0x00000004 ; call dword [0x1001312C] ;  (1 found)
0x10001b29: push ebx ; push 0x00000001 ; push 0x00000001 ; push ebx ; call ebp ;  (1 found)
0x10001cac: push ebx ; push 0x00000001 ; push 0x00000001 ; push ebx ; call ebp ;  (1 found)
0x10006eee: push ebx ; push 0x00000001 ; push 0x00000001 ; push ebx ; call edi ;  (1 found)
0x10001d06: push ebx ; push 0x00000001 ; push eax ; call dword [0x10013094] ;  (1 found)
0x10001bdb: push ebx ; push 0x0000000A ; push 0x0000000A ; push ebx ; call ebp ;  (1 found)
0x1000fc3d: push ebx ; push 0x1001EBE8 ; push edx ; call dword [0x10013020] ;  (1 found)
0x1000fc14: push ebx ; push 0x1001EBF0 ; push 0x80000002 ; call esi ;  (1 found)
0x1000fb8e: push ebx ; push 0x1001EC84 ; push 0x80000002 ; call esi ;  (1 found)
0x10006a2d: push ebx ; push ebp ; call dword [ebx+0x08] ;  (1 found)
0x10006aef: push ebx ; push ebp ; call dword [ebx+0x08] ;  (1 found)
0x100063b2: push ebx ; push ebp ; call dword [ebx+0x34] ;  (1 found)
0x10010f6b: push ebx ; push ebp ; push eax ; call edi ;  (1 found)
0x10006232: push ebx ; push ecx ; call dword [ebx+0x34] ;  (1 found)
0x10001c4d: push ebx ; push ecx ; push eax ; push ebx ; call ebp ;  (1 found)
0x10001c72: push ebx ; push ecx ; push eax ; push ebx ; call ebp ;  (1 found)
0x100039d4: push ebx ; push esi ; call eax ;  (1 found)
0x10001980: push ebx ; push esi ; push 0xFFFFFFFF ; push eax ; call dword [0x10013090] ;  (1 found)
0x10010656: push ebx ; push esi ; push edi ; call dword [0x10013070] ;  (1 found)
0x100051d5: push ecx ; add eax, edi ; push edx ; push eax ; call dword [0x100130F4] ;  (1 found)
0x10011b59: push ecx ; call dword [0x10013014] ;  (1 found)
0x1000fc7e: push ecx ; call dword [0x1001301C] ;  (1 found)
0x10010859: push ecx ; call dword [0x1001302C] ;  (1 found)
0x10010888: push ecx ; call dword [0x10013048] ;  (1 found)
0x10011296: push ecx ; call dword [0x10013080] ;  (1 found)
0x1000ee25: push ecx ; call dword [0x1001308C] ;  (1 found)
0x1000175b: push ecx ; call dword [0x10013090] ;  (1 found)
0x10003674: push ecx ; call dword [0x10013090] ;  (1 found)
0x1000381e: push ecx ; call dword [0x10013090] ;  (1 found)
0x10003ac2: push ecx ; call dword [0x10013090] ;  (1 found)
0x100038a9: push ecx ; call dword [0x10013090] ;  (1 found)
0x10006ad4: push ecx ; call dword [0x10013090] ;  (1 found)
0x10006bdf: push ecx ; call dword [0x10013090] ;  (1 found)
0x10006d8b: push ecx ; call dword [0x10013090] ;  (1 found)
0x10006e0f: push ecx ; call dword [0x10013090] ;  (1 found)
0x1000d952: push ecx ; call dword [0x10013090] ;  (1 found)
0x1000e0b2: push ecx ; call dword [0x10013090] ;  (1 found)
0x1000f1dd: push ecx ; call dword [0x10013090] ;  (1 found)
0x1000eef7: push ecx ; call dword [0x10013094] ;  (1 found)
0x1000f45c: push ecx ; call dword [0x10013094] ;  (1 found)
0x1001165b: push ecx ; call dword [0x100130AC] ;  (1 found)
0x100116c1: push ecx ; call dword [0x100130AC] ;  (1 found)
0x1001175c: push ecx ; call dword [0x100130AC] ;  (1 found)
0x100118f7: push ecx ; call dword [0x100130AC] ;  (1 found)
0x100117a2: push ecx ; call dword [0x100130B4] ;  (1 found)
0x100109f3: push ecx ; call dword [0x100130D0] ;  (1 found)
0x10001a28: push ecx ; call dword [0x1001310C] ;  (1 found)
0x1000656e: push ecx ; call dword [0x10013128] ;  (1 found)
0x100091b7: push ecx ; call dword [0x10013128] ;  (1 found)
0x10009601: push ecx ; call dword [0x10013128] ;  (1 found)
0x10009b9e: push ecx ; call dword [0x10013128] ;  (1 found)
0x1000a943: push ecx ; call dword [0x10013128] ;  (1 found)
0x100050e6: push ecx ; call dword [0x1001312C] ;  (1 found)
0x100046a6: push ecx ; call dword [0x1001312C] ;  (1 found)
0x1000d412: push ecx ; call dword [0x1001312C] ;  (1 found)
0x1000446e: push ecx ; call dword [0x10013130] ;  (1 found)
0x10004baf: push ecx ; call dword [0x10013130] ;  (1 found)
0x1000505f: push ecx ; call dword [0x10013130] ;  (1 found)
0x10005160: push ecx ; call dword [0x10013130] ;  (1 found)
0x10004620: push ecx ; call dword [0x10013130] ;  (1 found)
0x10006c85: push ecx ; call dword [0x10013134] ;  (1 found)
0x10006cac: push ecx ; call dword [0x10013134] ;  (1 found)
0x1000fd98: push ecx ; call dword [0x1002FB6C] ;  (1 found)
0x100100ba: push ecx ; call dword [0x1002FB84] ;  (1 found)
0x1000feb3: push ecx ; call dword [0x1002FBA0] ;  (1 found)
0x1001006f: push ecx ; call dword [0x1002FBA4] ;  (1 found)
0x1000fee5: push ecx ; call dword [0x1002FBB8] ;  (1 found)
0x1001001b: push ecx ; call dword [0x1002FBCC] ;  (1 found)
0x10006233: push ecx ; call dword [ebx+0x34] ;  (1 found)
0x10001498: push ecx ; call eax ;  (1 found)
0x10005a52: push ecx ; call ebp ;  (1 found)
0x1000e1aa: push ecx ; call ebp ;  (1 found)
0x10001666: push ecx ; call ebx ;  (1 found)
0x1000168d: push ecx ; call ebx ;  (1 found)
0x1000547f: push ecx ; call ebx ;  (1 found)
0x1000ed36: push ecx ; call ebx ;  (1 found)
0x10010be0: push ecx ; call ebx ;  (1 found)
0x1000300e: push ecx ; call edi ;  (1 found)
0x10003a52: push ecx ; call edi ;  (1 found)
0x1000398a: push ecx ; call edi ;  (1 found)
0x10003911: push ecx ; call edi ;  (1 found)
0x10003c4d: push ecx ; call edi ;  (1 found)
0x10006828: push ecx ; call edi ;  (1 found)
0x10006928: push ecx ; call edi ;  (1 found)
0x10006e55: push ecx ; call edi ;  (1 found)
0x1000b8ee: push ecx ; call edi ;  (1 found)
0x1000ced2: push ecx ; call edi ;  (1 found)
0x100032c3: push ecx ; call esi ;  (1 found)
0x1000d7ef: push ecx ; call esi ;  (1 found)
0x100047be: push ecx ; lea eax, dword [esi+edi] ; push edx ; push eax ; call dword [0x100130F4] ;  (1 found)
0x100032ba: push ecx ; lea ecx, dword [esp+0x0000022C] ; push edx ; push ecx ; call esi ;  (1 found)
0x1000e1f5: push ecx ; mov dword [edi+0x2C], esi ; call dword [0x10013094] ;  (1 found)
0x10006977: push ecx ; mov dword [esi+0x00000378], edx ; call edi ;  (1 found)
0x10010735: push ecx ; mov dword [esp+0x10], 0x00000800 ; call dword [0x10013040] ;  (1 found)
0x1000ac58: push ecx ; mov dword [esp+0x1C], edx ; mov dword [esp+0x20], eax ; call ebx ;  (1 found)
0x1000b6f4: push ecx ; mov dword [esp+0x4C], edx ; mov dword [esp+0x50], eax ; call dword [0x10013134] ;  (1 found)
0x1000a113: push ecx ; mov dword [esp+0x50], eax ; call edi ;  (1 found)
0x1000cc68: push ecx ; mov dword [esp+0x50], edx ; mov dword [esp+0x54], eax ; call esi ;  (1 found)
0x1000bb2d: push ecx ; mov dword [esp+0x5C], edx ; mov eax, dword [eax+0x0C] ; mov dword [esp+0x60], eax ; call dword [0x1001312C] ;  (1 found)
0x1000a156: push ecx ; mov dword [esp+0x5C], edx ; mov eax, dword [eax+0x0C] ; mov dword [esp+0x60], eax ; call edi ;  (1 found)
0x1000d729: push ecx ; mov dword [esp+0x60], edx ; mov dword [esp+0x64], eax ; call esi ;  (1 found)
0x100106eb: push ecx ; push 0x00000000 ; push 0x0000FDE9 ; call dword [0x1001303C] ;  (1 found)
0x1000f37c: push ecx ; push 0x00000001 ; push 0x00000006 ; push edx ; call dword [0x1001315C] ;  (1 found)
0x10011478: push ecx ; push 0x00000004 ; push eax ; push 0x406D1388 ; call dword [0x10013060] ;  (1 found)
0x10011bf8: push ecx ; push 0x00006801 ; push edx ; call dword [0x1001300C] ;  (1 found)
0x1000fde9: push ecx ; push eax ; call dword [0x1002FB80] ;  (1 found)
0x1001035e: push ecx ; push eax ; push 0x00000000 ; push 0x0000FDE9 ; call dword [0x10013038] ;  (1 found)
0x10010602: push ecx ; push eax ; push 0x00000000 ; push 0x0000FDE9 ; call dword [0x1001303C] ;  (1 found)
0x10001c4e: push ecx ; push eax ; push ebx ; call ebp ;  (1 found)
0x10001c73: push ecx ; push eax ; push ebx ; call ebp ;  (1 found)
0x1000fc3c: push ecx ; push ebx ; push 0x1001EBE8 ; push edx ; call dword [0x10013020] ;  (1 found)
0x10011bd1: push ecx ; push edx ; call dword [0x10013008] ;  (1 found)
0x10010e35: push ecx ; push edx ; call dword [0x10013050] ;  (1 found)
0x1000f5d6: push ecx ; push edx ; call dword [0x10013078] ;  (1 found)
0x1001059d: push ecx ; push edx ; call dword [0x100130DC] ;  (1 found)
0x1001057d: push ecx ; push edx ; call dword [0x100130E0] ;  (1 found)
0x1001049d: push ecx ; push edx ; call dword [0x100130EC] ;  (1 found)
0x100050cd: push ecx ; push edx ; call dword [0x100130F4] ;  (1 found)
0x1000468d: push ecx ; push edx ; call dword [0x100130F4] ;  (1 found)
0x100103ed: push ecx ; push edx ; call dword [0x10013100] ;  (1 found)
0x10004cd2: push ecx ; push edx ; call dword [0x10013130] ;  (1 found)
0x1000bd11: push ecx ; push edx ; call dword [0x10013130] ;  (1 found)
0x1001005e: push ecx ; push edx ; call dword [0x1002FBB0] ;  (1 found)
0x1000ff9a: push ecx ; push edx ; call dword [0x1002FBC4] ;  (1 found)
0x1000f29e: push ecx ; push edx ; mov word [esp+0x18], 0x0002 ; mov dword [esp+0x1C], eax ; call dword [0x10013150] ;  (1 found)
0x10011a9a: push ecx ; push edx ; push 0x00000000 ; stosb  ; call dword [0x1001306C] ;  (1 found)
0x100104c1: push ecx ; push edx ; push eax ; call dword [0x100130E8] ;  (1 found)
0x100103d1: push ecx ; push edx ; push eax ; call dword [0x100130F0] ;  (1 found)
0x100108cc: push ecx ; push edx ; push eax ; call dword [0x10013120] ;  (1 found)
0x1000fff6: push ecx ; push edx ; push eax ; call dword [0x1002FBC8] ;  (1 found)
0x1000f11f: push ecx ; push edx ; push eax ; call edi ;  (1 found)
0x1000f14e: push ecx ; push edx ; push eax ; call edi ;  (1 found)
0x10011524: push ecx ; push edx ; push eax ; push 0x00000000 ; call dword [0x10013068] ;  (1 found)
0x1000edb4: push ecx ; push esi ; call ebp ;  (1 found)
0x10011f41: push ecx ; push esi ; mov word [esp+0x2E], ax ; call dword [0x10013150] ;  (1 found)
0x1000ceaa: push ecx ; xor ebp, ebp ; call edi ;  (1 found)
0x1000d133: push ecx ; xor ebp, ebp ; call esi ;  (1 found)
0x1000d798: push ecx ; xor ebp, ebp ; call esi ;  (1 found)
0x1000d7be: push ecx ; xor ebp, ebp ; call esi ;  (1 found)
0x1000d3dc: push ecx ; xor edi, edi ; call esi ;  (1 found)
0x100114a7: push edi ; add al, 0x52 ; call dword [ebp-0x1C] ;  (1 found)
0x1000bd0e: push edi ; and al, 0x50 ; push ecx ; push edx ; call dword [0x10013130] ;  (1 found)
0x10010199: push edi ; call dword [0x10013030] ;  (1 found)
0x10010658: push edi ; call dword [0x10013070] ;  (1 found)
0x100106d1: push edi ; call dword [0x10013070] ;  (1 found)
0x1000f59e: push edi ; call dword [0x10013088] ;  (1 found)
0x10011337: push edi ; call dword [0x1001308C] ;  (1 found)
0x100056cf: push edi ; call dword [0x1001312C] ;  (1 found)
0x10006755: push edi ; call dword [0x10013130] ;  (1 found)
0x10006754: push edi ; call dword [0x10013130] ;  (1 found)
0x1000f34f: push edi ; call dword [0x10013138] ;  (1 found)
0x1000f44b: push edi ; call dword [0x10013138] ;  (1 found)
0x1000f323: push edi ; call dword [0x1001313C] ;  (1 found)
0x1000f420: push edi ; call dword [0x1001313C] ;  (1 found)
0x1000b70e: push edi ; call ebx ;  (1 found)
0x100114bf: push edi ; call esi ;  (1 found)
0x1000e985: push edi ; mov ax, word [esi] ; push eax ; call ebx ;  (1 found)
0x1000515b: push edi ; mov cx, word [eax+0x02] ; push ecx ; call dword [0x10013130] ;  (1 found)
0x10010e59: push edi ; mov dword [esp+0x14], 0x00000000 ; call dword [0x1001305C] ;  (1 found)
0x10009f7f: push edi ; mov dword [esp+0x38], edx ; mov dword [esp+0x3C], ecx ; call ebp ;  (1 found)
0x10010321: push edi ; mov edi, dword [0x10013070] ; call edi ;  (1 found)
0x1000f599: push edi ; push 0x00000001 ; push 0x00000001 ; push edi ; call dword [0x10013088] ;  (1 found)
0x1001127f: push edi ; push 0x00000001 ; push 0x001F0FFF ; call dword [0x10013058] ;  (1 found)
0x1000527f: push edi ; push 0x0000000C ; call ebx ;  (1 found)
0x10011568: push edi ; push 0x0000000C ; call esi ;  (1 found)
0x1001193e: push edi ; push 0x00000410 ; call dword [0x10013058] ;  (1 found)
0x10011986: push edi ; push 0x1001F6D4 ; call dword [0x100130A8] ;  (1 found)
0x1000359e: push edi ; push 0xFFFFFFFF ; push eax ; call esi ;  (1 found)
0x10010111: push edi ; push eax ; call dword [0x1001302C] ;  (1 found)
0x1000fed3: push edi ; push eax ; call dword [0x1002FB9C] ;  (1 found)
0x10011f6e: push edi ; push eax ; push esi ; call dword [0x10013158] ;  (1 found)
0x1000a965: push edi ; push edx ; call ebp ;  (1 found)
0x1000efe1: push edi ; push edx ; push esi ; call dword [0x10013158] ;  (1 found)
0x1000eede: push edi ; push esi ; push eax ; call dword [esi+0x34] ;  (1 found)
0x100123b0: push edi ; push esi ; push ebx ; call eax ;  (1 found)
0x1001240c: push edi ; push esi ; push ebx ; call eax ;  (1 found)
0x10011934: push edi ; xor edi, edi ; call dword [0x1001305C] ;  (1 found)
0x10011bab: push edx ; call dword [0x10013004] ;  (1 found)
0x10011bd2: push edx ; call dword [0x10013008] ;  (1 found)
0x10011bfe: push edx ; call dword [0x1001300C] ;  (1 found)
0x1000fba3: push edx ; call dword [0x1001301C] ;  (1 found)
0x1000fc43: push edx ; call dword [0x10013020] ;  (1 found)
0x10010833: push edx ; call dword [0x10013044] ;  (1 found)
0x10010e36: push edx ; call dword [0x10013050] ;  (1 found)
0x1000f5d7: push edx ; call dword [0x10013078] ;  (1 found)
0x10001138: push edx ; call dword [0x10013090] ;  (1 found)
0x10001297: push edx ; call dword [0x10013090] ;  (1 found)
0x100015de: push edx ; call dword [0x10013090] ;  (1 found)
0x10001c98: push edx ; call dword [0x10013090] ;  (1 found)
0x1000da58: push edx ; call dword [0x10013090] ;  (1 found)
0x100011a1: push edx ; call dword [0x10013094] ;  (1 found)
0x100012ef: push edx ; call dword [0x10013094] ;  (1 found)
0x100016a1: push edx ; call dword [0x10013094] ;  (1 found)
0x1000178d: push edx ; call dword [0x10013094] ;  (1 found)
0x10003b26: push edx ; call dword [0x10013094] ;  (1 found)
0x1000d9cf: push edx ; call dword [0x10013094] ;  (1 found)
0x1000e12b: push edx ; call dword [0x10013094] ;  (1 found)
0x1000e209: push edx ; call dword [0x10013094] ;  (1 found)
0x1001187c: push edx ; call dword [0x100130AC] ;  (1 found)
0x10011a29: push edx ; call dword [0x100130BC] ;  (1 found)
0x1001059e: push edx ; call dword [0x100130DC] ;  (1 found)
0x1001057e: push edx ; call dword [0x100130E0] ;  (1 found)
0x10010506: push edx ; call dword [0x100130E4] ;  (1 found)
0x1001049e: push edx ; call dword [0x100130EC] ;  (1 found)
0x100050ce: push edx ; call dword [0x100130F4] ;  (1 found)
0x1000468e: push edx ; call dword [0x100130F4] ;  (1 found)
0x100103ee: push edx ; call dword [0x10013100] ;  (1 found)
0x10001a0e: push edx ; call dword [0x10013108] ;  (1 found)
0x1000832e: push edx ; call dword [0x10013128] ;  (1 found)
0x10008c38: push edx ; call dword [0x10013128] ;  (1 found)
0x10008e08: push edx ; call dword [0x10013128] ;  (1 found)
0x10008fd8: push edx ; call dword [0x10013128] ;  (1 found)
0x10004a8f: push edx ; call dword [0x1001312C] ;  (1 found)
0x1000f280: push edx ; call dword [0x1001312C] ;  (1 found)
0x10004396: push edx ; call dword [0x10013130] ;  (1 found)
0x10004cd3: push edx ; call dword [0x10013130] ;  (1 found)
0x10007ba8: push edx ; call dword [0x10013130] ;  (1 found)
0x1000bd12: push edx ; call dword [0x10013130] ;  (1 found)
0x1000ebd6: push edx ; call dword [0x10013130] ;  (1 found)
0x10006c92: push edx ; call dword [0x10013134] ;  (1 found)
0x1000f381: push edx ; call dword [0x1001315C] ;  (1 found)
0x1000fec7: push edx ; call dword [0x1002FBAC] ;  (1 found)
0x1001005f: push edx ; call dword [0x1002FBB0] ;  (1 found)
0x1000ff9b: push edx ; call dword [0x1002FBC4] ;  (1 found)
0x100114a9: push edx ; call dword [ebp-0x1C] ;  (1 found)
0x10003c2b: push edx ; call ebp ;  (1 found)
0x100065c3: push edx ; call ebp ;  (1 found)
0x1000a966: push edx ; call ebp ;  (1 found)
0x1000a99a: push edx ; call ebp ;  (1 found)
0x10001673: push edx ; call ebx ;  (1 found)
0x10003995: push edx ; call edi ;  (1 found)
0x10006830: push edx ; call edi ;  (1 found)
0x1000689d: push edx ; call edi ;  (1 found)
0x10006930: push edx ; call edi ;  (1 found)
0x1000698a: push edx ; call edi ;  (1 found)
0x1000b8fd: push edx ; call edi ;  (1 found)
0x1000a181: push edx ; call edi ;  (1 found)
0x1000358b: push edx ; call esi ;  (1 found)
0x1000cc7e: push edx ; call esi ;  (1 found)
0x1000c022: push edx ; call esi ;  (1 found)
0x1000ee36: push edx ; mov dword [edi+0x000006E0], 0x00000000 ; call dword [0x10013094] ;  (1 found)
0x1000382c: push edx ; mov dword [esi+0x60], 0x00000001 ; call dword [0x10013094] ;  (1 found)
0x10002bac: push edx ; mov dword [esp+0x24], ecx ; call dword [0x10013134] ;  (1 found)
0x1000be01: push edx ; mov dword [esp+0x2C], ecx ; mov dword [esp+0x30], 0x00000034 ; call dword [0x10013130] ;  (1 found)
0x1000d3f2: push edx ; mov dword [esp+0x2C], ecx ; mov dword [esp+0x30], edi ; call esi ;  (1 found)
0x1000ce88: push edx ; mov dword [esp+0x4C], eax ; mov dword [esp+0x50], ecx ; call edi ;  (1 found)
0x1000c853: push edx ; mov dword [esp+0x4C], eax ; mov dword [esp+0x50], ecx ; mov dword [esp+0x58], edi ; call dword [0x10013134] ;  (1 found)
0x1000ca63: push edx ; mov dword [esp+0x4C], eax ; mov dword [esp+0x50], ecx ; mov dword [esp+0x58], edi ; call dword [0x10013134] ;  (1 found)
0x1000bff4: push edx ; mov dword [esp+0x54], ebx ; mov dword [esp+0x58], ebp ; call esi ;  (1 found)
0x1000c040: push edx ; mov dword [esp+0x5C], ebx ; mov dword [esp+0x60], ebp ; call esi ;  (1 found)
0x1000d750: push edx ; mov dword [esp+0x68], ecx ; mov dword [esp+0x6C], edi ; call esi ;  (1 found)
0x1000d776: push edx ; mov dword [esp+0x70], edi ; mov dword [esp+0x74], ebp ; call esi ;  (1 found)
0x100114f5: push edx ; mov edi, dword [0x100130B4] ; call edi ;  (1 found)
0x1000f29f: push edx ; mov word [esp+0x18], 0x0002 ; mov dword [esp+0x1C], eax ; call dword [0x10013150] ;  (1 found)
0x10006420: push edx ; movsw  ; call eax ;  (1 found)
0x10011a9b: push edx ; push 0x00000000 ; stosb  ; call dword [0x1001306C] ;  (1 found)
0x1000d66c: push edx ; push 0x000001F7 ; push 0x1001AAF4 ; push 0x000001FB ; call dword [0x10013080] ;  (1 found)
0x100104c2: push edx ; push eax ; call dword [0x100130E8] ;  (1 found)
0x100103d2: push edx ; push eax ; call dword [0x100130F0] ;  (1 found)
0x100051d8: push edx ; push eax ; call dword [0x100130F4] ;  (1 found)
0x100047c1: push edx ; push eax ; call dword [0x100130F4] ;  (1 found)
0x100047c2: push edx ; push eax ; call dword [0x100130F4] ;  (1 found)
0x100108cd: push edx ; push eax ; call dword [0x10013120] ;  (1 found)
0x1000fff7: push edx ; push eax ; call dword [0x1002FBC8] ;  (1 found)
0x1000f120: push edx ; push eax ; call edi ;  (1 found)
0x1000f14f: push edx ; push eax ; call edi ;  (1 found)
0x10006112: push edx ; push eax ; movsw  ; call dword [ebx+0x3A] ;  (1 found)
0x10011525: push edx ; push eax ; push 0x00000000 ; call dword [0x10013068] ;  (1 found)
0x10010886: push edx ; push eax ; push ecx ; call dword [0x10013048] ;  (1 found)
0x10010019: push edx ; push eax ; push ecx ; call dword [0x1002FBCC] ;  (1 found)
0x10011fd2: push edx ; push eax ; push esi ; call dword [0x10013154] ;  (1 found)
0x10006299: push edx ; push ebp ; movsw  ; call eax ;  (1 found)
0x10006aee: push edx ; push ebx ; push ebp ; call dword [ebx+0x08] ;  (1 found)
0x100032c2: push edx ; push ecx ; call esi ;  (1 found)
0x10011548: push edx ; push esi ; call dword [0x10013064] ;  (1 found)
0x1000efe2: push edx ; push esi ; call dword [0x10013158] ;  (1 found)
0x100061ad: push edx ; rep movsd  ; movsw  ; call dword [ebx+0x3E] ;  (1 found)
0x1000ee3a: push es ; add byte [eax], al ; add byte [eax], al ; add byte [eax], al ; call dword [0x10013094] ;  (1 found)
0x10001679: push es ; add byte [eax], al ; mov eax, dword [esp+0x14] ; push eax ; call ebx ;  (1 found)
0x10001756: push es ; add byte [eax], al ; push 0xFFFFFFFF ; push ecx ; call dword [0x10013090] ;  (1 found)
0x1000f1d8: push es ; add byte [eax], al ; push 0xFFFFFFFF ; push ecx ; call dword [0x10013090] ;  (1 found)
0x1000ed31: push es ; add byte [eax], al ; push 0xFFFFFFFF ; push ecx ; call ebx ;  (1 found)
0x100015d9: push es ; add byte [eax], al ; push 0xFFFFFFFF ; push edx ; call dword [0x10013090] ;  (1 found)
0x1000ee22: push es ; add byte [eax], al ; push ecx ; call dword [0x1001308C] ;  (1 found)
0x1000168a: push es ; add byte [eax], al ; push ecx ; call ebx ;  (1 found)
0x10001670: push es ; add byte [eax], al ; push edx ; call ebx ;  (1 found)
0x1000ac02: push es ; call dword [0x1001312C] ;  (1 found)
0x1000ac75: push es ; call ebx ;  (1 found)
0x10010067: push es ; mov ecx, dword [0x1002FD8C] ; push eax ; push ecx ; call dword [0x1002FBA4] ;  (1 found)
0x1000fec0: push es ; mov edx, dword [0x1002FD8C] ; push edx ; call dword [0x1002FBAC] ;  (1 found)
0x10006513: push es ; push 0x0000FFE2 ; call dword [0x1001312C] ;  (1 found)
0x1000e7b3: push es ; push eax ; call dword [0x10013130] ;  (1 found)
0x1000e5d6: push es ; push eax ; call ebp ;  (1 found)
0x1000e988: push es ; push eax ; call ebx ;  (1 found)
0x10010f6a: push es ; push ebx ; push ebp ; push eax ; call edi ;  (1 found)
0x1000f380: push es ; push edx ; call dword [0x1001315C] ;  (1 found)
0x1000b2f4: push esi ; and al, 0x50 ; mov dword [esi+0x28], 0x00000002 ; mov dword [esp+0x18], ebx ; call dword [0x10013134] ;  (1 found)
0x1001037f: push esi ; call dword [0x10013034] ;  (1 found)
0x1001038e: push esi ; call dword [0x10013034] ;  (1 found)
0x10010623: push esi ; call dword [0x10013034] ;  (1 found)
0x10011549: push esi ; call dword [0x10013064] ;  (1 found)
0x100105c0: push esi ; call dword [0x10013070] ;  (1 found)
0x1001195d: push esi ; call dword [0x1001308C] ;  (1 found)
0x10010b2c: push esi ; call dword [0x100130C4] ;  (1 found)
0x10011409: push esi ; call dword [0x100130C8] ;  (1 found)
0x10010b53: push esi ; call dword [0x100130C8] ;  (1 found)
0x1000572a: push esi ; call dword [0x1001312C] ;  (1 found)
0x1000ed91: push esi ; call dword [0x10013138] ;  (1 found)
0x10011ff1: push esi ; call dword [0x10013138] ;  (1 found)
0x1001200e: push esi ; call dword [0x10013138] ;  (1 found)
0x1000ed66: push esi ; call dword [0x1001313C] ;  (1 found)
0x10012007: push esi ; call dword [0x1001313C] ;  (1 found)
0x10011fea: push esi ; call dword [0x1001313C] ;  (1 found)
0x1000f4c5: push esi ; call dword [0x10013148] ;  (1 found)
0x1000f4d4: push esi ; call dword [0x1001314C] ;  (1 found)
0x1000f4d5: push esi ; call dword [0x1001314C] ;  (1 found)
0x10011fd4: push esi ; call dword [0x10013154] ;  (1 found)
0x1000efe3: push esi ; call dword [0x10013158] ;  (1 found)
0x10011f70: push esi ; call dword [0x10013158] ;  (1 found)
0x10011f13: push esi ; call dword [0x1001315C] ;  (1 found)
0x1000f203: push esi ; call dword [0x10013164] ;  (1 found)
0x100039d5: push esi ; call eax ;  (1 found)
0x1000edb5: push esi ; call ebp ;  (1 found)
0x1000edc9: push esi ; call ebx ;  (1 found)
0x1000ef74: push esi ; call ebx ;  (1 found)
0x10003a11: push esi ; call ecx ;  (1 found)
0x10003049: push esi ; call edi ;  (1 found)
0x1000ef88: push esi ; call edi ;  (1 found)
0x100114fe: push esi ; call edi ;  (1 found)
0x1000682c: push esi ; dec esp ; push 0xFFFFFFFF ; push edx ; call edi ;  (1 found)
0x1000692c: push esi ; dec esp ; push 0xFFFFFFFF ; push edx ; call edi ;  (1 found)
0x1000689b: push esi ; dec esp ; push edx ; call edi ;  (1 found)
0x1001179e: push esi ; lea ecx, dword [esi-0x08] ; push ecx ; call dword [0x100130B4] ;  (1 found)
0x100105e3: push esi ; mov byte [ecx], 0x00000000 ; call dword [0x10013034] ;  (1 found)
0x100106f9: push esi ; mov edi, eax ; call dword [0x10013034] ;  (1 found)
0x10011561: push esi ; mov esi, dword [0x100130B0] ; push edi ; push 0x0000000C ; call esi ;  (1 found)
0x1000f4c0: push esi ; mov esi, dword [esp+0x08] ; push esi ; call dword [0x10013148] ;  (1 found)
0x10011f42: push esi ; mov word [esp+0x2E], ax ; call dword [0x10013150] ;  (1 found)
0x100114f3: push esi ; or byte [edx-0x75], dl ; cmp eax, 0x100130B4 ; call edi ;  (1 found)
0x10011871: push esi ; push 0x1001F59C ; push 0x000000FF ; push edx ; call dword [0x100130AC] ;  (1 found)
0x10001981: push esi ; push 0xFFFFFFFF ; push eax ; call dword [0x10013090] ;  (1 found)
0x100109e7: push esi ; push eax ; call dword [0x100130CC] ;  (1 found)
0x1000eedf: push esi ; push eax ; call dword [esi+0x34] ;  (1 found)
0x100123b1: push esi ; push ebx ; call eax ;  (1 found)
0x1001240d: push esi ; push ebx ; call eax ;  (1 found)
0x100063b1: push esi ; push ebx ; push ebp ; call dword [ebx+0x34] ;  (1 found)
0x10006231: push esi ; push ebx ; push ecx ; call dword [ebx+0x34] ;  (1 found)
0x10010657: push esi ; push edi ; call dword [0x10013070] ;  (1 found)
0x100106d0: push esi ; push edi ; call dword [0x10013070] ;  (1 found)
0x10010e58: push esi ; push edi ; mov dword [esp+0x14], 0x00000000 ; call dword [0x1001305C] ;  (1 found)
0x10010320: push esi ; push edi ; mov edi, dword [0x10013070] ; call edi ;  (1 found)
0x1000527e: push esi ; push edi ; push 0x0000000C ; call ebx ;  (1 found)
0x10011933: push esi ; push edi ; xor edi, edi ; call dword [0x1001305C] ;  (1 found)
0x10011a28: push esi ; push edx ; call dword [0x100130BC] ;  (1 found)
0x1000da54: push esi ; xor byte [edx-0x01], ch ; push edx ; call dword [0x10013090] ;  (1 found)
0x10010830: push esp ; and al, 0x00 ; push edx ; call dword [0x10013044] ;  (1 found)
0x10010503: push esp ; and al, 0x00 ; push edx ; call dword [0x100130E4] ;  (1 found)
0x10011a25: push esp ; and al, 0x00 ; push esi ; push edx ; call dword [0x100130BC] ;  (1 found)
0x1000f5d3: push esp ; and al, 0x08 ; push ecx ; push edx ; call dword [0x10013078] ;  (1 found)
0x1000fba0: push esp ; and al, 0x0C ; push edx ; call dword [0x1001301C] ;  (1 found)
0x1000166a: push esp ; and al, 0x10 ; mov dword [esi+0x000006E4], eax ; push edx ; call ebx ;  (1 found)
0x100019e1: push esp ; and al, 0x10 ; movsx eax, byte [esi+edx+0x000003B8] ; push eax ; call edi ;  (1 found)
0x10004a8c: push esp ; and al, 0x10 ; push edx ; call dword [0x1001312C] ;  (1 found)
0x10005a56: push esp ; and al, 0x14 ; push 0x80000000 ; mov dword [edx+0x20], eax ; call ebp ;  (1 found)
0x10010e32: push esp ; and al, 0x14 ; push ecx ; push edx ; call dword [0x10013050] ;  (1 found)
0x1000e348: push esp ; and al, 0x18 ; mov ax, word [edx+0x02] ; push eax ; call esi ;  (1 found)
0x10011545: push esp ; and al, 0x18 ; push edx ; push esi ; call dword [0x10013064] ;  (1 found)
0x1000ac5a: push esp ; and al, 0x1C ; mov dword [esp+0x20], eax ; call ebx ;  (1 found)
0x1000d3c6: push esp ; and al, 0x1C ; mov dword [esp+0x20], edi ; call esi ;  (1 found)
0x10009f81: push esp ; and al, 0x38 ; mov dword [esp+0x3C], ecx ; call ebp ;  (1 found)
0x10009f42: push esp ; and al, 0x38 ; mov dword [esp+0x44], ecx ; call edi ;  (1 found)
0x10009bca: push esp ; and al, 0x40 ; mov dword [esp+0x38], ecx ; call ebp ;  (1 found)
0x10009f0d: push esp ; and al, 0x44 ; mov dword [esp+0x40], ecx ; call edi ;  (1 found)
0x1000d11d: push esp ; and al, 0x44 ; mov dword [esp+0x48], ebp ; mov dword [esp+0x4C], edi ; call esi ;  (1 found)
0x1000b6f6: push esp ; and al, 0x4C ; mov dword [esp+0x50], eax ; call dword [0x10013134] ;  (1 found)
0x1000cc6a: push esp ; and al, 0x50 ; mov dword [esp+0x54], eax ; call esi ;  (1 found)
0x10002ba9: push esp ; and al, 0x58 ; push edx ; mov dword [esp+0x24], ecx ; call dword [0x10013134] ;  (1 found)
0x1000bb2f: push esp ; and al, 0x5C ; mov eax, dword [eax+0x0C] ; mov dword [esp+0x60], eax ; call dword [0x1001312C] ;  (1 found)
0x1000a158: push esp ; and al, 0x5C ; mov eax, dword [eax+0x0C] ; mov dword [esp+0x60], eax ; call edi ;  (1 found)
0x1000c28a: push esp ; and al, 0x60 ; call dword [0x10013134] ;  (1 found)
0x1000d72b: push esp ; and al, 0x60 ; mov dword [esp+0x64], eax ; call esi ;  (1 found)
0x1000cc70: push esp ; call esi ;  (1 found)
0x1000d14d: push esp ; call esi ;  (1 found)
0x1000bff8: push esp ; mov dword [esp+0x58], ebp ; call esi ;  (1 found)
0x1000cc7d: push esp ; push edx ; call esi ;  (1 found)
0x1000fa42: push esp ; ret  ;  (1 found)
0x100019e7: push ss ; mov eax, 0x50000003 ; call edi ;  (1 found)
0x1000382f: pushad  ; add dword [eax], eax ; add byte [eax], al ; call dword [0x10013094] ;  (1 found)
0x1000bb38: pushad  ; call dword [0x1001312C] ;  (1 found)
0x1000c28c: pushad  ; call dword [0x10013134] ;  (1 found)
0x1000a161: pushad  ; call edi ;  (1 found)
0x1000c048: pushad  ; call esi ;  (1 found)
0x1000d72d: pushad  ; mov dword [esp+0x64], eax ; call esi ;  (1 found)
0x1000f219: pushad  ; retn 0x1001 ;  (1 found)
0x1000f65a: pushad  ; sti  ; add dl, byte [eax] ; call dword [0x10013028] ;  (1 found)
0x1000d0c6: pushfd  ; and al, 0xB0 ; add byte [eax], al ; add byte [edx+0x03], ch ; call dword [0x1001312C] ;  (1 found)
0x1000d35f: pushfd  ; and al, 0xC0 ; add byte [eax], al ; add byte [edx+0x04], ch ; call dword [0x1001312C] ;  (1 found)
0x10002406: rcl byte [ecx-0x7F], 1  ; retn 0x1000 ;  (1 found)
0x10010612: rcl byte [esi+0x74], 0x0000000E ; call dword [0x10013034] ;  (1 found)
0x1000545b: rcl dword [eax-0x77], cl ; inc esp ; and al, 0x14 ; call dword [0x10013130] ;  (1 found)
0x10005481: rcl dword [eax-0x77], cl ; inc esp ; and al, 0x7C ; call dword [0x10013130] ;  (1 found)
0x100032b9: rcl dword [ecx-0x73], 1  ; mov word [esp+ebp], fs ; add al, byte [eax] ; add byte [edx+0x51], dl ; call esi ;  (1 found)
0x1001104c: rcr byte [ebx+0x74], 0x00000007 ; push eax ; call dword [0x10013054] ;  (1 found)
0x100106bf: rcr byte [ebx-0x7F], 0xFFFFFFC4 ; add byte [eax], cl ; add byte [eax], al ; ret  ;  (1 found)
0x100116e1: rcr byte [ebx-0x7F], 0xFFFFFFC4 ; add byte [ecx], al ; add byte [eax], al ; ret  ;  (1 found)
0x1001201a: rcr byte [ebx-0x7F], 0xFFFFFFC4 ; sub byte [ecx], dl ; add byte [eax], al ; ret  ;  (1 found)
0x1000c75b: rcr byte [edi+0x5E], 0x0000005B ; add esp, 0x00000080 ; ret  ;  (1 found)
0x1000fe74: rcr byte [edi+0x5E], 0x0000005B ; add esp, 0x00000918 ; ret  ;  (1 found)
0x1000af20: rcr byte [edi+0x5E], 0x0000005B ; add esp, 0x78 ; ret  ;  (1 found)
0x1000b24c: rcr byte [edi+0x5E], 0x0000005B ; add esp, 0x78 ; ret  ;  (1 found)
0x10010c3e: rcr byte [edi+0x5E], 0x0000005B ; neg eax ; add esp, 0x00000230 ; ret  ;  (1 found)
0x100060b5: rcr byte [edi+0x5E], 0x0000005B ; ret  ;  (1 found)
0x10006152: rcr byte [edi+0x5E], 0x0000005B ; ret  ;  (1 found)
0x100061ed: rcr byte [edi+0x5E], 0x0000005B ; ret  ;  (1 found)
0x1000e896: rcr byte [edi+0x5E], 0x0000005B ; ret  ;  (1 found)
0x1000e8dd: rcr byte [edi+0x5E], 0x0000005B ; ret  ;  (1 found)
0x1000d277: rcr byte [edi+0x5E], 0x0000005D ; add esp, 0x00000098 ; ret  ;  (1 found)
0x1000d545: rcr byte [edi+0x5E], 0x0000005D ; add esp, 0x000000A8 ; ret  ;  (1 found)
0x1000b0c0: rcr byte [edi+0x5E], 0x0000005D ; add esp, 0x78 ; ret  ;  (1 found)
0x1000b40c: rcr byte [edi+0x5E], 0x0000005D ; pop ebx ; add esp, 0x00000080 ; ret  ;  (1 found)
0x1000ba14: rcr byte [edi+0x5E], 0x0000005D ; pop ebx ; add esp, 0x00000080 ; ret  ;  (1 found)
0x1000b605: rcr byte [edi+0x5E], 0x0000005D ; pop ebx ; add esp, 0x0000008C ; ret  ;  (1 found)
0x1000ad85: rcr byte [edi+0x5E], 0x0000005D ; pop ebx ; add esp, 0x0000008C ; ret  ;  (1 found)
0x1000b824: rcr byte [edi+0x5E], 0x0000005D ; pop ebx ; add esp, 0x00000090 ; ret  ;  (1 found)
0x1000c96d: rcr byte [edi+0x5E], 0x0000005D ; pop ebx ; add esp, 0x00000090 ; ret  ;  (1 found)
0x1000cb7d: rcr byte [edi+0x5E], 0x0000005D ; pop ebx ; add esp, 0x00000090 ; ret  ;  (1 found)
0x1000c5b7: rcr byte [edi+0x5E], 0x0000005D ; pop ebx ; add esp, 0x00000090 ; ret  ;  (1 found)
0x1000cd9f: rcr byte [edi+0x5E], 0x0000005D ; pop ebx ; add esp, 0x00000098 ; ret  ;  (1 found)
0x1000c39b: rcr byte [edi+0x5E], 0x0000005D ; pop ebx ; add esp, 0x0000009C ; ret  ;  (1 found)
0x1000cfe7: rcr byte [edi+0x5E], 0x0000005D ; pop ebx ; add esp, 0x000000A0 ; ret  ;  (1 found)
0x1000c169: rcr byte [edi+0x5E], 0x0000005D ; pop ebx ; add esp, 0x000000A8 ; ret  ;  (1 found)
0x1000bc5c: rcr byte [edi+0x5E], 0x0000005D ; pop ebx ; add esp, 0x000000AC ; ret  ;  (1 found)
0x1000bed9: rcr byte [edi+0x5E], 0x0000005D ; pop ebx ; add esp, 0x000000AC ; ret  ;  (1 found)
0x1000a2ac: rcr byte [edi+0x5E], 0x0000005D ; pop ebx ; add esp, 0x000000B4 ; ret  ;  (1 found)
0x1000a714: rcr byte [edi+0x5E], 0x0000005D ; pop ebx ; add esp, 0x000000B4 ; ret  ;  (1 found)
0x1000d903: rcr byte [edi+0x5E], 0x0000005D ; pop ebx ; add esp, 0x000000C8 ; ret  ;  (1 found)
0x1000dc29: rcr byte [edi+0x5E], 0x0000005D ; pop ebx ; add esp, 0x10 ; ret  ;  (1 found)
0x1000dff0: rcr byte [edi+0x5E], 0x0000005D ; pop ebx ; add esp, 0x10 ; ret  ;  (1 found)
0x1000dfbc: rcr byte [edi+0x5E], 0x0000005D ; pop ebx ; add esp, 0x10 ; ret  ;  (1 found)
0x1000ab6d: rcr byte [edi+0x5E], 0x0000005D ; pop ebx ; add esp, 0x7C ; ret  ;  (1 found)
0x10001eac: rcr byte [edi+0x5E], 0x0000005D ; pop ebx ; ret  ;  (1 found)
0x10005f07: rcr byte [edi+0x5E], 0x0000005D ; pop ebx ; ret  ;  (1 found)
0x1001206d: rcr byte [edi+0x5E], 0x0000005D ; pop ebx ; ret  ;  (1 found)
0x10010797: rcr byte [edi+0x5E], 0xFFFFFF81 ; les eax,  [eax+edx] ; add byte [eax], al ; ret  ;  (1 found)
0x10011afb: rcr byte [edi-0x7F], 0xFFFFFFC4 ; add al, 0x01 ; add byte [eax], al ; ret  ;  (1 found)
0x10003578: rcr byte [esi+0x5D], 0x0000005B ; ret  ;  (1 found)
0x1000f19a: rcr byte [esi-0x09], 0xFFFFFFD8 ; dec eax ; ret  ;  (1 found)
0x1001037c: rcr byte [esi-0x3D], 0x00000056 ; call dword [0x10013034] ;  (1 found)
0x10011915: rcr byte [esi-0x7F], 0xFFFFFFC4 ; add byte [ecx], al ; add byte [eax], al ; ret  ;  (1 found)
0x1001069e: rep movsb  ; call dword [0x10013034] ;  (1 found)
0x10005220: rep movsb  ; call dword [0x1001312C] ;  (1 found)
0x100030c2: rep movsb  ; mov dword [esp+0x10], eax ; mov eax, dword [esp+0x10] ; push eax ; call dword [0x1001312C] ;  (1 found)
0x1000f532: rep movsb  ; mov eax, dword [esp+0x0C] ; pop edi ; pop esi ; ret  ;  (1 found)
0x10003038: rep movsb  ; mov edi, dword [0x1001312C] ; call edi ;  (1 found)
0x100056c9: rep movsb  ; mov edi, dword [esp+0x1C] ; push edi ; call dword [0x1001312C] ;  (1 found)
0x10005724: rep movsb  ; mov esi, dword [esp+0x20] ; push esi ; call dword [0x1001312C] ;  (1 found)
0x10010430: rep movsb  ; pop edi ; pop esi ; pop ebx ; ret  ;  (1 found)
0x10010487: rep movsb  ; pop edi ; pop esi ; ret  ;  (1 found)
0x10011aef: rep movsb  ; pop esi ; pop edi ; add esp, 0x00000104 ; ret  ;  (1 found)
0x10010697: rep movsd  ; mov ecx, edx ; and ecx, 0x03 ; rep movsb  ; call dword [0x10013034] ;  (1 found)
0x10005219: rep movsd  ; mov ecx, edx ; and ecx, 0x03 ; rep movsb  ; call dword [0x1001312C] ;  (1 found)
0x100061ae: rep movsd  ; movsw  ; call dword [ebx+0x3E] ;  (1 found)
0x1000654c: rep movsd  ; push ebx ; call eax ;  (1 found)
0x1000641e: rep movsd  ; push edx ; movsw  ; call eax ;  (1 found)
0x10006110: rep movsd  ; push edx ; push eax ; movsw  ; call dword [ebx+0x3A] ;  (1 found)
0x10006297: rep movsd  ; push edx ; push ebp ; movsw  ; call eax ;  (1 found)
0x10010bcc: rep stosd  ; lea ecx, dword [esp+0x00000128] ; mov dword [esp+0x00000128], 0x00000114 ; push ecx ; call ebx ;  (1 found)
0x10001022: ret  ;  (1 found)
0x10001083: ret  ;  (1 found)
0x100010b0: ret  ;  (1 found)
0x100011a9: ret  ;  (1 found)
0x100011f8: ret  ;  (1 found)
0x10001240: ret  ;  (1 found)
0x10001557: ret  ;  (1 found)
0x100014bc: ret  ;  (1 found)
0x10001414: ret  ;  (1 found)
0x1000144c: ret  ;  (1 found)
0x100013a3: ret  ;  (1 found)
0x100015d5: ret  ;  (1 found)
0x100016dd: ret  ;  (1 found)
0x1000170f: ret  ;  (1 found)
0x100018bf: ret  ;  (1 found)
0x10001802: ret  ;  (1 found)
0x10001893: ret  ;  (1 found)
0x100017b9: ret  ;  (1 found)
0x1000197a: ret  ;  (1 found)
0x10001c48: ret  ;  (1 found)
0x10001df1: ret  ;  (1 found)
0x10001eb1: ret  ;  (1 found)
0x10001d5a: ret  ;  (1 found)
0x10001d9c: ret  ;  (1 found)
0x10001ee4: ret  ;  (1 found)
0x10001c6d: ret  ;  (1 found)
0x100023f0: ret  ;  (1 found)
0x10001d16: ret  ;  (1 found)
0x100021d3: ret  ;  (1 found)
0x10002239: ret  ;  (1 found)
0x10002294: ret  ;  (1 found)
0x10002324: ret  ;  (1 found)
0x1000208f: ret  ;  (1 found)
0x10001f4c: ret  ;  (1 found)
0x100020c3: ret  ;  (1 found)
0x10002169: ret  ;  (1 found)
0x10001fd8: ret  ;  (1 found)
0x10002973: ret  ;  (1 found)
0x10002b0d: ret  ;  (1 found)
0x10002841: ret  ;  (1 found)
0x100029a4: ret  ;  (1 found)
0x10002adc: ret  ;  (1 found)
0x10002c77: ret  ;  (1 found)
0x10002cab: ret  ;  (1 found)
0x10002745: ret  ;  (1 found)
0x10002576: ret  ;  (1 found)
0x10002778: ret  ;  (1 found)
0x1000277f: ret  ;  (1 found)
0x1000280e: ret  ;  (1 found)
0x1000274c: ret  ;  (1 found)
0x100025a9: ret  ;  (1 found)
0x10002f16: ret  ;  (1 found)
0x10002f25: ret  ;  (1 found)
0x10002dd7: ret  ;  (1 found)
0x10002e08: ret  ;  (1 found)
0x10003185: ret  ;  (1 found)
0x1000373e: ret  ;  (1 found)
0x10003743: ret  ;  (1 found)
0x100037ef: ret  ;  (1 found)
0x100034fd: ret  ;  (1 found)
0x100031b8: ret  ;  (1 found)
0x1000357c: ret  ;  (1 found)
0x10003597: ret  ;  (1 found)
0x1000362d: ret  ;  (1 found)
0x10003a7e: ret  ;  (1 found)
0x10003ad6: ret  ;  (1 found)
0x10003b6f: ret  ;  (1 found)
0x1000393b: ret  ;  (1 found)
0x1000385f: ret  ;  (1 found)
0x10003d66: ret  ;  (1 found)
0x10004236: ret  ;  (1 found)
0x100040d9: ret  ;  (1 found)
0x10004165: ret  ;  (1 found)
0x1000434a: ret  ;  (1 found)
0x10004326: ret  ;  (1 found)
0x10004609: ret  ;  (1 found)
0x10003c7e: ret  ;  (1 found)
0x10003d0f: ret  ;  (1 found)
0x10005043: ret  ;  (1 found)
0x10005149: ret  ;  (1 found)
0x10006360: ret  ;  (1 found)
0x100047b1: ret  ;  (1 found)
0x1000470a: ret  ;  (1 found)
0x10004920: ret  ;  (1 found)
0x10004848: ret  ;  (1 found)
0x1000539e: ret  ;  (1 found)
0x10005bce: ret  ;  (1 found)
0x10005c93: ret  ;  (1 found)
0x10005d98: ret  ;  (1 found)
0x10005dcb: ret  ;  (1 found)
0x10005ce8: ret  ;  (1 found)
0x10005d2e: ret  ;  (1 found)
0x10005e05: ret  ;  (1 found)
0x10005e04: ret  ;  (1 found)
0x10005ea0: ret  ;  (1 found)
0x10005ebd: ret  ;  (1 found)
0x10005e19: ret  ;  (1 found)
0x10005dd8: ret  ;  (1 found)
0x10005f73: ret  ;  (1 found)
0x10005f0c: ret  ;  (1 found)
0x10005feb: ret  ;  (1 found)
0x100060b9: ret  ;  (1 found)
0x10006156: ret  ;  (1 found)
0x10006044: ret  ;  (1 found)
0x10006066: ret  ;  (1 found)
0x100061f1: ret  ;  (1 found)
0x10005267: ret  ;  (1 found)
0x100068d4: ret  ;  (1 found)
0x100069b3: ret  ;  (1 found)
0x10006bd6: ret  ;  (1 found)
0x10006b63: ret  ;  (1 found)
0x10006bf4: ret  ;  (1 found)
0x100064b4: ret  ;  (1 found)
0x10006665: ret  ;  (1 found)
0x100067df: ret  ;  (1 found)
0x10006f70: ret  ;  (1 found)
0x10006fdb: ret  ;  (1 found)
0x10007044: ret  ;  (1 found)
0x100071d0: ret  ;  (1 found)
0x10007107: ret  ;  (1 found)
0x10007202: ret  ;  (1 found)
0x10007397: ret  ;  (1 found)
0x10007422: ret  ;  (1 found)
0x10007365: ret  ;  (1 found)
0x10007292: ret  ;  (1 found)
0x100074e4: ret  ;  (1 found)
0x100075a2: ret  ;  (1 found)
0x10007674: ret  ;  (1 found)
0x100074a8: ret  ;  (1 found)
0x10007515: ret  ;  (1 found)
0x10007732: ret  ;  (1 found)
0x10007809: ret  ;  (1 found)
0x100078f7: ret  ;  (1 found)
0x1000783a: ret  ;  (1 found)
0x100076a6: ret  ;  (1 found)
0x100079cf: ret  ;  (1 found)
0x10007a01: ret  ;  (1 found)
0x10007aee: ret  ;  (1 found)
0x10007bef: ret  ;  (1 found)
0x10007c74: ret  ;  (1 found)
0x10007e1b: ret  ;  (1 found)
0x10007de8: ret  ;  (1 found)
0x1000805d: ret  ;  (1 found)
0x10007f9d: ret  ;  (1 found)
0x10006dec: ret  ;  (1 found)
0x10006e90: ret  ;  (1 found)
0x10009400: ret  ;  (1 found)
0x10009234: ret  ;  (1 found)
0x1000942c: ret  ;  (1 found)
0x100093fb: ret  ;  (1 found)
0x1000931b: ret  ;  (1 found)
0x100096fd: ret  ;  (1 found)
0x10009431: ret  ;  (1 found)
0x100096d1: ret  ;  (1 found)
0x1000952f: ret  ;  (1 found)
0x100096c9: ret  ;  (1 found)
0x10009962: ret  ;  (1 found)
0x10009968: ret  ;  (1 found)
0x10009705: ret  ;  (1 found)
0x10009846: ret  ;  (1 found)
0x10009936: ret  ;  (1 found)
0x10009930: ret  ;  (1 found)
0x10009abe: ret  ;  (1 found)
0x10009c30: ret  ;  (1 found)
0x1000837b: ret  ;  (1 found)
0x100083a6: ret  ;  (1 found)
0x100083ac: ret  ;  (1 found)
0x10008469: ret  ;  (1 found)
0x100081cc: ret  ;  (1 found)
0x10008289: ret  ;  (1 found)
0x10008375: ret  ;  (1 found)
0x10008659: ret  ;  (1 found)
0x10008593: ret  ;  (1 found)
0x10008599: ret  ;  (1 found)
0x10008568: ret  ;  (1 found)
0x10008752: ret  ;  (1 found)
0x10008562: ret  ;  (1 found)
0x1000895b: ret  ;  (1 found)
0x10008789: ret  ;  (1 found)
0x10008849: ret  ;  (1 found)
0x10008783: ret  ;  (1 found)
0x1000892a: ret  ;  (1 found)
0x10008924: ret  ;  (1 found)
0x10008758: ret  ;  (1 found)
0x10008955: ret  ;  (1 found)
0x10008ab9: ret  ;  (1 found)
0x100089fc: ret  ;  (1 found)
0x10008aec: ret  ;  (1 found)
0x10008ba7: ret  ;  (1 found)
0x10008c85: ret  ;  (1 found)
0x10008cb6: ret  ;  (1 found)
0x10008e86: ret  ;  (1 found)
0x10008d77: ret  ;  (1 found)
0x10008e55: ret  ;  (1 found)
0x10008f47: ret  ;  (1 found)
0x10009025: ret  ;  (1 found)
0x10009056: ret  ;  (1 found)
0x10009116: ret  ;  (1 found)
0x10009203: ret  ;  (1 found)
0x1000b5e0: ret  ;  (1 found)
0x1000b610: ret  ;  (1 found)
0x1000b417: ret  ;  (1 found)
0x1000b7ff: ret  ;  (1 found)
0x1000b720: ret  ;  (1 found)
0x1000b82f: ret  ;  (1 found)
0x1000b9ef: ret  ;  (1 found)
0x1000ba1f: ret  ;  (1 found)
0x1000bc37: ret  ;  (1 found)
0x1000bc67: ret  ;  (1 found)
0x10009c63: ret  ;  (1 found)
0x10009e34: ret  ;  (1 found)
0x1000bdc3: ret  ;  (1 found)
0x10009ff1: ret  ;  (1 found)
0x10009ff7: ret  ;  (1 found)
0x1000a023: ret  ;  (1 found)
0x1000a029: ret  ;  (1 found)
0x1000a287: ret  ;  (1 found)
0x1000a2b7: ret  ;  (1 found)
0x1000a378: ret  ;  (1 found)
0x1000a4b1: ret  ;  (1 found)
0x1000a4e3: ret  ;  (1 found)
0x1000a6ef: ret  ;  (1 found)
0x1000a7d7: ret  ;  (1 found)
0x1000a62b: ret  ;  (1 found)
0x1000a71f: ret  ;  (1 found)
0x1000a8c6: ret  ;  (1 found)
0x1000a895: ret  ;  (1 found)
0x1000aa01: ret  ;  (1 found)
0x1000ab48: ret  ;  (1 found)
0x1000ab75: ret  ;  (1 found)
0x1000ad60: ret  ;  (1 found)
0x1000ac86: ret  ;  (1 found)
0x1000ad90: ret  ;  (1 found)
0x1000aefb: ret  ;  (1 found)
0x1000b09b: ret  ;  (1 found)
0x1000af27: ret  ;  (1 found)
0x1000b03b: ret  ;  (1 found)
0x1000b253: ret  ;  (1 found)
0x1000b227: ret  ;  (1 found)
0x1000b0c7: ret  ;  (1 found)
0x1000b3e7: ret  ;  (1 found)
0x1000b314: ret  ;  (1 found)
0x1000cb58: ret  ;  (1 found)
0x1000cb88: ret  ;  (1 found)
0x1000cdaa: ret  ;  (1 found)
0x1000cd7a: ret  ;  (1 found)
0x1000cff2: ret  ;  (1 found)
0x1000cfc2: ret  ;  (1 found)
0x1000d0c3: ret  ;  (1 found)
0x1000d35c: ret  ;  (1 found)
0x1000d281: ret  ;  (1 found)
0x1000d252: ret  ;  (1 found)
0x1000d51f: ret  ;  (1 found)
0x1000d54f: ret  ;  (1 found)
0x1000beb4: ret  ;  (1 found)
0x1000bee4: ret  ;  (1 found)
0x1000c144: ret  ;  (1 found)
0x1000c174: ret  ;  (1 found)
0x1000c376: ret  ;  (1 found)
0x1000c3a6: ret  ;  (1 found)
0x1000c5c2: ret  ;  (1 found)
0x1000c592: ret  ;  (1 found)
0x1000c736: ret  ;  (1 found)
0x1000c765: ret  ;  (1 found)
0x1000c948: ret  ;  (1 found)
0x1000c978: ret  ;  (1 found)
0x1000e441: ret  ;  (1 found)
0x1000e490: ret  ;  (1 found)
0x1000e4d9: ret  ;  (1 found)
0x1000e4fb: ret  ;  (1 found)
0x1000e55b: ret  ;  (1 found)
0x1000e676: ret  ;  (1 found)
0x1000e6a3: ret  ;  (1 found)
0x1000e83f: ret  ;  (1 found)
0x1000e89a: ret  ;  (1 found)
0x1000e8e1: ret  ;  (1 found)
0x1000e91d: ret  ;  (1 found)
0x1000ea15: ret  ;  (1 found)
0x1000eb33: ret  ;  (1 found)
0x1000ea44: ret  ;  (1 found)
0x1000ecc5: ret  ;  (1 found)
0x1000ecf0: ret  ;  (1 found)
0x1000ecf8: ret  ;  (1 found)
0x1000ecbd: ret  ;  (1 found)
0x1000d8de: ret  ;  (1 found)
0x1000d90e: ret  ;  (1 found)
0x1000d9fc: ret  ;  (1 found)
0x1000da52: ret  ;  (1 found)
0x1000dbe2: ret  ;  (1 found)
0x1000db3d: ret  ;  (1 found)
0x1000db8a: ret  ;  (1 found)
0x1000da9a: ret  ;  (1 found)
0x1000dc31: ret  ;  (1 found)
0x1000dd62: ret  ;  (1 found)
0x1000dc7b: ret  ;  (1 found)
0x1000de30: ret  ;  (1 found)
0x1000dea3: ret  ;  (1 found)
0x1000dcdc: ret  ;  (1 found)
0x1000dfc4: ret  ;  (1 found)
0x1000dff8: ret  ;  (1 found)
0x1000e06b: ret  ;  (1 found)
0x1000e158: ret  ;  (1 found)
0x1000e33a: ret  ;  (1 found)
0x1000e23a: ret  ;  (1 found)
0x1000e3c0: ret  ;  (1 found)
0x1000ef00: ret  ;  (1 found)
0x1000ee6b: ret  ;  (1 found)
0x1000eec8: ret  ;  (1 found)
0x1000ef30: ret  ;  (1 found)
0x1000ef4b: ret  ;  (1 found)
0x1000ef91: ret  ;  (1 found)
0x1000f051: ret  ;  (1 found)
0x1000f04c: ret  ;  (1 found)
0x1000f19f: ret  ;  (1 found)
0x1000f168: ret  ;  (1 found)
0x1000f259: ret  ;  (1 found)
0x1000f36f: ret  ;  (1 found)
0x1000f46b: ret  ;  (1 found)
0x1000f507: ret  ;  (1 found)
0x1000f4b8: ret  ;  (1 found)
0x1000f53a: ret  ;  (1 found)
0x1000f5b5: ret  ;  (1 found)
0x1000f604: ret  ;  (1 found)
0x1000f658: ret  ;  (1 found)
0x1000f66c: ret  ;  (1 found)
0x1000f68d: ret  ;  (1 found)
0x1000f6ab: ret  ;  (1 found)
0x1000f69b: ret  ;  (1 found)
0x1000f718: ret  ;  (1 found)
0x1000f8c3: ret  ;  (1 found)
0x1000f6ec: ret  ;  (1 found)
0x1000f6c2: ret  ;  (1 found)
0x1000fb03: ret  ;  (1 found)
0x1000f8fc: ret  ;  (1 found)
0x1000f999: ret  ;  (1 found)
0x1000f919: ret  ;  (1 found)
0x1000f979: ret  ;  (1 found)
0x1000f9b9: ret  ;  (1 found)
0x1000fa43: ret  ;  (1 found)
0x1000fbe2: ret  ;  (1 found)
0x1000fda3: ret  ;  (1 found)
0x1000fd8b: ret  ;  (1 found)
0x1000fde4: ret  ;  (1 found)
0x1000fe43: ret  ;  (1 found)
0x1000fe7e: ret  ;  (1 found)
0x1000fdf9: ret  ;  (1 found)
0x10011061: ret  ;  (1 found)
0x10011378: ret  ;  (1 found)
0x1001137e: ret  ;  (1 found)
0x100113e1: ret  ;  (1 found)
0x100113fd: ret  ;  (1 found)
0x1001139e: ret  ;  (1 found)
0x10011492: ret  ;  (1 found)
0x10011419: ret  ;  (1 found)
0x100114eb: ret  ;  (1 found)
0x10011553: ret  ;  (1 found)
0x10011558: ret  ;  (1 found)
0x100115ca: ret  ;  (1 found)
0x10011683: ret  ;  (1 found)
0x100116e9: ret  ;  (1 found)
0x10011780: ret  ;  (1 found)
0x100117fe: ret  ;  (1 found)
0x100118a3: ret  ;  (1 found)
0x1001192b: ret  ;  (1 found)
0x1001191d: ret  ;  (1 found)
0x10011975: ret  ;  (1 found)
0x1001196d: ret  ;  (1 found)
0x1000ff3e: ret  ;  (1 found)
0x1000ffa9: ret  ;  (1 found)
0x1001003e: ret  ;  (1 found)
0x10010029: ret  ;  (1 found)
0x100100cc: ret  ;  (1 found)
0x10010096: ret  ;  (1 found)
0x100101e2: ret  ;  (1 found)
0x10010351: ret  ;  (1 found)
0x10010310: ret  ;  (1 found)
0x10010399: ret  ;  (1 found)
0x1001037e: ret  ;  (1 found)
0x1001038d: ret  ;  (1 found)
0x100103b9: ret  ;  (1 found)
0x100103dd: ret  ;  (1 found)
0x100103f8: ret  ;  (1 found)
0x1001042c: ret  ;  (1 found)
0x10010452: ret  ;  (1 found)
0x1001048b: ret  ;  (1 found)
0x10010435: ret  ;  (1 found)
0x100104a8: ret  ;  (1 found)
0x10010501: ret  ;  (1 found)
0x100104cd: ret  ;  (1 found)
0x10010516: ret  ;  (1 found)
0x10010571: ret  ;  (1 found)
0x1001058e: ret  ;  (1 found)
0x100105be: ret  ;  (1 found)
0x100105a8: ret  ;  (1 found)
0x100105f3: ret  ;  (1 found)
0x1001062d: ret  ;  (1 found)
0x10010622: ret  ;  (1 found)
0x10010649: ret  ;  (1 found)
0x100106b4: ret  ;  (1 found)
0x100106c7: ret  ;  (1 found)
0x10010706: ret  ;  (1 found)
0x1001071f: ret  ;  (1 found)
0x100107b9: ret  ;  (1 found)
0x100107f1: ret  ;  (1 found)
0x1001075f: ret  ;  (1 found)
0x100107a0: ret  ;  (1 found)
0x100107f7: ret  ;  (1 found)
0x1001082e: ret  ;  (1 found)
0x10010840: ret  ;  (1 found)
0x10010860: ret  ;  (1 found)
0x1001088f: ret  ;  (1 found)
0x1001094a: ret  ;  (1 found)
0x1001090a: ret  ;  (1 found)
0x100108fe: ret  ;  (1 found)
0x100109b3: ret  ;  (1 found)
0x100109d5: ret  ;  (1 found)
0x1001099d: ret  ;  (1 found)
0x10010a4a: ret  ;  (1 found)
0x10010a64: ret  ;  (1 found)
0x10010a82: ret  ;  (1 found)
0x10010bf0: ret  ;  (1 found)
0x10010b3d: ret  ;  (1 found)
0x10010b76: ret  ;  (1 found)
0x10010c90: ret  ;  (1 found)
0x10010ce0: ret  ;  (1 found)
0x10010c4a: ret  ;  (1 found)
0x10010dc8: ret  ;  (1 found)
0x10010d0b: ret  ;  (1 found)
0x10010d24: ret  ;  (1 found)
0x10010e01: ret  ;  (1 found)
0x10010e43: ret  ;  (1 found)
0x10012022: ret  ;  (1 found)
0x10012072: ret  ;  (1 found)
0x100120f3: ret  ;  (1 found)
0x100120b3: ret  ;  (1 found)
0x10012120: ret  ;  (1 found)
0x10012112: ret  ;  (1 found)
0x100122ce: ret  ;  (1 found)
0x10011af9: ret  ;  (1 found)
0x10011b03: ret  ;  (1 found)
0x10011a6c: ret  ;  (1 found)
0x10011b43: ret  ;  (1 found)
0x10011b4b: ret  ;  (1 found)
0x10011b98: ret  ;  (1 found)
0x10011b60: ret  ;  (1 found)
0x10011bc1: ret  ;  (1 found)
0x10011be8: ret  ;  (1 found)
0x10011c14: ret  ;  (1 found)
0x10011ceb: ret  ;  (1 found)
0x10011ed5: ret  ;  (1 found)
0x10011c4b: ret  ;  (1 found)
0x10011c42: ret  ;  (1 found)
0x10011f04: ret  ;  (1 found)
0x10012004: ret  ;  (1 found)
0x10003cc8: retn 0x0000 ;  (1 found)
0x10003ce2: retn 0x0000 ;  (1 found)
0x1000535e: retn 0x0000 ;  (1 found)
0x10005b97: retn 0x0000 ;  (1 found)
0x10005e93: retn 0x0000 ;  (1 found)
0x10005f31: retn 0x0000 ;  (1 found)
0x10005f00: retn 0x0000 ;  (1 found)
0x10007275: retn 0x0000 ;  (1 found)
0x10009bb1: retn 0x0000 ;  (1 found)
0x1000239f: retn 0x0001 ;  (1 found)
0x100114d7: retn 0x0004 ;  (1 found)
0x1000699a: retn 0x0006 ;  (1 found)
0x10010153: retn 0x000C ;  (1 found)
0x1001241b: retn 0x000C ;  (1 found)
0x1001237e: retn 0x000C ;  (1 found)
0x10012441: retn 0x000C ;  (1 found)
0x10012295: retn 0x0010 ;  (1 found)
0x10012227: retn 0x0010 ;  (1 found)
0x1000d07c: retn 0x0050 ;  (1 found)
0x1000c57c: retn 0x005B ;  (1 found)
0x10003570: retn 0x00EB ;  (1 found)
0x10001a09: retn 0x03B8 ;  (1 found)
0x10002409: retn 0x1000 ;  (1 found)
0x1000f1ae: retn 0x1001 ;  (1 found)
0x1000f21a: retn 0x1001 ;  (1 found)
0x1000f2cf: retn 0x1001 ;  (1 found)
0x1000f395: retn 0x1001 ;  (1 found)
0x1000f4e8: retn 0x1001 ;  (1 found)
0x1000f56c: retn 0x1001 ;  (1 found)
0x1000f634: retn 0x1001 ;  (1 found)
0x1000f751: retn 0x1001 ;  (1 found)
0x1000f750: retn 0x1001 ;  (1 found)
0x10005fb8: retn 0x2B26 ;  (1 found)
0x1000e972: retn 0x4489 ;  (1 found)
0x10005453: retn 0x5220 ;  (1 found)
0x1000d49b: retn 0x5489 ;  (1 found)
0x1000be40: retn 0x548B ;  (1 found)
0x10007f01: retn 0x5604 ;  (1 found)
0x1000b016: retn 0x5C89 ;  (1 found)
0x1000a0b5: retn 0x656A ;  (1 found)
0x1000e518: retn 0x6803 ;  (1 found)
0x100054cd: retn 0x8000 ;  (1 found)
0x10003fed: retn 0x8304 ;  (1 found)
0x10004793: retn 0x8310 ;  (1 found)
0x10004da5: retn 0x8914 ;  (1 found)
0x10005a30: retn 0x8B04 ;  (1 found)
0x1000ec20: retn 0x8B04 ;  (1 found)
0x1000f0f1: retn 0x9689 ;  (1 found)
0x1000d180: retn 0xA566 ;  (1 found)
0x10006636: retn 0xC103 ;  (1 found)
0x10010483: retn 0xE183 ;  (1 found)
0x1000b3aa: retn 0xFFB7 ;  (1 found)
0x10007255: retn 0xFFFF ;  (1 found)
0x10007638: retn 0xFFFF ;  (1 found)
0x1000f68c: rol bl, 0xFFFFFF90 ; nop  ; mov eax, dword [esp+0x04] ; push eax ; call dword [0x100131A0] ;  (1 found)
0x10006dd3: rol byte [0x006A0000], 1  ; push 0x00000001 ; push eax ; call dword [0x10013094] ;  (1 found)
0x10006d3c: rol byte [0x006A0000], 1  ; push 0x00000001 ; push eax ; mov dword [esi+0x000003A8], 0x00000000 ; call dword [0x10013094] ;  (1 found)
0x10003a4a: rol byte [0x006A0000], 1  ; push 0x00000001 ; push ecx ; call edi ;  (1 found)
0x10006e4d: rol byte [0x006A0000], 1  ; push 0x00000001 ; push ecx ; call edi ;  (1 found)
0x10006bd9: rol byte [0xFF6A0000], 1  ; push ecx ; call dword [0x10013090] ;  (1 found)
0x10006d85: rol byte [0xFF6A0000], 1  ; push ecx ; call dword [0x10013090] ;  (1 found)
0x1000cea4: rol byte [eax], 0x00000000 ; add byte [ebx-0x12CCAE28], cl ; call edi ;  (1 found)
0x1000d361: rol byte [eax], 0x00000000 ; add byte [edx+0x04], ch ; call dword [0x1001312C] ;  (1 found)
0x1000327b: rol byte [ebx-0x3F7A0028], 0x00000075 ; push cs ; push 0x1001ACA8 ; call dword [0x100130F8] ;  (1 found)
0x100100c5: rol byte [ecx+0x00010CC4], 0x00000000 ; ret  ;  (1 found)
0x1000f665: rol byte [ecx+0x000190C4], 0x00000000 ; ret  ;  (1 found)
0x100034f6: rol byte [ecx+0x000414C4], 0x00000000 ; ret  ;  (1 found)
0x10010758: rol byte [ecx+0x001004C4], 0x00000000 ; ret  ;  (1 found)
0x1001056a: rol byte [ecx+0x002000C4], 0x00000000 ; ret  ;  (1 found)
0x1000d6aa: rol byte [ecx], 1  ; add byte [eax], al ; add esp, 0x000000F0 ; push 0x00000067 ; call dword [0x1001312C] ;  (1 found)
0x10010be2: rol dword [ebp+0x5F0A75C0], cl ; pop esi ; pop ebx ; add esp, 0x00000230 ; ret  ;  (1 found)
0x10011959: rol dword [edi], cl ; add byte [eax], al ; push esi ; call dword [0x1001308C] ;  (1 found)
0x10003e72: ror byte [edi], 0xFFFFFF84 ; enter 0x0000, 0x00 ; push 0x00000001 ; call ebp ;  (1 found)
0x10005b94: ror byte [edi], 0xFFFFFF84 ; retn 0x0000 ;  (1 found)
0x100047d5: ror byte [edx+0x66D12BD3], cl ; add dword [ebp+0x00], edx ; mov ax, word [ebp+0x00] ; push eax ; call dword [0x1001312C] ;  (1 found)
0x10001310: ror dword [ebx-0x7B7D74E9], cl ; add eax, dword [eax] ; add byte [ebp+0x500374C0], al ; call ebx ;  (1 found)
0x10001301: ror dword [ebx-0x7F7E74F1], cl ; add eax, dword [eax] ; add byte [ebp+0x500374C0], al ; call ebx ;  (1 found)
0x10001675: ror dword [ecx+0x0006E886], cl ; add byte [ebx+0x50142444], cl ; call ebx ;  (1 found)
0x1001044d: ror dword [ecx+0x5F], 1  ; mov eax, ecx ; ret  ;  (1 found)
0x1000e69a: sahf  ; cmp al, byte [eax] ; add byte [ebx-0x3FCCDF3C], al ; ret  ;  (1 found)
0x10009bbc: sahf  ; mov esi, 0x50000000 ; call ebp ;  (1 found)
0x100111dc: sal bh, 0xFFFFFFFF ; dec dword [ebp-0x00063F6B] ; call dword [edx-0x18] ;  (1 found)
0x10012409: sal byte [eax+ecx+0x57], 0x00000056 ; push ebx ; call eax ;  (1 found)
0x100109af: sal byte [ebp+0x02], 0x0000005E ; ret  ;  (1 found)
0x100107eb: sal byte [ebp+0x04], 0x0000005F ; pop esi ; pop ebx ; ret  ;  (1 found)
0x10010d1a: sal byte [ebp+0x08], 0x0000005E ; add esp, 0x0000009C ; ret  ;  (1 found)
0x10010c84: sal byte [ebp+0x0A], 0x0000005F ; pop esi ; pop ebx ; add esp, 0x00000230 ; ret  ;  (1 found)
0x10010be4: sal byte [ebp+0x0A], 0x0000005F ; pop esi ; pop ebx ; add esp, 0x00000230 ; ret  ;  (1 found)
0x100104f5: sal byte [ebp+0x0A], 0xFFFFFF83 ; enter 0x81FF, 0xC4 ; add byte [eax], dl ; add byte [eax], al ; ret  ;  (1 found)
0x10010df5: sal byte [ebp+0x0A], 0xFFFFFF83 ; enter 0x81FF, 0xC4 ; add byte [eax], dl ; add byte [eax], al ; ret  ;  (1 found)
0x10011b8a: sal byte [ebp+0x0C], 0xFFFFFFFF ; adc eax, 0x10013070 ; xor eax, eax ; add esp, 0x0C ; ret  ;  (1 found)
0x10011bda: sal byte [ebp+0x0C], 0xFFFFFFFF ; adc eax, 0x10013070 ; xor eax, eax ; add esp, 0x0C ; ret  ;  (1 found)
0x10011bb3: sal byte [ebp+0x0C], 0xFFFFFFFF ; adc eax, 0x10013070 ; xor eax, eax ; add esp, 0x0C ; ret  ;  (1 found)
0x10011c06: sal byte [ebp+0x0C], 0xFFFFFFFF ; adc eax, 0x10013070 ; xor eax, eax ; add esp, 0x0C ; ret  ;  (1 found)
0x10011c34: sal byte [ebp+0x0C], 0xFFFFFFFF ; adc eax, 0x10013070 ; xor eax, eax ; add esp, 0x0C ; ret  ;  (1 found)
0x10003280: sal byte [ebp+0x0E], 0x00000068 ; test al, 0xAC ; add dword [eax], edx ; call dword [0x100130F8] ;  (1 found)
0x1001036e: sal byte [ebp+0x0E], 0xFFFFFFFF ; xlatb  ; push eax ; call dword [0x10013034] ;  (1 found)
0x1000389e: sal byte [ebp+0x0F], 0xFFFFFF8B ; mov ss, sp ; add eax, 0xFF6A0000 ; push ecx ; call dword [0x10013090] ;  (1 found)
0x100111a2: sal byte [ebp+0x16], 0x00000068 ; push 0x6A1001F0 ; and byte [ebp-0x00066B6B], cl ; call dword [edx-0x18] ;  (1 found)
0x1000fb9c: sal byte [ebp+0x44], 0xFFFFFF8B ; push esp ; and al, 0x0C ; push edx ; call dword [0x1001301C] ;  (1 found)
0x1000130b: sal byte [ebx+eax+0x50], 0xFFFFFFFF ; ror dword [ebx-0x7B7D74E9], cl ; add eax, dword [eax] ; add byte [ebp+0x500374C0], al ; call ebx ;  (1 found)
0x100012fc: sal byte [ebx+eax+0x50], 0xFFFFFFFF ; ror dword [ebx-0x7F7E74F1], cl ; add eax, dword [eax] ; add byte [ebp+0x500374C0], al ; call ebx ;  (1 found)
0x100123ad: sal byte [ecx+ecx+0x57], 0x00000056 ; push ebx ; call eax ;  (1 found)
0x10012108: sal byte [edi+eax+0x50], 0xFFFFFFFF ; adc eax, 0x1001308C ; ret  ;  (1 found)
0x1000f627: sal byte [edi+ebp-0x75], 0x0000000D ; mov eax, 0x6A1002FD ; add byte [eax-0x3C], ch ; retn 0x1001 ;  (1 found)
0x10001491: sal byte [edx-0x75], 0x0000004C ; and al, 0x08 ; push ecx ; call eax ;  (1 found)
0x1000358f: sal byte [esi+eax+0x5E], 0x0000005D ; xor eax, eax ; pop ebx ; ret  ;  (1 found)
0x100112cc: sal dl, 0xFFFFFFFF ; dec dword [ebx-0x00069B7B] ; call dword [eax+0x50] ;  (1 found)
0x10005283: sal dword [ebx], cl ; in eax, dx ; mov dword [esp+0x64], eax ; push ebp ; call ebx ;  (1 found)
0x1000d3fc: salc  ; mov dword [esp+0x24], eax ; mov eax, dword [ebp+0x00] ; push eax ; call esi ;  (1 found)
0x1000d780: salc  ; mov dword [esp+0x74], eax ; mov eax, dword [esp+0x00000104] ; push eax ; call esi ;  (1 found)
0x1000d406: salc  ; mov ecx, dword [esp+0x000000E4] ; mov dword [esp+0x30], eax ; push ecx ; call dword [0x1001312C] ;  (1 found)
0x1000d7e0: salc  ; mov ecx, dword [esp+0x00000114] ; mov dword [esp+0x00000088], eax ; push ecx ; call esi ;  (1 found)
0x1000cc72: salc  ; mov edx, dword [esp+0x000000BC] ; mov dword [esp+0x54], eax ; push edx ; call esi ;  (1 found)
0x1000e346: salc  ; mov edx, dword [esp+0x18] ; mov ax, word [edx+0x02] ; push eax ; call esi ;  (1 found)
0x1001156c: salc  ; push 0x00000208 ; mov ebx, eax ; call esi ;  (1 found)
0x100114be: salc  ; push edi ; call esi ;  (1 found)
0x10006e04: sar byte [ebp-0x0F], 0xFFFFFF8B ; mov ss, sp ; add eax, 0xFF6A0000 ; push ecx ; call dword [0x10013090] ;  (1 found)
0x10006c1d: sar byte [esi+0x07], 0x00000050 ; call dword [0x10013084] ;  (1 found)
0x10006c13: sar byte [esi+0x11], 0xFFFFFF8B ; xchg byte [eax+0x00], bh ; add byte [ebp+0x50077EC0], al ; call dword [0x10013084] ;  (1 found)
0x100111f6: sar cl, 0xFFFFFFFF ; call dword [ecx-0x73] ;  (1 found)
0x100111e2: sar cl, 0xFFFFFFFF ; call dword [edx-0x18] ;  (1 found)
0x1000a56b: sbb al, 0x01 ; add byte [eax], al ; add esp, 0x50 ; push 0x00000066 ; call dword [0x1001312C] ;  (1 found)
0x10010bb2: sbb al, 0x01 ; add byte [eax], al ; call ebx ;  (1 found)
0x1000a0b9: sbb al, 0x01 ; call edi ;  (1 found)
0x1000be3e: sbb al, 0x03 ; retn 0x548B ;  (1 found)
0x1000e336: sbb al, 0x04 ; add byte [eax], al ; ret  ;  (1 found)
0x1000e3bc: sbb al, 0x04 ; add byte [eax], al ; ret  ;  (1 found)
0x1000e43d: sbb al, 0x04 ; add byte [eax], al ; ret  ;  (1 found)
0x1000e48c: sbb al, 0x04 ; add byte [eax], al ; ret  ;  (1 found)
0x1000b8aa: sbb al, 0x08 ; call edi ;  (1 found)
0x10006c9e: sbb al, 0x50 ; call dword [0x10013134] ;  (1 found)
0x10006cab: sbb al, 0x51 ; call dword [0x10013134] ;  (1 found)
0x10010601: sbb al, 0x51 ; push eax ; push 0x00000000 ; push 0x0000FDE9 ; call dword [0x1001303C] ;  (1 found)
0x100056ce: sbb al, 0x57 ; call dword [0x1001312C] ;  (1 found)
0x100018bd: sbb al, 0x5E ; ret  ;  (1 found)
0x1000f716: sbb al, 0x5E ; ret  ;  (1 found)
0x10005653: sbb al, 0x66 ; cmp eax, 0x0E750001 ; push 0x00000002 ; call dword [0x10013134] ;  (1 found)
0x10011756: sbb al, 0x68 ; inc dword [eax] ; add byte [eax], al ; push ecx ; call dword [0x100130AC] ;  (1 found)
0x100118f1: sbb al, 0x68 ; inc dword [eax] ; add byte [eax], al ; push ecx ; call dword [0x100130AC] ;  (1 found)
0x10004a87: sbb al, 0x89 ; dec edi ; and byte [ebx+0x52102454], cl ; call dword [0x1001312C] ;  (1 found)
0x1000ac5c: sbb al, 0x89 ; inc esp ; and al, 0x20 ; call ebx ;  (1 found)
0x10005058: sbb al, 0x8B ; pop es ; mov cx, word [eax+0x02] ; push ecx ; call dword [0x10013130] ;  (1 found)
0x1000307a: sbb al, 0xFF ; adc eax, 0x1001312C ; push 0x00000003 ; mov edi, eax ; call dword [0x1001312C] ;  (1 found)
0x1000e553: sbb byte [eax+0x00000001], bh ; pop edi ; pop esi ; ret  ;  (1 found)
0x1000ea0d: sbb byte [eax+0x00000001], bh ; pop esi ; pop ebp ; ret  ;  (1 found)
0x1000e670: sbb byte [eax+0x00000001], bh ; ret  ;  (1 found)
0x1000fd96: sbb byte [eax+0x51], dl ; call dword [0x1002FB6C] ;  (1 found)
0x1000fc3a: sbb byte [eax+0x51], dl ; push ebx ; push 0x1001EBE8 ; push edx ; call dword [0x10013020] ;  (1 found)
0x100067d5: sbb byte [ebp+0x00060086], cl ; add byte [edi+0x5E], bl ; pop ebx ; ret  ;  (1 found)
0x10010563: sbb byte [ebp+0x09755EC6], al ; xor eax, eax ; add esp, 0x00002000 ; ret  ;  (1 found)
0x10001f79: sbb byte [ebp+0x500774C0], al ; call dword [0x1001308C] ;  (1 found)
0x1000f5c2: sbb byte [ebp+0x50082444], cl ; call dword [0x10013074] ;  (1 found)
0x10011a23: sbb byte [ebp+0x56002454], cl ; push edx ; call dword [0x100130BC] ;  (1 found)
0x10007f0f: sbb byte [ebp+0x664075FF], al ; mov eax, dword [esi+0x42] ; push eax ; call dword [0x10013130] ;  (1 found)
0x10003e70: sbb byte [ebp-0x377BF040], al ; add byte [eax], al ; add byte [edx+0x01], ch ; call ebp ;  (1 found)
0x1000ee94: sbb byte [ebx+0x0006DC81], cl ; add byte [ebp+0x500774C0], al ; call dword [0x1001308C] ;  (1 found)
0x1000f1d4: sbb byte [ebx+0x0006DC8E], cl ; add byte [edx-0x01], ch ; push ecx ; call dword [0x10013090] ;  (1 found)
0x1000ed2d: sbb byte [ebx+0x0006DC8F], cl ; add byte [edx-0x01], ch ; push ecx ; call ebx ;  (1 found)
0x10006afa: sbb byte [ebx+0x006A5C43], cl ; push 0x00000001 ; push eax ; call dword [0x10013094] ;  (1 found)
0x1000f00f: sbb byte [ebx+0x3875FFFE], al ; call dword [0x10013164] ;  (1 found)
0x10006fd5: sbb byte [ebx+0x5B5EFFC8], al ; ret  ;  (1 found)
0x1000373c: sbb byte [ebx+0x5D5E5FC3], cl ; pop ebx ; ret  ;  (1 found)
0x10003626: sbb byte [ebx+0x5D5E5FC6], cl ; pop ebx ; ret  ;  (1 found)
0x10001edd: sbb byte [ebx+0x5D5E5FC7], cl ; pop ebx ; ret  ;  (1 found)
0x1000e233: sbb byte [ebx+0x5D5E5FC7], cl ; pop ebx ; ret  ;  (1 found)
0x10007ae6: sbb byte [ebx+0x5D5EFFC8], al ; pop ebx ; pop ecx ; ret  ;  (1 found)
0x1000422b: sbb byte [ebx+0x5E5FFFC8], al ; pop ebp ; pop ebx ; add esp, 0x4C ; ret  ;  (1 found)
0x10004915: sbb byte [ebx+0x5E5FFFC8], al ; pop ebp ; pop ebx ; add esp, 0x78 ; ret  ;  (1 found)
0x1000433c: sbb byte [ebx+0x62E9FFCE], al ; add al, byte [eax] ; add byte [ebx-0x74B7DBB4], cl ; ret  ;  (1 found)
0x10011bc9: sbb byte [ebx+0x6A002454], cl ; add byte [eax+0x51], dl ; push edx ; call dword [0x10013008] ;  (1 found)
0x10003818: sbb byte [ebx-0x0095A3B2], cl ; push ecx ; call dword [0x10013090] ;  (1 found)
0x1001105d: sbb byte [ebx], al ; add byte [eax], al ; ret  ;  (1 found)
0x1000c759: sbb byte [ebx], dh ; rcr byte [edi+0x5E], 0x0000005B ; add esp, 0x00000080 ; ret  ;  (1 found)
0x1000af1e: sbb byte [ebx], dh ; rcr byte [edi+0x5E], 0x0000005B ; add esp, 0x78 ; ret  ;  (1 found)
0x1000b24a: sbb byte [ebx], dh ; rcr byte [edi+0x5E], 0x0000005B ; add esp, 0x78 ; ret  ;  (1 found)
0x10006150: sbb byte [ebx], dh ; rcr byte [edi+0x5E], 0x0000005B ; ret  ;  (1 found)
0x100061eb: sbb byte [ebx], dh ; rcr byte [edi+0x5E], 0x0000005B ; ret  ;  (1 found)
0x1000e8db: sbb byte [ebx], dh ; rcr byte [edi+0x5E], 0x0000005B ; ret  ;  (1 found)
0x1000e894: sbb byte [ebx], dh ; rcr byte [edi+0x5E], 0x0000005B ; ret  ;  (1 found)
0x1000d275: sbb byte [ebx], dh ; rcr byte [edi+0x5E], 0x0000005D ; add esp, 0x00000098 ; ret  ;  (1 found)
0x1000d543: sbb byte [ebx], dh ; rcr byte [edi+0x5E], 0x0000005D ; add esp, 0x000000A8 ; ret  ;  (1 found)
0x1000b0be: sbb byte [ebx], dh ; rcr byte [edi+0x5E], 0x0000005D ; add esp, 0x78 ; ret  ;  (1 found)
0x1000b40a: sbb byte [ebx], dh ; rcr byte [edi+0x5E], 0x0000005D ; pop ebx ; add esp, 0x00000080 ; ret  ;  (1 found)
0x1000ba12: sbb byte [ebx], dh ; rcr byte [edi+0x5E], 0x0000005D ; pop ebx ; add esp, 0x00000080 ; ret  ;  (1 found)
0x1000b603: sbb byte [ebx], dh ; rcr byte [edi+0x5E], 0x0000005D ; pop ebx ; add esp, 0x0000008C ; ret  ;  (1 found)
0x1000ad83: sbb byte [ebx], dh ; rcr byte [edi+0x5E], 0x0000005D ; pop ebx ; add esp, 0x0000008C ; ret  ;  (1 found)
0x1000b822: sbb byte [ebx], dh ; rcr byte [edi+0x5E], 0x0000005D ; pop ebx ; add esp, 0x00000090 ; ret  ;  (1 found)
0x1000c96b: sbb byte [ebx], dh ; rcr byte [edi+0x5E], 0x0000005D ; pop ebx ; add esp, 0x00000090 ; ret  ;  (1 found)
0x1000cb7b: sbb byte [ebx], dh ; rcr byte [edi+0x5E], 0x0000005D ; pop ebx ; add esp, 0x00000090 ; ret  ;  (1 found)
0x1000c5b5: sbb byte [ebx], dh ; rcr byte [edi+0x5E], 0x0000005D ; pop ebx ; add esp, 0x00000090 ; ret  ;  (1 found)
0x1000cd9d: sbb byte [ebx], dh ; rcr byte [edi+0x5E], 0x0000005D ; pop ebx ; add esp, 0x00000098 ; ret  ;  (1 found)
0x1000c399: sbb byte [ebx], dh ; rcr byte [edi+0x5E], 0x0000005D ; pop ebx ; add esp, 0x0000009C ; ret  ;  (1 found)
0x1000cfe5: sbb byte [ebx], dh ; rcr byte [edi+0x5E], 0x0000005D ; pop ebx ; add esp, 0x000000A0 ; ret  ;  (1 found)
0x1000c167: sbb byte [ebx], dh ; rcr byte [edi+0x5E], 0x0000005D ; pop ebx ; add esp, 0x000000A8 ; ret  ;  (1 found)
0x1000bc5a: sbb byte [ebx], dh ; rcr byte [edi+0x5E], 0x0000005D ; pop ebx ; add esp, 0x000000AC ; ret  ;  (1 found)
0x1000bed7: sbb byte [ebx], dh ; rcr byte [edi+0x5E], 0x0000005D ; pop ebx ; add esp, 0x000000AC ; ret  ;  (1 found)
0x1000a2aa: sbb byte [ebx], dh ; rcr byte [edi+0x5E], 0x0000005D ; pop ebx ; add esp, 0x000000B4 ; ret  ;  (1 found)
0x1000a712: sbb byte [ebx], dh ; rcr byte [edi+0x5E], 0x0000005D ; pop ebx ; add esp, 0x000000B4 ; ret  ;  (1 found)
0x1000d901: sbb byte [ebx], dh ; rcr byte [edi+0x5E], 0x0000005D ; pop ebx ; add esp, 0x000000C8 ; ret  ;  (1 found)
0x1000ab6b: sbb byte [ebx], dh ; rcr byte [edi+0x5E], 0x0000005D ; pop ebx ; add esp, 0x7C ; ret  ;  (1 found)
0x10001eaa: sbb byte [ebx], dh ; rcr byte [edi+0x5E], 0x0000005D ; pop ebx ; ret  ;  (1 found)
0x10003576: sbb byte [ebx], dh ; rcr byte [esi+0x5D], 0x0000005B ; ret  ;  (1 found)
0x1000fde8: sbb byte [ecx+0x50], dl ; call dword [0x1002FB80] ;  (1 found)
0x1001035d: sbb byte [ecx+0x50], dl ; push 0x00000000 ; push 0x0000FDE9 ; call dword [0x10013038] ;  (1 found)
0x10010999: sbb byte [ecx], al ; add byte [eax], al ; ret  ;  (1 found)
0x1000fe7a: sbb byte [ecx], cl ; add byte [eax], al ; ret  ;  (1 found)
0x1000fbde: sbb byte [ecx], cl ; add byte [eax], al ; ret  ;  (1 found)
0x1000fd87: sbb byte [ecx], cl ; add byte [eax], al ; ret  ;  (1 found)
0x1000fde0: sbb byte [ecx], cl ; add byte [eax], al ; ret  ;  (1 found)
0x1000fe3f: sbb byte [ecx], cl ; add byte [eax], al ; ret  ;  (1 found)
0x1000156c: sbb byte [edi+0x33], dl ; call dword [edi+0x56] ;  (1 found)
0x1000e437: sbb byte [edi+0x5E], bl ; pop ebp ; add esp, 0x0000041C ; ret  ;  (1 found)
0x10006b5b: sbb byte [edi+0x5E], bl ; pop ebp ; pop ebx ; add esp, 0x18 ; ret  ;  (1 found)
0x10003a79: sbb byte [edi+0x5E], bl ; pop ebp ; pop ebx ; ret  ;  (1 found)
0x10003c79: sbb byte [edi+0x5E], bl ; pop ebp ; pop ebx ; ret  ;  (1 found)
0x1000635b: sbb byte [edi+0x5E], bl ; pop ebp ; pop ebx ; ret  ;  (1 found)
0x100064af: sbb byte [edi+0x5E], bl ; pop ebp ; pop ebx ; ret  ;  (1 found)
0x10006660: sbb byte [edi+0x5E], bl ; pop ebp ; pop ebx ; ret  ;  (1 found)
0x100020bf: sbb byte [edi+0x5E], bl ; pop ebx ; ret  ;  (1 found)
0x10006f6c: sbb byte [edi+0x5E], bl ; pop ebx ; ret  ;  (1 found)
0x1000ee67: sbb byte [edi+0x5E], bl ; pop ebx ; ret  ;  (1 found)
0x10003938: sbb byte [edi+0x5E], bl ; ret  ;  (1 found)
0x100068d1: sbb byte [edi+0x5E], bl ; ret  ;  (1 found)
0x100069b0: sbb byte [edi+0x5E], bl ; ret  ;  (1 found)
0x1000d9f9: sbb byte [edi+0x5E], bl ; ret  ;  (1 found)
0x10006565: sbb byte [edx+0x00], ch ; mov ecx, dword [eax+0x00000084] ; push ecx ; call dword [0x10013128] ;  (1 found)
0x10001f13: sbb byte [edx+0x00], ch ; push 0x00000001 ; push 0x00000001 ; push 0x00000000 ; call dword [0x10013088] ;  (1 found)
0x1000670a: sbb byte [edx+0x00], ch ; push eax ; call dword [0x10013128] ;  (1 found)
0x10003b97: sbb byte [edx+0x01], ch ; call dword [0x1001312C] ;  (1 found)
0x1000f320: sbb byte [edx+0x02], ch ; push edi ; call dword [0x1001313C] ;  (1 found)
0x1000f41d: sbb byte [edx+0x02], ch ; push edi ; call dword [0x1001313C] ;  (1 found)
0x1000ed63: sbb byte [edx+0x02], ch ; push esi ; call dword [0x1001313C] ;  (1 found)
0x10011547: sbb byte [edx+0x56], dl ; call dword [0x10013064] ;  (1 found)
0x10001fd5: sbb byte [esi+0x59], bl ; ret  ;  (1 found)
0x1000a9fe: sbb byte [esi+0x5B], bl ; ret  ;  (1 found)
0x1000e155: sbb byte [esi+0x5B], bl ; ret  ;  (1 found)
0x1000da50: sbb byte [esi-0x3D], bl ; mov edx, dword [esi+0x30] ; push 0xFFFFFFFF ; push edx ; call dword [0x10013090] ;  (1 found)
0x1000f0e8: sbb cl, byte [ebx+0x0006D896] ; add byte [edx-0x75], al ; retn 0x9689 ;  (1 found)
0x10001661: sbb eax, 0x10013128 ; push ecx ; call ebx ;  (1 found)
0x1000b698: sbb eax, 0x1001312C ; mov esi, dword [esp+0x000000F8] ; add esp, 0x50 ; push 0x0000000C ; call ebx ;  (1 found)
0x1000e980: sbb eax, 0x10013130 ; push edi ; mov ax, word [esi] ; push eax ; call ebx ;  (1 found)
0x1000f15c: sbb eax, 0x5FFFFFFF ; pop esi ; mov eax, 0xFFFFFFF9 ; pop ebp ; ret  ;  (1 found)
0x10011b3f: sbb eax, 0xFFFFFFFF ; pop esi ; ret  ;  (1 found)
0x10010a7f: sbb eax, eax ; inc eax ; ret  ;  (1 found)
0x10011b3c: sbb eax, eax ; pop edi ; sbb eax, 0xFFFFFFFF ; pop esi ; ret  ;  (1 found)
0x1000f199: sbb eax, eax ; pop esi ; neg eax ; dec eax ; ret  ;  (1 found)
0x10006ace: sbb ecx, dword [ebx-0x0095A3B5] ; push ecx ; call dword [0x10013090] ;  (1 found)
0x10012221: sbb edx, 0x00000000 ; pop ebx ; pop esi ; pop edi ; retn 0x0010 ;  (1 found)
0x10009017: sbb edx, dword [ecx-0x3B7D0000] ; and byte [ebx+0x5D5E5FC7], cl ; pop ebx ; pop ecx ; ret  ;  (1 found)
0x1000228a: scasb  ; inc byte [eax] ; add byte [ebx-0x3974DF3C], al ; pop esi ; ret  ;  (1 found)
0x1000e83c: setne al ; ret  ;  (1 found)
0x100011f1: sgdt  [eax] ; add esp, 0x18 ; pop esi ; ret  ;  (1 found)
0x10012094: shr dh, 1  ; add byte [eax], dl ; mov dword [esi+0x34], eax ; call dword [0x10013088] ;  (1 found)
0x1000529f: shr dword [edx+0x01], cl ; mov dword [esp+0x00000080], eax ; call ebx ;  (1 found)
0x1000528c: shr dword [edx+0x01], cl ; mov dword [esp+0x74], eax ; call ebx ;  (1 found)
0x100052aa: shr dword [edx+0x03], cl ; mov dword [esp+0x70], eax ; call ebx ;  (1 found)
0x100107cd: shr eax, 1  ; push eax ; push ebx ; call dword [0x100130D4] ;  (1 found)
0x10010364: std  ; add byte [eax], al ; call dword [0x10013038] ;  (1 found)
0x10010608: std  ; add byte [eax], al ; call dword [0x1001303C] ;  (1 found)
0x100106f0: std  ; add byte [eax], al ; call dword [0x1001303C] ;  (1 found)
0x1001242e: std  ; add dl, byte [eax] ; add byte [ebp+0x0A], dh ; push dword [esp+0x04] ; call dword [0x10013098] ;  (1 found)
0x1001006b: std  ; add dl, byte [eax] ; push eax ; push ecx ; call dword [0x1002FBA4] ;  (1 found)
0x1000fee1: std  ; add dl, byte [eax] ; push eax ; push ecx ; call dword [0x1002FBB8] ;  (1 found)
0x1000feb0: std  ; add dl, byte [eax] ; push ecx ; call dword [0x1002FBA0] ;  (1 found)
0x1000fed0: std  ; add dl, byte [eax] ; push edi ; push eax ; call dword [0x1002FB9C] ;  (1 found)
0x1000fec4: std  ; add dl, byte [eax] ; push edx ; call dword [0x1002FBAC] ;  (1 found)
0x1000f65b: sti  ; add dl, byte [eax] ; call dword [0x10013028] ;  (1 found)
0x1000d674: stosb  ; add dword [eax], edx ; push 0x000001FB ; call dword [0x10013080] ;  (1 found)
0x10009d80: stosb  ; add dword [eax], edx ; push 0x000001FB ; mov dword [esp+0x000000E4], 0x00000000 ; call dword [0x10013080] ;  (1 found)
0x100099e3: stosb  ; add dword [eax], edx ; push 0x000001FB ; mov dword [esp+0x6C], 0x00000000 ; call dword [0x10013080] ;  (1 found)
0x10011a9e: stosb  ; call dword [0x1001306C] ;  (1 found)
0x10010bcd: stosd  ; lea ecx, dword [esp+0x00000128] ; mov dword [esp+0x00000128], 0x00000114 ; push ecx ; call ebx ;  (1 found)
0x100115f7: stosd  ; mov edi, dword [esp+0x00000114] ; lea ebx, dword [edi+0x0C] ; push ebx ; call dword [0x100130B0] ;  (1 found)
0x100115f6: stosw  ; mov edi, dword [esp+0x00000114] ; lea ebx, dword [edi+0x0C] ; push ebx ; call dword [0x100130B0] ;  (1 found)
0x1000650c: sub al, 0x01 ; add byte [eax], al ; mov si, word [ebx+0x06] ; push 0x0000FFE2 ; call dword [0x1001312C] ;  (1 found)
0x100032be: sub al, 0x02 ; add byte [eax], al ; push edx ; push ecx ; call esi ;  (1 found)
0x10010115: sub al, 0x30 ; add dword [eax], edx ; mov esi, eax ; call dword [0x10013070] ;  (1 found)
0x1001085c: sub al, 0x30 ; add dword [eax], edx ; ret  ;  (1 found)
0x1000303c: sub al, 0x31 ; add dword [eax], edx ; call edi ;  (1 found)
0x1000307d: sub al, 0x31 ; add dword [eax], edx ; push 0x00000003 ; mov edi, eax ; call dword [0x1001312C] ;  (1 found)
0x10004a92: sub al, 0x31 ; add dword [eax], edx ; push 0x80000000 ; mov word [edi+0x24], ax ; call dword [0x10013134] ;  (1 found)
0x10003c27: sub al, 0x31 ; add dword [eax], edx ; push edx ; call ebp ;  (1 found)
0x100120cc: sub al, 0x50 ; call dword [0x10013090] ;  (1 found)
0x10006aed: sub al, 0x52 ; push ebx ; push ebp ; call dword [ebx+0x08] ;  (1 found)
0x10006230: sub al, 0x56 ; push ebx ; push ecx ; call dword [ebx+0x34] ;  (1 found)
0x10003c44: sub al, 0x66 ; mov dword [esi+0x2E], ebp ; mov ecx, dword [esp+0x18] ; push ecx ; call edi ;  (1 found)
0x10003c31: sub al, 0x66 ; mov eax, dword [ebx+0x02] ; push eax ; call ebp ;  (1 found)
0x1000eef2: sub al, 0x6A ; add byte [edx+0x01], ch ; push ecx ; call dword [0x10013094] ;  (1 found)
0x10012106: sub al, 0x85 ; sal byte [edi+eax+0x50], 0xFFFFFFFF ; adc eax, 0x1001308C ; ret  ;  (1 found)
0x1000b89f: sub byte [0x0000FFFF], ah ; add ecx, edx ; push 0x00000001 ; lea ebx, dword [eax+ecx] ; call edi ;  (1 found)
0x1000f660: sub byte [eax], dh ; add dword [eax], edx ; xor eax, eax ; add esp, 0x00000190 ; ret  ;  (1 found)
0x10006c11: sub byte [ebp-0x74EE8140], al ; xchg byte [eax+0x00], bh ; add byte [ebp+0x50077EC0], al ; call dword [0x10013084] ;  (1 found)
0x1000389c: sub byte [ebp-0x74F08A40], al ; mov ss, sp ; add eax, 0xFF6A0000 ; push ecx ; call dword [0x10013090] ;  (1 found)
0x100081c2: sub byte [ebx+0x5D5E5FC6], cl ; pop ebx ; add esp, 0x08 ; ret  ;  (1 found)
0x10007be7: sub byte [ebx+0x5D5E5FC7], cl ; pop ebx ; pop ecx ; ret  ;  (1 found)
0x1000fe36: sub byte [ebx+0x5E5FFFC8], al ; pop ebx ; add esp, 0x00000918 ; ret  ;  (1 found)
0x100101db: sub byte [ebx+0x5E5FFFC8], al ; pop ecx ; ret  ;  (1 found)
0x1000a0ad: sub byte [ecx+0x00FFFFE1], al ; add byte [ebx], al ; retn 0x656A ;  (1 found)
0x10002159: sub byte [ecx-0x17ADEFFF], 0xFFFFFFD9 ; inc dword [eax] ; add byte [ebx-0x3FCCDF3C], al ; pop esi ; ret  ;  (1 found)
0x1000bcfa: sub byte [ecx], al ; add byte [eax], al ; add esp, 0x50 ; push 0x0000000D ; call dword [0x1001312C] ;  (1 found)
0x10010bd1: sub byte [ecx], al ; add byte [eax], al ; mov dword [esp+0x00000128], 0x00000114 ; push ecx ; call ebx ;  (1 found)
0x10011f28: sub byte [ecx], dh ; add dword [eax], edx ; push 0x0000FEED ; mov dword [esp+0x28], eax ; call dword [0x1001312C] ;  (1 found)
0x100065a8: sub byte [ecx], dh ; add dword [eax], edx ; push eax ; call ebp ;  (1 found)
0x10001662: sub byte [ecx], dh ; add dword [eax], edx ; push ecx ; call ebx ;  (1 found)
0x1000a961: sub byte [ecx], dh ; add dword [eax], edx ; push edi ; push edx ; call ebp ;  (1 found)
0x10012000: sub byte [ecx], dl ; add byte [eax], al ; ret  ;  (1 found)
0x1001201e: sub byte [ecx], dl ; add byte [eax], al ; ret  ;  (1 found)
0x10011ce7: sub byte [ecx], dl ; add byte [eax], al ; ret  ;  (1 found)
0x10011ed1: sub byte [ecx], dl ; add byte [eax], al ; ret  ;  (1 found)
0x10011f00: sub byte [ecx], dl ; add byte [eax], al ; ret  ;  (1 found)
0x10011912: sub byte [edi+0x33], bl ; rcr byte [esi-0x7F], 0xFFFFFFC4 ; add byte [ecx], al ; add byte [eax], al ; ret  ;  (1 found)
0x10010110: sub byte [edi+0x50], dl ; call dword [0x1001302C] ;  (1 found)
0x10003b6c: sub byte [edi+0x5B], bl ; ret  ;  (1 found)
0x100117f4: sub byte [edi+0x5E], bl ; pop ebx ; add esp, 0x00000100 ; ret  ;  (1 found)
0x1000aa59: sub byte [edx+0x14], ch ; call dword [0x1001312C] ;  (1 found)
0x1000c61b: sub byte [edx+0x45], ch ; call dword [0x1001312C] ;  (1 found)
0x10003671: sub byte [edx-0x01], ch ; push ecx ; call dword [0x10013090] ;  (1 found)
0x10003abf: sub byte [edx-0x01], ch ; push ecx ; call dword [0x10013090] ;  (1 found)
0x1000d94f: sub byte [edx-0x01], ch ; push ecx ; call dword [0x10013090] ;  (1 found)
0x1000e0af: sub byte [edx-0x01], ch ; push ecx ; call dword [0x10013090] ;  (1 found)
0x1000e1a7: sub byte [edx-0x01], ch ; push ecx ; call ebp ;  (1 found)
0x10003987: sub byte [edx-0x01], ch ; push ecx ; call edi ;  (1 found)
0x10006825: sub byte [edx-0x01], ch ; push ecx ; call edi ;  (1 found)
0x10006925: sub byte [edx-0x01], ch ; push ecx ; call edi ;  (1 found)
0x10001135: sub byte [edx-0x01], ch ; push edx ; call dword [0x10013090] ;  (1 found)
0x10011932: sub byte [esi+0x57], dl ; xor edi, edi ; call dword [0x1001305C] ;  (1 found)
0x10001d4f: sub byte [esi+0x5B], bl ; pop edi ; pop ebp ; add esp, 0x00000108 ; ret  ;  (1 found)
0x10001d91: sub byte [esi+0x5B], bl ; pop edi ; pop ebp ; add esp, 0x00000108 ; ret  ;  (1 found)
0x1000ef62: sub cl, byte [ebx+0x01307C1D] ; adc byte [ebx+0x0130903D], cl ; adc byte [ebp+0x500C2444], cl ; push esi ; call ebx ;  (1 found)
0x10007b87: sub cx, 0x0012 ; mov word [edx], cx ; mov eax, dword [esi+0x00000090] ; push eax ; call dword [0x10013128] ;  (1 found)
0x10009108: sub dl, byte [eax-0x3B7D0000] ; and byte [ebx+0x5E5FFFC8], al ; pop ebx ; pop ecx ; ret  ;  (1 found)
0x1000edab: sub eax, 0x1001307C ; lea ecx, dword [esp+0x14] ; push ecx ; push esi ; call ebp ;  (1 found)
0x1000e1a0: sub eax, 0x10013090 ; add esp, 0x28 ; push 0xFFFFFFFF ; push ecx ; call ebp ;  (1 found)
0x100065a7: sub eax, 0x10013128 ; push eax ; call ebp ;  (1 found)
0x1000a960: sub eax, 0x10013128 ; push edi ; push edx ; call ebp ;  (1 found)
0x10003c26: sub eax, 0x1001312C ; push edx ; call ebp ;  (1 found)
0x1000e5cf: sub eax, 0x10013130 ; mov ax, word [esi] ; push eax ; call ebp ;  (1 found)
0x10009bb6: sub eax, 0x10013134 ; mov ebx, dword [esi+0x000000BE] ; push eax ; call ebp ;  (1 found)
0x10009f6d: sub eax, 0x10013134 ; mov edi, dword [esi+0x00000090] ; push eax ; call ebp ;  (1 found)
0x10003e61: sub eax, 0x10013134 ; push 0x80000000 ; call ebp ;  (1 found)
0x1000f418: sub eax, 0xC4830000 ; sbb byte [edx+0x02], ch ; push edi ; call dword [0x1001313C] ;  (1 found)
0x100051e7: sub eax, esi ; add word [ebp+0x00], ax ; mov ax, word [ebp+0x00] ; push eax ; call dword [0x1001312C] ;  (1 found)
0x100050e1: sub eax, esi ; add word [ebx], ax ; push ecx ; call dword [0x1001312C] ;  (1 found)
0x100046a1: sub eax, esi ; add word [ebx], ax ; push ecx ; call dword [0x1001312C] ;  (1 found)
0x10007b88: sub ecx, 0x12 ; mov word [edx], cx ; mov eax, dword [esi+0x00000090] ; push eax ; call dword [0x10013128] ;  (1 found)
0x100047d8: sub edx, ecx ; add word [ebp+0x00], dx ; mov ax, word [ebp+0x00] ; push eax ; call dword [0x1001312C] ;  (1 found)
0x10011980: sub esp, 0x00000104 ; push edi ; push 0x1001F6D4 ; call dword [0x100130A8] ;  (1 found)
0x1000f610: sub esp, 0x00000190 ; lea eax, dword [esp+0x00] ; push eax ; push 0x00000101 ; call dword [0x10013144] ;  (1 found)
0x10010650: sub esp, 0x00000800 ; push ebx ; push esi ; push edi ; call dword [0x10013070] ;  (1 found)
0x100109e0: sub esp, 0x0C ; lea eax, dword [esp+0x00] ; push esi ; push eax ; call dword [0x100130CC] ;  (1 found)
0x1000f5c0: sub esp, 0x18 ; lea eax, dword [esp+0x08] ; push eax ; call dword [0x10013074] ;  (1 found)
0x10011930: sub esp, 0x28 ; push esi ; push edi ; xor edi, edi ; call dword [0x1001305C] ;  (1 found)
0x1000fb90: test ah, ch ; add dword [eax], edx ; push 0x80000002 ; call esi ;  (1 found)
0x10009f2f: test al, 0x00 ; add byte [eax], al ; mov ebp, dword [esi+0x000000A4] ; push eax ; call edi ;  (1 found)
0x1000b8f4: test al, 0x00 ; add byte [eax], al ; mov word [esp+0x12], ax ; push edx ; call edi ;  (1 found)
0x1000d358: test al, 0x00 ; add byte [eax], al ; ret  ;  (1 found)
0x1000d51b: test al, 0x00 ; add byte [eax], al ; ret  ;  (1 found)
0x1000c140: test al, 0x00 ; add byte [eax], al ; ret  ;  (1 found)
0x1000c170: test al, 0x00 ; add byte [eax], al ; ret  ;  (1 found)
0x1000d54b: test al, 0x00 ; add byte [eax], al ; ret  ;  (1 found)
0x10006d47: test al, 0x03 ; add byte [eax], al ; add byte [eax], al ; add byte [eax], al ; call dword [0x10013094] ;  (1 found)
0x10003284: test al, 0xAC ; add dword [eax], edx ; call dword [0x100130F8] ;  (1 found)
0x10003e74: test al, cl ; add byte [eax], al ; add byte [edx+0x01], ch ; call ebp ;  (1 found)
0x100108c6: test byte [eax+ebx], ah ; adc byte [eax], al ; add byte [ecx+0x52], dl ; push eax ; call dword [0x10013120] ;  (1 found)
0x1000cc84: test byte [eax+edi*4], ah ; add byte [eax], al ; add byte [ecx+0x5010246C], cl ; xor ebp, ebp ; call esi ;  (1 found)
0x10011f68: test byte [eax+edi], ah ; add dword [eax], eax ; add byte [edi+0x50], dl ; push esi ; call dword [0x10013158] ;  (1 found)
0x1000d7d4: test byte [eax], al ; add byte [eax], al ; mov dword [esp+0x00000088], ebp ; call esi ;  (1 found)
0x1000656a: test byte [eax], al ; add byte [eax], al ; push ecx ; call dword [0x10013128] ;  (1 found)
0x1000f6a7: test byte [eax], dh ; add dword [eax], edx ; ret  ;  (1 found)
0x10001c92: test byte [ebx], al ; add byte [eax], al ; push 0xFFFFFFFF ; push edx ; call dword [0x10013090] ;  (1 found)
0x1000f2c9: test byte [ecx], 0x00000000 ; add byte [eax+0x44], ch ; retn 0x1001 ;  (1 found)
0x1000f214: test byte [ecx], 0x00000000 ; add byte [eax+0x60], ch ; retn 0x1001 ;  (1 found)
0x1000f566: test byte [ecx], 0x00000000 ; add byte [eax-0x5C], ch ; retn 0x1001 ;  (1 found)
0x1000f560: test byte [ecx], 0x00000000 ; add byte [ecx+0x68], dl ; test byte [ecx], 0x00000000 ; add byte [eax-0x5C], ch ; retn 0x1001 ;  (1 found)
0x10011989: test byte [ecx], 0x00000010 ; call dword [0x100130A8] ;  (1 found)
0x100119f3: test byte [ecx], 0x00000010 ; push eax ; call dword [0x100130FC] ;  (1 found)
0x10012156: test byte [ecx], dh ; add dword [eax], edx ; jmp dword [0x10013188] ;  (1 found)
0x1000438d: test byte [esi+0x01], al ; add byte [eax], al ; mov dx, word [eax+0x02] ; push edx ; call dword [0x10013130] ;  (1 found)
0x100019e6: test byte [esi], dl ; mov eax, 0x50000003 ; call edi ;  (1 found)
0x1000bfdc: test byte [esp+ebp*8], ah ; add byte [eax], al ; add byte [eax+0x33], dl ; in eax, dx ; call esi ;  (1 found)
0x1000c028: test byte [esp+ebx*8], ah ; add byte [eax], al ; add byte [eax+0x33], dl ; in eax, dx ; call esi ;  (1 found)
0x1000d7a8: test byte [esp+ecx], ah ; add dword [eax], eax ; add byte [ecx+0x507C246C], cl ; call esi ;  (1 found)
0x1000c49c: test byte [esp+edi*4], ah ; add byte [eax], al ; add byte [eax+0x33], dl ; in eax, dx ; call edi ;  (1 found)
0x1000c002: test byte [esp+edx*8], ah ; add byte [eax], al ; add byte [eax+0x33], dl ; in eax, dx ; call esi ;  (1 found)
0x1000d75e: test byte [esp+esi*8], ah ; add byte [eax], al ; add byte [eax+0x33], dl ; in eax, dx ; call esi ;  (1 found)
0x1000c04e: test byte [esp], ah ; add byte [eax], al ; add byte [eax+0x33], dl ; in eax, dx ; call esi ;  (1 found)
0x1000fd8d: test byte [esp], ah ; add dword [eax], eax ; add byte [ebp+0x5018244C], cl ; push ecx ; call dword [0x1002FB6C] ;  (1 found)
0x1000f15b: test dword [0x5FFFFFFF], ebx ; pop esi ; mov eax, 0xFFFFFFF9 ; pop ebp ; ret  ;  (1 found)
0x1001119c: test dword [eax-0x7A000007], edi ; sal byte [ebp+0x16], 0x00000068 ; push 0x6A1001F0 ; and byte [ebp-0x00066B6B], cl ; call dword [edx-0x18] ;  (1 found)
0x1000650b: test dword [ecx+eax], ebp ; add byte [eax], al ; mov si, word [ebx+0x06] ; push 0x0000FFE2 ; call dword [0x1001312C] ;  (1 found)
0x100112d1: test dword [ecx+edi*8-0x01], esp ; call dword [eax+0x50] ;  (1 found)
0x10001d03: test dword [ecx], 0x016A5310 ; push eax ; call dword [0x10013094] ;  (1 found)
0x10001f41: test dword [ecx], 0x01F9E810 ; add dword [eax], eax ; add esp, 0x18 ; ret  ;  (1 found)
0x10001de6: test dword [ecx], 0x0354E810 ; add dword [eax], eax ; add esp, 0x30 ; ret  ;  (1 found)
0x10001130: test dword [ecx], 0x28C48310 ; push 0xFFFFFFFF ; push edx ; call dword [0x10013090] ;  (1 found)
0x10001197: test dword [ecx], 0x30C48310 ; push 0x00000000 ; push 0x00000001 ; push edx ; call dword [0x10013094] ;  (1 found)
0x1000197d: test dword [ecx], 0x6A565310 ; call dword [eax-0x01] ;  (1 found)
0x1000d66e: test dword [ecx], 0xF4680000 ; stosb  ; add dword [eax], edx ; push 0x000001FB ; call dword [0x10013080] ;  (1 found)
0x100077fc: test eax, 0xC4830000 ; and byte [ebx+0x5E5D5FC7], cl ; pop ebx ; pop ecx ; ret  ;  (1 found)
0x1000782d: test eax, 0xC4830000 ; and byte [ebx+0x5E5D5FC7], cl ; pop ebx ; pop ecx ; ret  ;  (1 found)
0x1000f74f: test eax, esi ; retn 0x1001 ;  (1 found)
0x10005b8a: test esi, ecx ; add byte [eax], al ; add byte [ebx-0x7AD7DBBC], cl ; ror byte [edi], 0xFFFFFF84 ; retn 0x0000 ;  (1 found)
0x1000166e: xchg ah, ah ; push es ; add byte [eax], al ; push edx ; call ebx ;  (1 found)
0x10001688: xchg ah, ch ; push es ; add byte [eax], al ; push ecx ; call ebx ;  (1 found)
0x100038fb: xchg ah, dl ; add eax, 0x006A0000 ; push 0x00000001 ; push eax ; call edi ;  (1 found)
0x1000f11a: xchg al, bl ; add eax, 0x52510000 ; push eax ; call edi ;  (1 found)
0x1000f149: xchg al, bl ; add eax, 0x52510000 ; push eax ; call edi ;  (1 found)
0x1000f1fd: xchg al, bl ; add eax, 0x56750000 ; call dword [0x10013164] ;  (1 found)
0x10006dd2: xchg al, dl ; add eax, 0x006A0000 ; push 0x00000001 ; push eax ; call dword [0x10013094] ;  (1 found)
0x10006c17: xchg byte [eax+0x00], bh ; add byte [ebp+0x50077EC0], al ; call dword [0x10013084] ;  (1 found)
0x10009fa2: xchg byte [eax+0x50000000], bl ; call dword [0x10013128] ;  (1 found)
0x100077b7: xchg byte [eax+0x50000000], cl ; call dword [0x10013128] ;  (1 found)
0x10007b8f: xchg byte [eax+0x50000000], dl ; call dword [0x10013128] ;  (1 found)
0x1000f27b: xchg byte [eax+0x52000004], bh ; call dword [0x1001312C] ;  (1 found)
0x100068a1: xchg byte [eax+0x6A000003], al ; add byte [edx+0x01], ch ; push eax ; call edi ;  (1 found)
0x1000f297: xchg byte [eax+0x6A000004], bh ; adc byte [ecx+0x52], dl ; mov word [esp+0x18], 0x0002 ; mov dword [esp+0x1C], eax ; call dword [0x10013150] ;  (1 found)
0x10009ef3: xchg byte [eax-0x75000000], ah ; cmp eax, 0x10013134 ; mov ebp, dword [esi+0x0000009C] ; push eax ; call edi ;  (1 found)
0x1000a96e: xchg byte [eax-0x75000000], al ; inc ebx ; xor al, 0x50 ; call ebp ;  (1 found)
0x100017b1: xchg dword [ecx], ecx ; add dword [eax], eax ; add esp, 0x18 ; pop esi ; ret  ;  (1 found)
0x100111e1: xchg eax, ebp ; sar cl, 0xFFFFFFFF ; call dword [edx-0x18] ;  (1 found)
0x10001292: xchg eax, ecx ; aam 0x05 ; add byte [eax], al ; push edx ; call dword [0x10013090] ;  (1 found)
0x100012ea: xchg eax, ecx ; aam 0x05 ; add byte [eax], al ; push edx ; call dword [0x10013094] ;  (1 found)
0x10008329: xchg eax, esi ; mov byte [eax], al ; add byte [eax], al ; push edx ; call dword [0x10013128] ;  (1 found)
0x10008c33: xchg eax, esi ; mov byte [eax], al ; add byte [eax], al ; push edx ; call dword [0x10013128] ;  (1 found)
0x10008e03: xchg eax, esi ; mov byte [eax], al ; add byte [eax], al ; push edx ; call dword [0x10013128] ;  (1 found)
0x10008fd3: xchg eax, esi ; mov byte [eax], al ; add byte [eax], al ; push edx ; call dword [0x10013128] ;  (1 found)
0x1000f272: xchg eax, esi ; mov esp, 0x83000004 ; les eax,  [ecx+ecx*4] ; xchg byte [eax+0x52000004], bh ; call dword [0x1001312C] ;  (1 found)
0x10003ad1: xchg eax, esp ; add eax, dword [eax] ; add byte [ebx], bh ; ret  ;  (1 found)
0x10010577: xchg eax, esp ; and al, 0x00 ; adc byte [eax], al ; add byte [ecx+0x52], dl ; call dword [0x100130E0] ;  (1 found)
0x1000c84b: xchg eax, esp ; and al, 0xB0 ; add byte [eax], al ; add byte [ebx], dh ; call dword [edx-0x77] ;  (1 found)
0x1000ca5b: xchg eax, esp ; and al, 0xB8 ; add byte [eax], al ; add byte [ebx], dh ; call dword [edx-0x77] ;  (1 found)
0x1000cc74: xchg eax, esp ; and al, 0xBC ; add byte [eax], al ; add byte [ecx+0x52542444], cl ; call esi ;  (1 found)
0x100069aa: xchg eax, esp ; mov bh, 0x00 ; add byte [ebx+0x5E5F18C4], al ; ret  ;  (1 found)
0x1000eefa: xchg eax, esp ; xor byte [ecx], al ; adc byte [edi+0x5E], bl ; ret  ;  (1 found)
0x10012168: xchg eax, esp ; xor dword [ecx], eax ; adc bh, bh ; and eax, 0x10013190 ; jmp dword [0x10013198] ;  (1 found)
0x10011500: xlatb  ; add esp, 0x08 ; push 0xFFFFFFFF ; call dword [0x100130B8] ;  (1 found)
0x1000ce92: xlatb  ; mov dword [esp+0x50], eax ; mov eax, dword [esp+0x000000C4] ; push eax ; call edi ;  (1 found)
0x1000b8e1: xlatb  ; mov ecx, dword [esp+0x000000A0] ; mov word [esp+0x10], ax ; push ecx ; call edi ;  (1 found)
0x1000398c: xlatb  ; mov edx, dword [esi+0x000005D4] ; push 0xFFFFFFFF ; push edx ; call edi ;  (1 found)
0x1000682a: xlatb  ; mov edx, dword [esi+0x4C] ; push 0xFFFFFFFF ; push edx ; call edi ;  (1 found)
0x1000692a: xlatb  ; mov edx, dword [esi+0x4C] ; push 0xFFFFFFFF ; push edx ; call edi ;  (1 found)
0x1000b8f0: xlatb  ; mov edx, dword [esp+0x000000A8] ; mov word [esp+0x12], ax ; push edx ; call edi ;  (1 found)
0x1000a174: xlatb  ; mov edx, dword [esp+0x000000EC] ; mov word [esp+0x66], ax ; push edx ; call edi ;  (1 found)
0x10003041: xlatb  ; mov esi, dword [esp+0x18] ; mov word [ebx], ax ; push esi ; call edi ;  (1 found)
0x1000a163: xlatb  ; mov word [esp+0x62], ax ; push 0x00000014 ; call edi ;  (1 found)
0x1000a183: xlatb  ; mov word [esp+0x68], ax ; mov eax, dword [esp+0x000000F0] ; push eax ; call edi ;  (1 found)
0x10003010: xlatb  ; push 0x00000004 ; mov dword [ebp+0x20], eax ; call edi ;  (1 found)
0x10010372: xlatb  ; push eax ; call dword [0x10013034] ;  (1 found)
0x1000a16c: xlatb  ; push ebp ; mov word [esp+0x68], ax ; call edi ;  (1 found)
0x100050cc: xlatb  ; push ecx ; push edx ; call dword [0x100130F4] ;  (1 found)
0x1000468c: xlatb  ; push ecx ; push edx ; call dword [0x100130F4] ;  (1 found)
0x100114fd: xlatb  ; push esi ; call edi ;  (1 found)
0x1000be0a: xor al, 0x00 ; add byte [eax], al ; call dword [0x10013130] ;  (1 found)
0x100105e9: xor al, 0x30 ; add dword [eax], edx ; mov eax, 0x00000001 ; pop esi ; ret  ;  (1 found)
0x10010618: xor al, 0x30 ; add dword [eax], edx ; mov eax, 0x00000001 ; pop esi ; ret  ;  (1 found)
0x10010626: xor al, 0x30 ; add dword [eax], edx ; xor eax, eax ; pop esi ; ret  ;  (1 found)
0x10009efa: xor al, 0x31 ; add dword [eax], edx ; mov ebp, dword [esi+0x0000009C] ; push eax ; call edi ;  (1 found)
0x10009bb7: xor al, 0x31 ; add dword [eax], edx ; mov ebx, dword [esi+0x000000BE] ; push eax ; call ebp ;  (1 found)
0x10009f6e: xor al, 0x31 ; add dword [eax], edx ; mov edi, dword [esi+0x00000090] ; push eax ; call ebp ;  (1 found)
0x10003e62: xor al, 0x31 ; add dword [eax], edx ; push 0x80000000 ; call ebp ;  (1 found)
0x1000a975: xor al, 0x50 ; call ebp ;  (1 found)
0x1000a9a4: xor al, 0x50 ; call ebp ;  (1 found)
0x1000a95d: xor al, 0x55 ; mov ebp, dword [0x10013128] ; push edi ; push edx ; call ebp ;  (1 found)
0x1001010d: xor al, 0x83 ; les ebp,  [eax] ; push edi ; push eax ; call dword [0x1001302C] ;  (1 found)
0x10005fb6: xor al, 0x83 ; retn 0x2B26 ;  (1 found)
0x100065be: xor al, 0x89 ; dec esp ; and al, 0x18 ; push edx ; call ebp ;  (1 found)
0x100065a5: xor al, 0x8B ; sub eax, 0x10013128 ; push eax ; call ebp ;  (1 found)
0x1000ee62: xor al, byte [eax] ; add byte [ebx+0x5E5F18C4], al ; pop ebx ; ret  ;  (1 found)
0x100120aa: xor bh, al ; inc esi ; push 0x00000005 ; pop esi ; ret  ;  (1 found)
0x10001c42: xor byte [eax+0x03], 0x00000000 ; add byte [ebx], bh ; ret  ;  (1 found)
0x10001c67: xor byte [eax+0x03], 0x00000000 ; add byte [ebx], bh ; ret  ;  (1 found)
0x1000be09: xor byte [eax+eax], dh ; add byte [eax], al ; call dword [0x10013130] ;  (1 found)
0x1000febd: xor byte [eax-0x77], dl ; push es ; mov edx, dword [0x1002FD8C] ; push edx ; call dword [0x1002FBAC] ;  (1 found)
0x1000f042: xor byte [eax], al ; add byte [ebx-0x3974DF3C], al ; pop edi ; pop esi ; ret  ;  (1 found)
0x10011124: xor byte [ebp-0x00068F6B], cl ; call dword [edx-0x18] ;  (1 found)
0x10006707: xor byte [ebx+0x006A18C4], al ; push eax ; call dword [0x10013128] ;  (1 found)
0x1000efdb: xor byte [ebx+0x006A20C4], al ; push edi ; push edx ; push esi ; call dword [0x10013158] ;  (1 found)
0x100035ec: xor byte [ebx+0x04728916], cl ; mov dword [esi+0x04], eax ; mov eax, dword [ebx+0x000005D4] ; push eax ; call dword [0x10013094] ;  (1 found)
0x1000622c: xor byte [ebx+0x562C244C], cl ; push ebx ; push ecx ; call dword [ebx+0x34] ;  (1 found)
0x10012150: xor byte [ecx], 0x00000001 ; adc bh, bh ; and eax, 0x10013184 ; jmp dword [0x10013188] ;  (1 found)
0x100114ba: xor byte [ecx], al ; adc bh, bh ; salc  ; push edi ; call esi ;  (1 found)
0x100114f9: xor byte [ecx], al ; adc bh, bh ; xlatb  ; push esi ; call edi ;  (1 found)
0x100105ea: xor byte [ecx], al ; adc byte [eax+0x00000001], bh ; pop esi ; ret  ;  (1 found)
0x10010619: xor byte [ecx], al ; adc byte [eax+0x00000001], bh ; pop esi ; ret  ;  (1 found)
0x1001193a: xor byte [ecx], al ; adc byte [eax+0x57], dl ; push 0x00000410 ; call dword [0x10013058] ;  (1 found)
0x1001060e: xor byte [ecx], al ; adc byte [ebp+0x0E7456C0], al ; call dword [0x10013034] ;  (1 found)
0x1000ef6c: xor byte [ecx], al ; adc byte [ebp+0x500C2444], cl ; push esi ; call ebx ;  (1 found)
0x100109ec: xor byte [ecx], al ; adc byte [ebp+0x5108244C], cl ; call dword [0x100130D0] ;  (1 found)
0x1000edad: xor byte [ecx], al ; adc byte [ebp+0x5114244C], cl ; push esi ; call ebp ;  (1 found)
0x1001036a: xor byte [ecx], al ; adc byte [ebp-0x00F18A40], al ; xlatb  ; push eax ; call dword [0x10013034] ;  (1 found)
0x10003ac6: xor byte [ecx], al ; adc byte [ebx+0x00039887], cl ; add byte [ebp+0x0003949F], cl ; add byte [ebx], bh ; ret  ;  (1 found)
0x1000ef66: xor byte [ecx], al ; adc byte [ebx+0x0130903D], cl ; adc byte [ebp+0x500C2444], cl ; push esi ; call ebx ;  (1 found)
0x10010e65: xor byte [ecx], al ; adc byte [ebx+0x016A55E8], cl ; push 0x001F0FFF ; call dword [0x10013058] ;  (1 found)
0x10010b30: xor byte [ecx], al ; adc byte [ebx+0x25EB10C4], al ; mov eax, 0x00000001 ; ret  ;  (1 found)
0x10011961: xor byte [ecx], al ; adc byte [ebx+0x5F142444], cl ; pop esi ; add esp, 0x28 ; ret  ;  (1 found)
0x1000e1a2: xor byte [ecx], al ; adc byte [ebx-0x0095D73C], al ; push ecx ; call ebp ;  (1 found)
0x10003982: xor byte [ecx], al ; adc byte [ebx-0x0095D73C], al ; push ecx ; call edi ;  (1 found)
0x10006820: xor byte [ecx], al ; adc byte [ebx-0x0095D73C], al ; push ecx ; call edi ;  (1 found)
0x10006920: xor byte [ecx], al ; adc byte [ebx-0x0095D73C], al ; push ecx ; call edi ;  (1 found)
0x10010582: xor byte [ecx], al ; adc byte [ebx-0x3B7EF73C], al ; add byte [eax], ah ; add byte [eax], al ; ret  ;  (1 found)
0x1001050a: xor byte [ecx], al ; adc byte [ebx-0x3B7EFB3C], al ; add byte [eax], dl ; add byte [eax], al ; ret  ;  (1 found)
0x100105b8: xor byte [ecx], al ; adc byte [ebx-0x6F3CFB3C], al ; push esi ; call dword [0x10013070] ;  (1 found)
0x1000f661: xor byte [ecx], al ; adc byte [ebx], dh ; rol byte [ecx+0x000190C4], 0x00000000 ; ret  ;  (1 found)
0x10010377: xor byte [ecx], al ; adc byte [edi+0x33], bl ; rcr byte [esi-0x3D], 0x00000056 ; call dword [0x10013034] ;  (1 found)
0x1000eefb: xor byte [ecx], al ; adc byte [edi+0x5E], bl ; ret  ;  (1 found)
0x10006e41: xor byte [ecx], al ; adc byte [edx+0x00], ch ; push 0x00000001 ; push eax ; call edi ;  (1 found)
0x1001243b: xor byte [ecx], al ; adc byte [edx+0x01], ch ; pop eax ; retn 0x000C ;  (1 found)
0x10003586: xor byte [ecx], al ; adc byte [edx-0x01], ch ; push edx ; call esi ;  (1 found)
0x100106f6: xor byte [ecx], al ; adc byte [esi-0x75], dl ; clc  ; call dword [0x10013034] ;  (1 found)
0x1000e5d0: xor byte [ecx], dh ; add dword [eax], edx ; mov ax, word [esi] ; push eax ; call ebp ;  (1 found)
0x1000e340: xor byte [ecx], dh ; add dword [eax], edx ; push eax ; call esi ;  (1 found)
0x1000208b: xor byte [edi+0x5E], bl ; pop ebx ; ret  ;  (1 found)
0x1000119c: xor byte [edx+0x00], ch ; push 0x00000001 ; push edx ; call dword [0x10013094] ;  (1 found)
0x1000da55: xor byte [edx-0x01], ch ; push edx ; call dword [0x10013090] ;  (1 found)
0x10010c46: xor byte [edx], al ; add byte [eax], al ; ret  ;  (1 found)
0x10010c8c: xor byte [edx], al ; add byte [eax], al ; ret  ;  (1 found)
0x10010bec: xor byte [edx], al ; add byte [eax], al ; ret  ;  (1 found)
0x10010cdc: xor byte [edx], al ; add byte [eax], al ; ret  ;  (1 found)
0x1000e487: xor byte [esi+0x5D], bl ; add esp, 0x0000041C ; ret  ;  (1 found)
0x10004baa: xor byte [esi-0x75], ah ; dec ebp ; inc eax ; push ecx ; call dword [0x10013130] ;  (1 found)
0x1000f00a: xor dword [eax], eax ; add byte [ebx-0x017CE73C], al ; push dword [ebp+0x38] ; call dword [0x10013164] ;  (1 found)
0x10003d03: xor dword [ebx+0x598B0479], ecx ; or byte [ebx+0x1EE80C69], cl ; ret  ;  (1 found)
0x10012133: xor dword [ecx], eax ; adc bh, bh ; and eax, 0x10013170 ; jmp dword [0x10013174] ;  (1 found)
0x10012139: xor dword [ecx], eax ; adc bh, bh ; and eax, 0x10013174 ; jmp dword [0x10013178] ;  (1 found)
0x1001213f: xor dword [ecx], eax ; adc bh, bh ; and eax, 0x10013178 ; jmp dword [0x1001317C] ;  (1 found)
0x10012145: xor dword [ecx], eax ; adc bh, bh ; and eax, 0x1001317C ; jmp dword [0x10013180] ;  (1 found)
0x1001214b: xor dword [ecx], eax ; adc bh, bh ; and eax, 0x10013180 ; jmp dword [0x10013184] ;  (1 found)
0x10012151: xor dword [ecx], eax ; adc bh, bh ; and eax, 0x10013184 ; jmp dword [0x10013188] ;  (1 found)
0x10012157: xor dword [ecx], eax ; adc bh, bh ; and eax, 0x10013188 ; jmp dword [0x1001318C] ;  (1 found)
0x1001215d: xor dword [ecx], eax ; adc bh, bh ; and eax, 0x1001318C ; jmp dword [0x10013194] ;  (1 found)
0x10012169: xor dword [ecx], eax ; adc bh, bh ; and eax, 0x10013190 ; jmp dword [0x10013198] ;  (1 found)
0x10012163: xor dword [ecx], eax ; adc bh, bh ; and eax, 0x10013194 ; jmp dword [0x10013190] ;  (1 found)
0x1000527a: xor dword [ecx], eax ; adc byte [ebp+0x56], dl ; push edi ; push 0x0000000C ; call ebx ;  (1 found)
0x10011f38: xor dword [ecx], eax ; adc byte [ebp+0x6A20244C], cl ; adc byte [ecx+0x56], dl ; mov word [esp+0x2E], ax ; call dword [0x10013150] ;  (1 found)
0x1000f385: xor dword [ecx], eax ; adc byte [ebp-0x5EDB8B40], al ; mov eax, 0x6A1002FD ; add byte [eax+0x24], ch ; retn 0x1001 ;  (1 found)
0x10006ca3: xor dword [ecx], eax ; adc byte [ebx+0x4789204F], cl ; sbb al, 0x51 ; call dword [0x10013134] ;  (1 found)
0x10003bf3: xor dword [ecx], eax ; adc byte [ebx+0x50C033D8], cl ; call edi ;  (1 found)
0x1000f1f6: xor dword [ecx], eax ; adc byte [ebx-0x79760008], al ; fadd dword [0x56750000] ; call dword [0x10013164] ;  (1 found)
0x10006c96: xor dword [ecx], eax ; adc byte [ecx+0x478B1847], cl ; sbb al, 0x50 ; call dword [0x10013134] ;  (1 found)
0x10004463: xor dword [ecx], eax ; adc byte [ecx+0x66242444], cl ; mov ecx, dword [ebp+0x40] ; push ecx ; call dword [0x10013130] ;  (1 found)
0x10004ba4: xor dword [ecx], eax ; adc byte [ecx+0x66302444], cl ; mov ecx, dword [ebp+0x40] ; push ecx ; call dword [0x10013130] ;  (1 found)
0x1000a962: xor dword [ecx], eax ; adc byte [edi+0x52], dl ; call ebp ;  (1 found)
0x1000e982: xor dword [ecx], eax ; adc byte [edi+0x66], dl ; mov eax, dword [esi] ; push eax ; call ebx ;  (1 found)
0x1000307e: xor dword [ecx], eax ; adc byte [edx+0x03], ch ; mov edi, eax ; call dword [0x1001312C] ;  (1 found)
0x1000e5d1: xor dword [ecx], eax ; adc byte [esi-0x75], ah ; push es ; push eax ; call ebp ;  (1 found)
0x10006701: xor dword [edx+0x438B0000], edi ; xor byte [ebx+0x006A18C4], al ; push eax ; call dword [0x10013128] ;  (1 found)
0x10003584: xor eax, 0x10013090 ; push 0xFFFFFFFF ; push edx ; call esi ;  (1 found)
0x10011563: xor eax, 0x100130B0 ; push edi ; push 0x0000000C ; call esi ;  (1 found)
0x100114b8: xor eax, 0x100130B4 ; call esi ;  (1 found)
0x1000e33f: xor eax, 0x10013130 ; push eax ; call esi ;  (1 found)
0x1000cc63: xor eax, 0x10013134 ; push ecx ; mov dword [esp+0x50], edx ; mov dword [esp+0x54], eax ; call esi ;  (1 found)
0x1000d724: xor eax, 0x10013134 ; push ecx ; mov dword [esp+0x60], edx ; mov dword [esp+0x64], eax ; call esi ;  (1 found)
0x1000faf7: xor eax, 0x83000005 ; les eax,  [edi+ebx*2] ; pop esi ; add esp, 0x3C ; ret  ;  (1 found)
0x1000ed5e: xor eax, dword [eax] ; add byte [ebx+0x026A18C4], al ; push esi ; call dword [0x1001313C] ;  (1 found)
0x100100c4: xor eax, eax ; add esp, 0x0000010C ; ret  ;  (1 found)
0x1000f664: xor eax, eax ; add esp, 0x00000190 ; ret  ;  (1 found)
0x100034f5: xor eax, eax ; add esp, 0x00000414 ; ret  ;  (1 found)
0x10010757: xor eax, eax ; add esp, 0x00001004 ; ret  ;  (1 found)
0x10010569: xor eax, eax ; add esp, 0x00002000 ; ret  ;  (1 found)
0x10011b93: xor eax, eax ; add esp, 0x0C ; ret  ;  (1 found)
0x10011be3: xor eax, eax ; add esp, 0x0C ; ret  ;  (1 found)
0x10011bbc: xor eax, eax ; add esp, 0x0C ; ret  ;  (1 found)
0x10011c0f: xor eax, eax ; add esp, 0x0C ; ret  ;  (1 found)
0x10011c3d: xor eax, eax ; add esp, 0x0C ; ret  ;  (1 found)
0x1000ea41: xor eax, eax ; pop ebp ; ret  ;  (1 found)
0x100116e0: xor eax, eax ; pop ebx ; add esp, 0x00000100 ; ret  ;  (1 found)
0x100106be: xor eax, eax ; pop ebx ; add esp, 0x00000800 ; ret  ;  (1 found)
0x10012019: xor eax, eax ; pop ebx ; add esp, 0x00001128 ; ret  ;  (1 found)
0x10003594: xor eax, eax ; pop ebx ; ret  ;  (1 found)
0x10011afa: xor eax, eax ; pop edi ; add esp, 0x00000104 ; ret  ;  (1 found)
0x10001970: xor eax, eax ; pop edi ; pop ebp ; add esp, 0x00000108 ; ret  ;  (1 found)
0x10011899: xor eax, eax ; pop edi ; pop esi ; add esp, 0x00000100 ; ret  ;  (1 found)
0x10010796: xor eax, eax ; pop edi ; pop esi ; add esp, 0x00001004 ; ret  ;  (1 found)
0x1000f4b1: xor eax, eax ; pop edi ; pop esi ; add esp, 0x14 ; ret  ;  (1 found)
0x10006151: xor eax, eax ; pop edi ; pop esi ; pop ebx ; ret  ;  (1 found)
0x100060b4: xor eax, eax ; pop edi ; pop esi ; pop ebx ; ret  ;  (1 found)
0x100061ec: xor eax, eax ; pop edi ; pop esi ; pop ebx ; ret  ;  (1 found)
0x1000e8dc: xor eax, eax ; pop edi ; pop esi ; pop ebx ; ret  ;  (1 found)
0x1000e895: xor eax, eax ; pop edi ; pop esi ; pop ebx ; ret  ;  (1 found)
0x1000ff3a: xor eax, eax ; pop edi ; pop esi ; ret  ;  (1 found)
0x1000ffa5: xor eax, eax ; pop edi ; pop esi ; ret  ;  (1 found)
0x10010d02: xor eax, eax ; pop esi ; add esp, 0x0000009C ; ret  ;  (1 found)
0x10011914: xor eax, eax ; pop esi ; add esp, 0x00000100 ; ret  ;  (1 found)
0x100014b6: xor eax, eax ; pop esi ; add esp, 0x08 ; ret  ;  (1 found)
0x10010a5e: xor eax, eax ; pop esi ; add esp, 0x0C ; ret  ;  (1 found)
0x10003577: xor eax, eax ; pop esi ; pop ebp ; pop ebx ; ret  ;  (1 found)
0x10010025: xor eax, eax ; pop esi ; pop ecx ; ret  ;  (1 found)
0x10002166: xor eax, eax ; pop esi ; ret  ;  (1 found)
0x10005d2b: xor eax, eax ; pop esi ; ret  ;  (1 found)
0x1000e4f8: xor eax, eax ; pop esi ; ret  ;  (1 found)
0x1000e4d6: xor eax, eax ; pop esi ; ret  ;  (1 found)
0x1000f04e: xor eax, eax ; pop esi ; ret  ;  (1 found)
0x1000f5b2: xor eax, eax ; pop esi ; ret  ;  (1 found)
0x10010093: xor eax, eax ; pop esi ; ret  ;  (1 found)
0x1001037b: xor eax, eax ; pop esi ; ret  ;  (1 found)
0x10010396: xor eax, eax ; pop esi ; ret  ;  (1 found)
0x1001062a: xor eax, eax ; pop esi ; ret  ;  (1 found)
0x10003bf8: xor eax, eax ; push eax ; call edi ;  (1 found)
0x1000e6a1: xor eax, eax ; ret  ;  (1 found)
0x1000f68b: xor eax, eax ; ret  ;  (1 found)
0x10003c04: xor ebp, ebp ; call edi ;  (1 found)
0x1000ceab: xor ebp, ebp ; call edi ;  (1 found)
0x1000c4a3: xor ebp, ebp ; call edi ;  (1 found)
0x1000cc8f: xor ebp, ebp ; call esi ;  (1 found)
0x1000d134: xor ebp, ebp ; call esi ;  (1 found)
0x1000bfe3: xor ebp, ebp ; call esi ;  (1 found)
0x1000c009: xor ebp, ebp ; call esi ;  (1 found)
0x1000c02f: xor ebp, ebp ; call esi ;  (1 found)
0x1000c055: xor ebp, ebp ; call esi ;  (1 found)
0x1000d765: xor ebp, ebp ; call esi ;  (1 found)
0x1000d799: xor ebp, ebp ; call esi ;  (1 found)
0x1000d7bf: xor ebp, ebp ; call esi ;  (1 found)
0x10005284: xor ebp, ebp ; mov dword [esp+0x64], eax ; push ebp ; call ebx ;  (1 found)
0x1000ced0: xor ebp, ebp ; push ecx ; call edi ;  (1 found)
0x10009f3e: xor ecx, ecx ; push ebp ; mov dword [esp+0x38], edx ; mov dword [esp+0x44], ecx ; call edi ;  (1 found)
0x10009f09: xor ecx, ecx ; push ebp ; mov dword [esp+0x44], edx ; mov dword [esp+0x40], ecx ; call edi ;  (1 found)
0x10009bc6: xor ecx, ecx ; push ebx ; mov dword [esp+0x40], edx ; mov dword [esp+0x38], ecx ; call ebp ;  (1 found)
0x10009f7d: xor ecx, ecx ; push edi ; mov dword [esp+0x38], edx ; mov dword [esp+0x3C], ecx ; call ebp ;  (1 found)
0x10011935: xor edi, edi ; call dword [0x1001305C] ;  (1 found)
0x1000d3dd: xor edi, edi ; call esi ;  (1 found)
0x1000d73b: xor edi, edi ; call esi ;  (1 found)
0x1000f5ff: xor edx, edx ; add esp, 0x18 ; ret  ;  (1 found)
0x1000e5f9: xor edx, edx ; mov dl, byte [ecx+0x1000E6C0] ; jmp dword [0x1000E6A4+edx*4] ;  (1 found)
0x1001228f: xor edx, edx ; mov eax, esi ; pop esi ; pop ebx ; retn 0x0010 ;  (1 found)
0x1000ef29: xor esp, dword [esi] ; add byte [eax], al ; add esp, 0x18 ; ret  ;  (1 found)
0x100114bd: xor eax, eax ; pop edi ; ret  ;  (1 found)
0x1101044e: dec ecx ; pop edi ; mov eax, ecx ; ret  ;  (1 found)
0x10219f8c: mov dword eax, [ecx] ; mov dword [eax], edx ; pop eax ; ret  ;  (1 found)
0x5051f278: mov eax, dword [ecx] ; ret  ;  (1 found)
